                              1 ;--------------------------------------------------------
                              2 ; File Created by SDCC : free open source ANSI-C Compiler
                              3 ; Version 4.0.0 #11528 (MINGW32)
                              4 ;--------------------------------------------------------
                              5 	.module C__Users_Bruno_AppData_Local_Temp_lcc46601
                              6 	.optsdcc -mgbz80
                              7 	
                              8 ;--------------------------------------------------------
                              9 ; Public variables in this module
                             10 ;--------------------------------------------------------
                             11 	.globl _main
                             12 	.globl _game_update
                             13 	.globl _movement_update
                             14 	.globl _animate_level
                             15 	.globl _check_collisions
                             16 	.globl _die
                             17 	.globl _stop
                             18 	.globl _fall
                             19 	.globl _jump
                             20 	.globl _walk_right
                             21 	.globl _walk_left
                             22 	.globl _move_bubbles
                             23 	.globl _setup
                             24 	.globl _move_metasprite
                             25 	.globl _set_tile_at
                             26 	.globl _get_tile_at
                             27 	.globl _getTileAt
                             28 	.globl _update_lives
                             29 	.globl _update_score
                             30 	.globl _update_chutes
                             31 	.globl _update_gems
                             32 	.globl _window_VBL
                             33 	.globl _window_LCD
                             34 	.globl _game_VBL
                             35 	.globl _game_LCD
                             36 	.globl _key_up
                             37 	.globl _key_down
                             38 	.globl _selection_update
                             39 	.globl _menu_update
                             40 	.globl _menu_VBL
                             41 	.globl _menu_LCD
                             42 	.globl _move_sprite
                             43 	.globl _get_sprite_prop
                             44 	.globl _set_sprite_prop
                             45 	.globl _set_sprite_tile
                             46 	.globl _set_sprite_data
                             47 	.globl _move_win
                             48 	.globl _set_win_tiles
                             49 	.globl _set_win_data
                             50 	.globl _scroll_bkg
                             51 	.globl _move_bkg
                             52 	.globl _set_bkg_tiles
                             53 	.globl _set_bkg_data
                             54 	.globl _wait_vbl_done
                             55 	.globl _set_interrupts
                             56 	.globl _disable_interrupts
                             57 	.globl _enable_interrupts
                             58 	.globl _joypad
                             59 	.globl _add_LCD
                             60 	.globl _add_VBL
                             61 	.globl _remove_LCD
                             62 	.globl _remove_VBL
                             63 	.globl _bubble_tiles
                             64 	.globl _title_tiles
                             65 	.globl _faded_out
                             66 	.globl _effects_refresh
                             67 	.globl _scene
                             68 	.globl _bubble
                             69 	.globl _hero
                             70 	.globl _chutes
                             71 	.globl _score
                             72 	.globl _gems
                             73 	.globl _lives
                             74 	.globl _requirement_met
                             75 	.globl _blocked_right
                             76 	.globl _blocked_left
                             77 	.globl _standing
                             78 	.globl _h_swapped
                             79 	.globl _falling_refresh
                             80 	.globl _jumping_refresh
                             81 	.globl _walking_refresh
                             82 	.globl _game_refresh
                             83 	.globl _movement
                             84 	.globl _gravity
                             85 	.globl _level_height
                             86 	.globl _level_width
                             87 	.globl _level
                             88 	.globl _levels
                             89 	.globl _gameover_win
                             90 	.globl _complete_win
                             91 	.globl _game_win
                             92 	.globl _selection_bkg
                             93 	.globl _unlocked
                             94 	.globl _selected
                             95 	.globl _win_top
                             96 	.globl _menu_refresh
                             97 	.globl _previous_keys
                             98 	.globl _hero_tiles
                             99 	.globl _exit_tiles
                            100 	.globl _lava_tiles
                            101 	.globl _cave_tiles
                            102 	.globl _hud_tiles
                            103 	.globl _spawns_y
                            104 	.globl _spawns_x
                            105 	.globl _gems_required
                            106 	.globl _levels_height
                            107 	.globl _levels_width
                            108 	.globl _test_level
                            109 	.globl _level02
                            110 	.globl _level01
                            111 	.globl _title_win
                            112 	.globl _title_bkg
                            113 	.globl _vbl_wait
                            114 	.globl _fade_to_black
                            115 	.globl _fade_from_black
                            116 	.globl _fade_to_white
                            117 	.globl _fade_from_white
                            118 ;--------------------------------------------------------
                            119 ; special function registers
                            120 ;--------------------------------------------------------
                            121 ;--------------------------------------------------------
                            122 ; ram data
                            123 ;--------------------------------------------------------
                            124 	.area _DATA
   0000                     125 _previous_keys::
   0000                     126 	.ds 1
   0001                     127 _menu_refresh::
   0001                     128 	.ds 1
   0002                     129 _win_top::
   0002                     130 	.ds 1
   0003                     131 _selected::
   0003                     132 	.ds 1
   0004                     133 _unlocked::
   0004                     134 	.ds 1
   0005                     135 _selection_bkg::
   0005                     136 	.ds 360
   016D                     137 _game_win::
   016D                     138 	.ds 40
   0195                     139 _complete_win::
   0195                     140 	.ds 140
   0221                     141 _gameover_win::
   0221                     142 	.ds 140
   02AD                     143 _levels::
   02AD                     144 	.ds 6
   02B3                     145 _level::
   02B3                     146 	.ds 1600
   08F3                     147 _level_width::
   08F3                     148 	.ds 1
   08F4                     149 _level_height::
   08F4                     150 	.ds 1
   08F5                     151 _gravity::
   08F5                     152 	.ds 1
   08F6                     153 _movement::
   08F6                     154 	.ds 1
   08F7                     155 _game_refresh::
   08F7                     156 	.ds 1
   08F8                     157 _walking_refresh::
   08F8                     158 	.ds 1
   08F9                     159 _jumping_refresh::
   08F9                     160 	.ds 1
   08FA                     161 _falling_refresh::
   08FA                     162 	.ds 1
   08FB                     163 _h_swapped::
   08FB                     164 	.ds 1
   08FC                     165 _standing::
   08FC                     166 	.ds 1
   08FD                     167 _blocked_left::
   08FD                     168 	.ds 1
   08FE                     169 _blocked_right::
   08FE                     170 	.ds 1
   08FF                     171 _requirement_met::
   08FF                     172 	.ds 1
   0900                     173 _lives::
   0900                     174 	.ds 1
   0901                     175 _gems::
   0901                     176 	.ds 1
   0902                     177 _score::
   0902                     178 	.ds 1
   0903                     179 _chutes::
   0903                     180 	.ds 1
   0904                     181 _hero::
   0904                     182 	.ds 20
   0918                     183 _bubble::
   0918                     184 	.ds 20
   092C                     185 _scene::
   092C                     186 	.ds 1
   092D                     187 _effects_refresh::
   092D                     188 	.ds 1
   092E                     189 _faded_out::
   092E                     190 	.ds 1
   092F                     191 _title_tiles::
   092F                     192 	.ds 160
   09CF                     193 _bubble_tiles::
   09CF                     194 	.ds 128
                            195 ;--------------------------------------------------------
                            196 ; absolute external ram data
                            197 ;--------------------------------------------------------
                            198 	.area _DABS (ABS)
                            199 ;--------------------------------------------------------
                            200 ; global & static initialisations
                            201 ;--------------------------------------------------------
                            202 	.area _HOME
                            203 	.area _GSINIT
                            204 	.area _GSFINAL
                            205 	.area _GSINIT
                            206 ;..\/menus.c:4: UINT8 win_top = 55;
   0000 21r02r00            207 	ld	hl, #_win_top
   0003 36 37               208 	ld	(hl), #0x37
                            209 ;..\/menus.c:5: UINT8 selected = 1;
   0005 21r03r00            210 	ld	hl, #_selected
   0008 36 01               211 	ld	(hl), #0x01
                            212 ;..\/menus.c:6: UINT8 unlocked = 1;
   000A 21r04r00            213 	ld	hl, #_unlocked
   000D 36 01               214 	ld	(hl), #0x01
                            215 ;..\/hudmaps.c:83: unsigned char selection_bkg[] =
   000F 21r05r00            216 	ld	hl, #_selection_bkg
   0012 36 00               217 	ld	(hl), #0x00
   0014 21r06r00            218 	ld	hl, #(_selection_bkg + 0x0001)
   0017 36 00               219 	ld	(hl), #0x00
   0019 21r07r00            220 	ld	hl, #(_selection_bkg + 0x0002)
   001C 36 00               221 	ld	(hl), #0x00
   001E 21r08r00            222 	ld	hl, #(_selection_bkg + 0x0003)
   0021 36 00               223 	ld	(hl), #0x00
   0023 21r09r00            224 	ld	hl, #(_selection_bkg + 0x0004)
   0026 36 00               225 	ld	(hl), #0x00
   0028 21r0Ar00            226 	ld	hl, #(_selection_bkg + 0x0005)
   002B 36 00               227 	ld	(hl), #0x00
   002D 21r0Br00            228 	ld	hl, #(_selection_bkg + 0x0006)
   0030 36 00               229 	ld	(hl), #0x00
   0032 21r0Cr00            230 	ld	hl, #(_selection_bkg + 0x0007)
   0035 36 00               231 	ld	(hl), #0x00
   0037 21r0Dr00            232 	ld	hl, #(_selection_bkg + 0x0008)
   003A 36 00               233 	ld	(hl), #0x00
   003C 21r0Er00            234 	ld	hl, #(_selection_bkg + 0x0009)
   003F 36 00               235 	ld	(hl), #0x00
   0041 21r0Fr00            236 	ld	hl, #(_selection_bkg + 0x000a)
   0044 36 00               237 	ld	(hl), #0x00
   0046 21r10r00            238 	ld	hl, #(_selection_bkg + 0x000b)
   0049 36 00               239 	ld	(hl), #0x00
   004B 21r11r00            240 	ld	hl, #(_selection_bkg + 0x000c)
   004E 36 00               241 	ld	(hl), #0x00
   0050 21r12r00            242 	ld	hl, #(_selection_bkg + 0x000d)
   0053 36 00               243 	ld	(hl), #0x00
   0055 21r13r00            244 	ld	hl, #(_selection_bkg + 0x000e)
   0058 36 00               245 	ld	(hl), #0x00
   005A 21r14r00            246 	ld	hl, #(_selection_bkg + 0x000f)
   005D 36 00               247 	ld	(hl), #0x00
   005F 21r15r00            248 	ld	hl, #(_selection_bkg + 0x0010)
   0062 36 00               249 	ld	(hl), #0x00
   0064 21r16r00            250 	ld	hl, #(_selection_bkg + 0x0011)
   0067 36 00               251 	ld	(hl), #0x00
   0069 21r17r00            252 	ld	hl, #(_selection_bkg + 0x0012)
   006C 36 00               253 	ld	(hl), #0x00
   006E 21r18r00            254 	ld	hl, #(_selection_bkg + 0x0013)
   0071 36 00               255 	ld	(hl), #0x00
   0073 21r19r00            256 	ld	hl, #(_selection_bkg + 0x0014)
   0076 36 00               257 	ld	(hl), #0x00
   0078 21r1Ar00            258 	ld	hl, #(_selection_bkg + 0x0015)
   007B 36 00               259 	ld	(hl), #0x00
   007D 21r1Br00            260 	ld	hl, #(_selection_bkg + 0x0016)
   0080 36 00               261 	ld	(hl), #0x00
   0082 21r1Cr00            262 	ld	hl, #(_selection_bkg + 0x0017)
   0085 36 00               263 	ld	(hl), #0x00
   0087 21r1Dr00            264 	ld	hl, #(_selection_bkg + 0x0018)
   008A 36 00               265 	ld	(hl), #0x00
   008C 21r1Er00            266 	ld	hl, #(_selection_bkg + 0x0019)
   008F 36 00               267 	ld	(hl), #0x00
   0091 21r1Fr00            268 	ld	hl, #(_selection_bkg + 0x001a)
   0094 36 00               269 	ld	(hl), #0x00
   0096 21r20r00            270 	ld	hl, #(_selection_bkg + 0x001b)
   0099 36 00               271 	ld	(hl), #0x00
   009B 21r21r00            272 	ld	hl, #(_selection_bkg + 0x001c)
   009E 36 00               273 	ld	(hl), #0x00
   00A0 21r22r00            274 	ld	hl, #(_selection_bkg + 0x001d)
   00A3 36 00               275 	ld	(hl), #0x00
   00A5 21r23r00            276 	ld	hl, #(_selection_bkg + 0x001e)
   00A8 36 00               277 	ld	(hl), #0x00
   00AA 21r24r00            278 	ld	hl, #(_selection_bkg + 0x001f)
   00AD 36 00               279 	ld	(hl), #0x00
   00AF 21r25r00            280 	ld	hl, #(_selection_bkg + 0x0020)
   00B2 36 00               281 	ld	(hl), #0x00
   00B4 21r26r00            282 	ld	hl, #(_selection_bkg + 0x0021)
   00B7 36 00               283 	ld	(hl), #0x00
   00B9 21r27r00            284 	ld	hl, #(_selection_bkg + 0x0022)
   00BC 36 00               285 	ld	(hl), #0x00
   00BE 21r28r00            286 	ld	hl, #(_selection_bkg + 0x0023)
   00C1 36 00               287 	ld	(hl), #0x00
   00C3 21r29r00            288 	ld	hl, #(_selection_bkg + 0x0024)
   00C6 36 00               289 	ld	(hl), #0x00
   00C8 21r2Ar00            290 	ld	hl, #(_selection_bkg + 0x0025)
   00CB 36 00               291 	ld	(hl), #0x00
   00CD 21r2Br00            292 	ld	hl, #(_selection_bkg + 0x0026)
   00D0 36 00               293 	ld	(hl), #0x00
   00D2 21r2Cr00            294 	ld	hl, #(_selection_bkg + 0x0027)
   00D5 36 00               295 	ld	(hl), #0x00
   00D7 21r2Dr00            296 	ld	hl, #(_selection_bkg + 0x0028)
   00DA 36 00               297 	ld	(hl), #0x00
   00DC 21r2Er00            298 	ld	hl, #(_selection_bkg + 0x0029)
   00DF 36 00               299 	ld	(hl), #0x00
   00E1 21r2Fr00            300 	ld	hl, #(_selection_bkg + 0x002a)
   00E4 36 00               301 	ld	(hl), #0x00
   00E6 21r30r00            302 	ld	hl, #(_selection_bkg + 0x002b)
   00E9 36 00               303 	ld	(hl), #0x00
   00EB 21r31r00            304 	ld	hl, #(_selection_bkg + 0x002c)
   00EE 36 00               305 	ld	(hl), #0x00
   00F0 21r32r00            306 	ld	hl, #(_selection_bkg + 0x002d)
   00F3 36 00               307 	ld	(hl), #0x00
   00F5 21r33r00            308 	ld	hl, #(_selection_bkg + 0x002e)
   00F8 36 00               309 	ld	(hl), #0x00
   00FA 21r34r00            310 	ld	hl, #(_selection_bkg + 0x002f)
   00FD 36 00               311 	ld	(hl), #0x00
   00FF 21r35r00            312 	ld	hl, #(_selection_bkg + 0x0030)
   0102 36 00               313 	ld	(hl), #0x00
   0104 21r36r00            314 	ld	hl, #(_selection_bkg + 0x0031)
   0107 36 00               315 	ld	(hl), #0x00
   0109 21r37r00            316 	ld	hl, #(_selection_bkg + 0x0032)
   010C 36 00               317 	ld	(hl), #0x00
   010E 21r38r00            318 	ld	hl, #(_selection_bkg + 0x0033)
   0111 36 00               319 	ld	(hl), #0x00
   0113 21r39r00            320 	ld	hl, #(_selection_bkg + 0x0034)
   0116 36 00               321 	ld	(hl), #0x00
   0118 21r3Ar00            322 	ld	hl, #(_selection_bkg + 0x0035)
   011B 36 00               323 	ld	(hl), #0x00
   011D 21r3Br00            324 	ld	hl, #(_selection_bkg + 0x0036)
   0120 36 00               325 	ld	(hl), #0x00
   0122 21r3Cr00            326 	ld	hl, #(_selection_bkg + 0x0037)
   0125 36 00               327 	ld	(hl), #0x00
   0127 21r3Dr00            328 	ld	hl, #(_selection_bkg + 0x0038)
   012A 36 00               329 	ld	(hl), #0x00
   012C 21r3Er00            330 	ld	hl, #(_selection_bkg + 0x0039)
   012F 36 00               331 	ld	(hl), #0x00
   0131 21r3Fr00            332 	ld	hl, #(_selection_bkg + 0x003a)
   0134 36 00               333 	ld	(hl), #0x00
   0136 21r40r00            334 	ld	hl, #(_selection_bkg + 0x003b)
   0139 36 00               335 	ld	(hl), #0x00
   013B 21r41r00            336 	ld	hl, #(_selection_bkg + 0x003c)
   013E 36 00               337 	ld	(hl), #0x00
   0140 21r42r00            338 	ld	hl, #(_selection_bkg + 0x003d)
   0143 36 00               339 	ld	(hl), #0x00
   0145 21r43r00            340 	ld	hl, #(_selection_bkg + 0x003e)
   0148 36 00               341 	ld	(hl), #0x00
   014A 21r44r00            342 	ld	hl, #(_selection_bkg + 0x003f)
   014D 36 00               343 	ld	(hl), #0x00
   014F 21r45r00            344 	ld	hl, #(_selection_bkg + 0x0040)
   0152 36 00               345 	ld	(hl), #0x00
   0154 21r46r00            346 	ld	hl, #(_selection_bkg + 0x0041)
   0157 36 00               347 	ld	(hl), #0x00
   0159 21r47r00            348 	ld	hl, #(_selection_bkg + 0x0042)
   015C 36 00               349 	ld	(hl), #0x00
   015E 21r48r00            350 	ld	hl, #(_selection_bkg + 0x0043)
   0161 36 00               351 	ld	(hl), #0x00
   0163 21r49r00            352 	ld	hl, #(_selection_bkg + 0x0044)
   0166 36 00               353 	ld	(hl), #0x00
   0168 21r4Ar00            354 	ld	hl, #(_selection_bkg + 0x0045)
   016B 36 00               355 	ld	(hl), #0x00
   016D 21r4Br00            356 	ld	hl, #(_selection_bkg + 0x0046)
   0170 36 00               357 	ld	(hl), #0x00
   0172 21r4Cr00            358 	ld	hl, #(_selection_bkg + 0x0047)
   0175 36 00               359 	ld	(hl), #0x00
   0177 21r4Dr00            360 	ld	hl, #(_selection_bkg + 0x0048)
   017A 36 00               361 	ld	(hl), #0x00
   017C 21r4Er00            362 	ld	hl, #(_selection_bkg + 0x0049)
   017F 36 00               363 	ld	(hl), #0x00
   0181 21r4Fr00            364 	ld	hl, #(_selection_bkg + 0x004a)
   0184 36 00               365 	ld	(hl), #0x00
   0186 21r50r00            366 	ld	hl, #(_selection_bkg + 0x004b)
   0189 36 00               367 	ld	(hl), #0x00
   018B 21r51r00            368 	ld	hl, #(_selection_bkg + 0x004c)
   018E 36 00               369 	ld	(hl), #0x00
   0190 21r52r00            370 	ld	hl, #(_selection_bkg + 0x004d)
   0193 36 00               371 	ld	(hl), #0x00
   0195 21r53r00            372 	ld	hl, #(_selection_bkg + 0x004e)
   0198 36 00               373 	ld	(hl), #0x00
   019A 21r54r00            374 	ld	hl, #(_selection_bkg + 0x004f)
   019D 36 00               375 	ld	(hl), #0x00
   019F 21r55r00            376 	ld	hl, #(_selection_bkg + 0x0050)
   01A2 36 00               377 	ld	(hl), #0x00
   01A4 21r56r00            378 	ld	hl, #(_selection_bkg + 0x0051)
   01A7 36 00               379 	ld	(hl), #0x00
   01A9 21r57r00            380 	ld	hl, #(_selection_bkg + 0x0052)
   01AC 36 00               381 	ld	(hl), #0x00
   01AE 21r58r00            382 	ld	hl, #(_selection_bkg + 0x0053)
   01B1 36 00               383 	ld	(hl), #0x00
   01B3 21r59r00            384 	ld	hl, #(_selection_bkg + 0x0054)
   01B6 36 00               385 	ld	(hl), #0x00
   01B8 21r5Ar00            386 	ld	hl, #(_selection_bkg + 0x0055)
   01BB 36 00               387 	ld	(hl), #0x00
   01BD 21r5Br00            388 	ld	hl, #(_selection_bkg + 0x0056)
   01C0 36 00               389 	ld	(hl), #0x00
   01C2 21r5Cr00            390 	ld	hl, #(_selection_bkg + 0x0057)
   01C5 36 00               391 	ld	(hl), #0x00
   01C7 21r5Dr00            392 	ld	hl, #(_selection_bkg + 0x0058)
   01CA 36 00               393 	ld	(hl), #0x00
   01CC 21r5Er00            394 	ld	hl, #(_selection_bkg + 0x0059)
   01CF 36 00               395 	ld	(hl), #0x00
   01D1 21r5Fr00            396 	ld	hl, #(_selection_bkg + 0x005a)
   01D4 36 00               397 	ld	(hl), #0x00
   01D6 21r60r00            398 	ld	hl, #(_selection_bkg + 0x005b)
   01D9 36 00               399 	ld	(hl), #0x00
   01DB 21r61r00            400 	ld	hl, #(_selection_bkg + 0x005c)
   01DE 36 00               401 	ld	(hl), #0x00
   01E0 21r62r00            402 	ld	hl, #(_selection_bkg + 0x005d)
   01E3 36 00               403 	ld	(hl), #0x00
   01E5 21r63r00            404 	ld	hl, #(_selection_bkg + 0x005e)
   01E8 36 00               405 	ld	(hl), #0x00
   01EA 21r64r00            406 	ld	hl, #(_selection_bkg + 0x005f)
   01ED 36 00               407 	ld	(hl), #0x00
   01EF 21r65r00            408 	ld	hl, #(_selection_bkg + 0x0060)
   01F2 36 00               409 	ld	(hl), #0x00
   01F4 21r66r00            410 	ld	hl, #(_selection_bkg + 0x0061)
   01F7 36 00               411 	ld	(hl), #0x00
   01F9 21r67r00            412 	ld	hl, #(_selection_bkg + 0x0062)
   01FC 36 00               413 	ld	(hl), #0x00
   01FE 21r68r00            414 	ld	hl, #(_selection_bkg + 0x0063)
   0201 36 00               415 	ld	(hl), #0x00
   0203 21r69r00            416 	ld	hl, #(_selection_bkg + 0x0064)
   0206 36 00               417 	ld	(hl), #0x00
   0208 21r6Ar00            418 	ld	hl, #(_selection_bkg + 0x0065)
   020B 36 00               419 	ld	(hl), #0x00
   020D 21r6Br00            420 	ld	hl, #(_selection_bkg + 0x0066)
   0210 36 00               421 	ld	(hl), #0x00
   0212 21r6Cr00            422 	ld	hl, #(_selection_bkg + 0x0067)
   0215 36 00               423 	ld	(hl), #0x00
   0217 21r6Dr00            424 	ld	hl, #(_selection_bkg + 0x0068)
   021A 36 00               425 	ld	(hl), #0x00
   021C 21r6Er00            426 	ld	hl, #(_selection_bkg + 0x0069)
   021F 36 00               427 	ld	(hl), #0x00
   0221 21r6Fr00            428 	ld	hl, #(_selection_bkg + 0x006a)
   0224 36 00               429 	ld	(hl), #0x00
   0226 21r70r00            430 	ld	hl, #(_selection_bkg + 0x006b)
   0229 36 00               431 	ld	(hl), #0x00
   022B 21r71r00            432 	ld	hl, #(_selection_bkg + 0x006c)
   022E 36 00               433 	ld	(hl), #0x00
   0230 21r72r00            434 	ld	hl, #(_selection_bkg + 0x006d)
   0233 36 00               435 	ld	(hl), #0x00
   0235 21r73r00            436 	ld	hl, #(_selection_bkg + 0x006e)
   0238 36 00               437 	ld	(hl), #0x00
   023A 21r74r00            438 	ld	hl, #(_selection_bkg + 0x006f)
   023D 36 00               439 	ld	(hl), #0x00
   023F 21r75r00            440 	ld	hl, #(_selection_bkg + 0x0070)
   0242 36 00               441 	ld	(hl), #0x00
   0244 21r76r00            442 	ld	hl, #(_selection_bkg + 0x0071)
   0247 36 00               443 	ld	(hl), #0x00
   0249 21r77r00            444 	ld	hl, #(_selection_bkg + 0x0072)
   024C 36 00               445 	ld	(hl), #0x00
   024E 21r78r00            446 	ld	hl, #(_selection_bkg + 0x0073)
   0251 36 00               447 	ld	(hl), #0x00
   0253 21r79r00            448 	ld	hl, #(_selection_bkg + 0x0074)
   0256 36 00               449 	ld	(hl), #0x00
   0258 21r7Ar00            450 	ld	hl, #(_selection_bkg + 0x0075)
   025B 36 00               451 	ld	(hl), #0x00
   025D 21r7Br00            452 	ld	hl, #(_selection_bkg + 0x0076)
   0260 36 00               453 	ld	(hl), #0x00
   0262 21r7Cr00            454 	ld	hl, #(_selection_bkg + 0x0077)
   0265 36 00               455 	ld	(hl), #0x00
   0267 21r7Dr00            456 	ld	hl, #(_selection_bkg + 0x0078)
   026A 36 00               457 	ld	(hl), #0x00
   026C 21r7Er00            458 	ld	hl, #(_selection_bkg + 0x0079)
   026F 36 00               459 	ld	(hl), #0x00
   0271 21r7Fr00            460 	ld	hl, #(_selection_bkg + 0x007a)
   0274 36 00               461 	ld	(hl), #0x00
   0276 21r80r00            462 	ld	hl, #(_selection_bkg + 0x007b)
   0279 36 00               463 	ld	(hl), #0x00
   027B 21r81r00            464 	ld	hl, #(_selection_bkg + 0x007c)
   027E 36 00               465 	ld	(hl), #0x00
   0280 21r82r00            466 	ld	hl, #(_selection_bkg + 0x007d)
   0283 36 00               467 	ld	(hl), #0x00
   0285 21r83r00            468 	ld	hl, #(_selection_bkg + 0x007e)
   0288 36 00               469 	ld	(hl), #0x00
   028A 21r84r00            470 	ld	hl, #(_selection_bkg + 0x007f)
   028D 36 00               471 	ld	(hl), #0x00
   028F 21r85r00            472 	ld	hl, #(_selection_bkg + 0x0080)
   0292 36 00               473 	ld	(hl), #0x00
   0294 21r86r00            474 	ld	hl, #(_selection_bkg + 0x0081)
   0297 36 00               475 	ld	(hl), #0x00
   0299 21r87r00            476 	ld	hl, #(_selection_bkg + 0x0082)
   029C 36 00               477 	ld	(hl), #0x00
   029E 21r88r00            478 	ld	hl, #(_selection_bkg + 0x0083)
   02A1 36 00               479 	ld	(hl), #0x00
   02A3 21r89r00            480 	ld	hl, #(_selection_bkg + 0x0084)
   02A6 36 00               481 	ld	(hl), #0x00
   02A8 21r8Ar00            482 	ld	hl, #(_selection_bkg + 0x0085)
   02AB 36 00               483 	ld	(hl), #0x00
   02AD 21r8Br00            484 	ld	hl, #(_selection_bkg + 0x0086)
   02B0 36 00               485 	ld	(hl), #0x00
   02B2 21r8Cr00            486 	ld	hl, #(_selection_bkg + 0x0087)
   02B5 36 00               487 	ld	(hl), #0x00
   02B7 21r8Dr00            488 	ld	hl, #(_selection_bkg + 0x0088)
   02BA 36 00               489 	ld	(hl), #0x00
   02BC 21r8Er00            490 	ld	hl, #(_selection_bkg + 0x0089)
   02BF 36 00               491 	ld	(hl), #0x00
   02C1 21r8Fr00            492 	ld	hl, #(_selection_bkg + 0x008a)
   02C4 36 00               493 	ld	(hl), #0x00
   02C6 21r90r00            494 	ld	hl, #(_selection_bkg + 0x008b)
   02C9 36 00               495 	ld	(hl), #0x00
   02CB 21r91r00            496 	ld	hl, #(_selection_bkg + 0x008c)
   02CE 36 00               497 	ld	(hl), #0x00
   02D0 21r92r00            498 	ld	hl, #(_selection_bkg + 0x008d)
   02D3 36 00               499 	ld	(hl), #0x00
   02D5 21r93r00            500 	ld	hl, #(_selection_bkg + 0x008e)
   02D8 36 00               501 	ld	(hl), #0x00
   02DA 21r94r00            502 	ld	hl, #(_selection_bkg + 0x008f)
   02DD 36 00               503 	ld	(hl), #0x00
   02DF 21r95r00            504 	ld	hl, #(_selection_bkg + 0x0090)
   02E2 36 00               505 	ld	(hl), #0x00
   02E4 21r96r00            506 	ld	hl, #(_selection_bkg + 0x0091)
   02E7 36 00               507 	ld	(hl), #0x00
   02E9 21r97r00            508 	ld	hl, #(_selection_bkg + 0x0092)
   02EC 36 00               509 	ld	(hl), #0x00
   02EE 21r98r00            510 	ld	hl, #(_selection_bkg + 0x0093)
   02F1 36 00               511 	ld	(hl), #0x00
   02F3 21r99r00            512 	ld	hl, #(_selection_bkg + 0x0094)
   02F6 36 00               513 	ld	(hl), #0x00
   02F8 21r9Ar00            514 	ld	hl, #(_selection_bkg + 0x0095)
   02FB 36 00               515 	ld	(hl), #0x00
   02FD 21r9Br00            516 	ld	hl, #(_selection_bkg + 0x0096)
   0300 36 00               517 	ld	(hl), #0x00
   0302 21r9Cr00            518 	ld	hl, #(_selection_bkg + 0x0097)
   0305 36 00               519 	ld	(hl), #0x00
   0307 21r9Dr00            520 	ld	hl, #(_selection_bkg + 0x0098)
   030A 36 00               521 	ld	(hl), #0x00
   030C 21r9Er00            522 	ld	hl, #(_selection_bkg + 0x0099)
   030F 36 00               523 	ld	(hl), #0x00
   0311 21r9Fr00            524 	ld	hl, #(_selection_bkg + 0x009a)
   0314 36 00               525 	ld	(hl), #0x00
   0316 21rA0r00            526 	ld	hl, #(_selection_bkg + 0x009b)
   0319 36 00               527 	ld	(hl), #0x00
   031B 21rA1r00            528 	ld	hl, #(_selection_bkg + 0x009c)
   031E 36 00               529 	ld	(hl), #0x00
   0320 21rA2r00            530 	ld	hl, #(_selection_bkg + 0x009d)
   0323 36 00               531 	ld	(hl), #0x00
   0325 21rA3r00            532 	ld	hl, #(_selection_bkg + 0x009e)
   0328 36 00               533 	ld	(hl), #0x00
   032A 21rA4r00            534 	ld	hl, #(_selection_bkg + 0x009f)
   032D 36 00               535 	ld	(hl), #0x00
   032F 21rA5r00            536 	ld	hl, #(_selection_bkg + 0x00a0)
   0332 36 00               537 	ld	(hl), #0x00
   0334 21rA6r00            538 	ld	hl, #(_selection_bkg + 0x00a1)
   0337 36 00               539 	ld	(hl), #0x00
   0339 21rA7r00            540 	ld	hl, #(_selection_bkg + 0x00a2)
   033C 36 00               541 	ld	(hl), #0x00
   033E 21rA8r00            542 	ld	hl, #(_selection_bkg + 0x00a3)
   0341 36 00               543 	ld	(hl), #0x00
   0343 21rA9r00            544 	ld	hl, #(_selection_bkg + 0x00a4)
   0346 36 00               545 	ld	(hl), #0x00
   0348 21rAAr00            546 	ld	hl, #(_selection_bkg + 0x00a5)
   034B 36 2A               547 	ld	(hl), #0x2a
   034D 21rABr00            548 	ld	hl, #(_selection_bkg + 0x00a6)
   0350 36 1B               549 	ld	(hl), #0x1b
   0352 21rACr00            550 	ld	hl, #(_selection_bkg + 0x00a7)
   0355 36 14               551 	ld	(hl), #0x14
   0357 21rADr00            552 	ld	hl, #(_selection_bkg + 0x00a8)
   035A 36 25               553 	ld	(hl), #0x25
   035C 21rAEr00            554 	ld	hl, #(_selection_bkg + 0x00a9)
   035F 36 14               555 	ld	(hl), #0x14
   0361 21rAFr00            556 	ld	hl, #(_selection_bkg + 0x00aa)
   0364 36 1B               557 	ld	(hl), #0x1b
   0366 21rB0r00            558 	ld	hl, #(_selection_bkg + 0x00ab)
   0369 36 00               559 	ld	(hl), #0x00
   036B 21rB1r00            560 	ld	hl, #(_selection_bkg + 0x00ac)
   036E 36 04               561 	ld	(hl), #0x04
   0370 21rB2r00            562 	ld	hl, #(_selection_bkg + 0x00ad)
   0373 36 05               563 	ld	(hl), #0x05
   0375 21rB3r00            564 	ld	hl, #(_selection_bkg + 0x00ae)
   0378 36 2C               565 	ld	(hl), #0x2c
   037A 21rB4r00            566 	ld	hl, #(_selection_bkg + 0x00af)
   037D 36 00               567 	ld	(hl), #0x00
   037F 21rB5r00            568 	ld	hl, #(_selection_bkg + 0x00b0)
   0382 36 00               569 	ld	(hl), #0x00
   0384 21rB6r00            570 	ld	hl, #(_selection_bkg + 0x00b1)
   0387 36 00               571 	ld	(hl), #0x00
   0389 21rB7r00            572 	ld	hl, #(_selection_bkg + 0x00b2)
   038C 36 00               573 	ld	(hl), #0x00
   038E 21rB8r00            574 	ld	hl, #(_selection_bkg + 0x00b3)
   0391 36 00               575 	ld	(hl), #0x00
   0393 21rB9r00            576 	ld	hl, #(_selection_bkg + 0x00b4)
   0396 36 00               577 	ld	(hl), #0x00
   0398 21rBAr00            578 	ld	hl, #(_selection_bkg + 0x00b5)
   039B 36 00               579 	ld	(hl), #0x00
   039D 21rBBr00            580 	ld	hl, #(_selection_bkg + 0x00b6)
   03A0 36 00               581 	ld	(hl), #0x00
   03A2 21rBCr00            582 	ld	hl, #(_selection_bkg + 0x00b7)
   03A5 36 00               583 	ld	(hl), #0x00
   03A7 21rBDr00            584 	ld	hl, #(_selection_bkg + 0x00b8)
   03AA 36 00               585 	ld	(hl), #0x00
   03AC 21rBEr00            586 	ld	hl, #(_selection_bkg + 0x00b9)
   03AF 36 00               587 	ld	(hl), #0x00
   03B1 21rBFr00            588 	ld	hl, #(_selection_bkg + 0x00ba)
   03B4 36 00               589 	ld	(hl), #0x00
   03B6 21rC0r00            590 	ld	hl, #(_selection_bkg + 0x00bb)
   03B9 36 00               591 	ld	(hl), #0x00
   03BB 21rC1r00            592 	ld	hl, #(_selection_bkg + 0x00bc)
   03BE 36 00               593 	ld	(hl), #0x00
   03C0 21rC2r00            594 	ld	hl, #(_selection_bkg + 0x00bd)
   03C3 36 00               595 	ld	(hl), #0x00
   03C5 21rC3r00            596 	ld	hl, #(_selection_bkg + 0x00be)
   03C8 36 00               597 	ld	(hl), #0x00
   03CA 21rC4r00            598 	ld	hl, #(_selection_bkg + 0x00bf)
   03CD 36 00               599 	ld	(hl), #0x00
   03CF 21rC5r00            600 	ld	hl, #(_selection_bkg + 0x00c0)
   03D2 36 00               601 	ld	(hl), #0x00
   03D4 21rC6r00            602 	ld	hl, #(_selection_bkg + 0x00c1)
   03D7 36 00               603 	ld	(hl), #0x00
   03D9 21rC7r00            604 	ld	hl, #(_selection_bkg + 0x00c2)
   03DC 36 00               605 	ld	(hl), #0x00
   03DE 21rC8r00            606 	ld	hl, #(_selection_bkg + 0x00c3)
   03E1 36 00               607 	ld	(hl), #0x00
   03E3 21rC9r00            608 	ld	hl, #(_selection_bkg + 0x00c4)
   03E6 36 00               609 	ld	(hl), #0x00
   03E8 21rCAr00            610 	ld	hl, #(_selection_bkg + 0x00c5)
   03EB 36 00               611 	ld	(hl), #0x00
   03ED 21rCBr00            612 	ld	hl, #(_selection_bkg + 0x00c6)
   03F0 36 00               613 	ld	(hl), #0x00
   03F2 21rCCr00            614 	ld	hl, #(_selection_bkg + 0x00c7)
   03F5 36 00               615 	ld	(hl), #0x00
   03F7 21rCDr00            616 	ld	hl, #(_selection_bkg + 0x00c8)
   03FA 36 00               617 	ld	(hl), #0x00
   03FC 21rCEr00            618 	ld	hl, #(_selection_bkg + 0x00c9)
   03FF 36 00               619 	ld	(hl), #0x00
   0401 21rCFr00            620 	ld	hl, #(_selection_bkg + 0x00ca)
   0404 36 00               621 	ld	(hl), #0x00
   0406 21rD0r00            622 	ld	hl, #(_selection_bkg + 0x00cb)
   0409 36 00               623 	ld	(hl), #0x00
   040B 21rD1r00            624 	ld	hl, #(_selection_bkg + 0x00cc)
   040E 36 00               625 	ld	(hl), #0x00
   0410 21rD2r00            626 	ld	hl, #(_selection_bkg + 0x00cd)
   0413 36 00               627 	ld	(hl), #0x00
   0415 21rD3r00            628 	ld	hl, #(_selection_bkg + 0x00ce)
   0418 36 00               629 	ld	(hl), #0x00
   041A 21rD4r00            630 	ld	hl, #(_selection_bkg + 0x00cf)
   041D 36 00               631 	ld	(hl), #0x00
   041F 21rD5r00            632 	ld	hl, #(_selection_bkg + 0x00d0)
   0422 36 00               633 	ld	(hl), #0x00
   0424 21rD6r00            634 	ld	hl, #(_selection_bkg + 0x00d1)
   0427 36 00               635 	ld	(hl), #0x00
   0429 21rD7r00            636 	ld	hl, #(_selection_bkg + 0x00d2)
   042C 36 00               637 	ld	(hl), #0x00
   042E 21rD8r00            638 	ld	hl, #(_selection_bkg + 0x00d3)
   0431 36 00               639 	ld	(hl), #0x00
   0433 21rD9r00            640 	ld	hl, #(_selection_bkg + 0x00d4)
   0436 36 00               641 	ld	(hl), #0x00
   0438 21rDAr00            642 	ld	hl, #(_selection_bkg + 0x00d5)
   043B 36 00               643 	ld	(hl), #0x00
   043D 21rDBr00            644 	ld	hl, #(_selection_bkg + 0x00d6)
   0440 36 00               645 	ld	(hl), #0x00
   0442 21rDCr00            646 	ld	hl, #(_selection_bkg + 0x00d7)
   0445 36 00               647 	ld	(hl), #0x00
   0447 21rDDr00            648 	ld	hl, #(_selection_bkg + 0x00d8)
   044A 36 00               649 	ld	(hl), #0x00
   044C 21rDEr00            650 	ld	hl, #(_selection_bkg + 0x00d9)
   044F 36 00               651 	ld	(hl), #0x00
   0451 21rDFr00            652 	ld	hl, #(_selection_bkg + 0x00da)
   0454 36 00               653 	ld	(hl), #0x00
   0456 21rE0r00            654 	ld	hl, #(_selection_bkg + 0x00db)
   0459 36 00               655 	ld	(hl), #0x00
   045B 21rE1r00            656 	ld	hl, #(_selection_bkg + 0x00dc)
   045E 36 00               657 	ld	(hl), #0x00
   0460 21rE2r00            658 	ld	hl, #(_selection_bkg + 0x00dd)
   0463 36 00               659 	ld	(hl), #0x00
   0465 21rE3r00            660 	ld	hl, #(_selection_bkg + 0x00de)
   0468 36 00               661 	ld	(hl), #0x00
   046A 21rE4r00            662 	ld	hl, #(_selection_bkg + 0x00df)
   046D 36 00               663 	ld	(hl), #0x00
   046F 21rE5r00            664 	ld	hl, #(_selection_bkg + 0x00e0)
   0472 36 00               665 	ld	(hl), #0x00
   0474 21rE6r00            666 	ld	hl, #(_selection_bkg + 0x00e1)
   0477 36 00               667 	ld	(hl), #0x00
   0479 21rE7r00            668 	ld	hl, #(_selection_bkg + 0x00e2)
   047C 36 00               669 	ld	(hl), #0x00
   047E 21rE8r00            670 	ld	hl, #(_selection_bkg + 0x00e3)
   0481 36 00               671 	ld	(hl), #0x00
   0483 21rE9r00            672 	ld	hl, #(_selection_bkg + 0x00e4)
   0486 36 00               673 	ld	(hl), #0x00
   0488 21rEAr00            674 	ld	hl, #(_selection_bkg + 0x00e5)
   048B 36 00               675 	ld	(hl), #0x00
   048D 21rEBr00            676 	ld	hl, #(_selection_bkg + 0x00e6)
   0490 36 00               677 	ld	(hl), #0x00
   0492 21rECr00            678 	ld	hl, #(_selection_bkg + 0x00e7)
   0495 36 00               679 	ld	(hl), #0x00
   0497 21rEDr00            680 	ld	hl, #(_selection_bkg + 0x00e8)
   049A 36 00               681 	ld	(hl), #0x00
   049C 21rEEr00            682 	ld	hl, #(_selection_bkg + 0x00e9)
   049F 36 00               683 	ld	(hl), #0x00
   04A1 21rEFr00            684 	ld	hl, #(_selection_bkg + 0x00ea)
   04A4 36 00               685 	ld	(hl), #0x00
   04A6 21rF0r00            686 	ld	hl, #(_selection_bkg + 0x00eb)
   04A9 36 00               687 	ld	(hl), #0x00
   04AB 21rF1r00            688 	ld	hl, #(_selection_bkg + 0x00ec)
   04AE 36 00               689 	ld	(hl), #0x00
   04B0 21rF2r00            690 	ld	hl, #(_selection_bkg + 0x00ed)
   04B3 36 00               691 	ld	(hl), #0x00
   04B5 21rF3r00            692 	ld	hl, #(_selection_bkg + 0x00ee)
   04B8 36 00               693 	ld	(hl), #0x00
   04BA 21rF4r00            694 	ld	hl, #(_selection_bkg + 0x00ef)
   04BD 36 00               695 	ld	(hl), #0x00
   04BF 21rF5r00            696 	ld	hl, #(_selection_bkg + 0x00f0)
   04C2 36 00               697 	ld	(hl), #0x00
   04C4 21rF6r00            698 	ld	hl, #(_selection_bkg + 0x00f1)
   04C7 36 00               699 	ld	(hl), #0x00
   04C9 21rF7r00            700 	ld	hl, #(_selection_bkg + 0x00f2)
   04CC 36 00               701 	ld	(hl), #0x00
   04CE 21rF8r00            702 	ld	hl, #(_selection_bkg + 0x00f3)
   04D1 36 00               703 	ld	(hl), #0x00
   04D3 21rF9r00            704 	ld	hl, #(_selection_bkg + 0x00f4)
   04D6 36 00               705 	ld	(hl), #0x00
   04D8 21rFAr00            706 	ld	hl, #(_selection_bkg + 0x00f5)
   04DB 36 00               707 	ld	(hl), #0x00
   04DD 21rFBr00            708 	ld	hl, #(_selection_bkg + 0x00f6)
   04E0 36 00               709 	ld	(hl), #0x00
   04E2 21rFCr00            710 	ld	hl, #(_selection_bkg + 0x00f7)
   04E5 36 00               711 	ld	(hl), #0x00
   04E7 21rFDr00            712 	ld	hl, #(_selection_bkg + 0x00f8)
   04EA 36 00               713 	ld	(hl), #0x00
   04EC 21rFEr00            714 	ld	hl, #(_selection_bkg + 0x00f9)
   04EF 36 00               715 	ld	(hl), #0x00
   04F1 21rFFr00            716 	ld	hl, #(_selection_bkg + 0x00fa)
   04F4 36 00               717 	ld	(hl), #0x00
   04F6 21r00r01            718 	ld	hl, #(_selection_bkg + 0x00fb)
   04F9 36 00               719 	ld	(hl), #0x00
   04FB 21r01r01            720 	ld	hl, #(_selection_bkg + 0x00fc)
   04FE 36 00               721 	ld	(hl), #0x00
   0500 21r02r01            722 	ld	hl, #(_selection_bkg + 0x00fd)
   0503 36 00               723 	ld	(hl), #0x00
   0505 21r03r01            724 	ld	hl, #(_selection_bkg + 0x00fe)
   0508 36 00               725 	ld	(hl), #0x00
   050A 21r04r01            726 	ld	hl, #(_selection_bkg + 0x00ff)
   050D 36 00               727 	ld	(hl), #0x00
   050F 21r05r01            728 	ld	hl, #(_selection_bkg + 0x0100)
   0512 36 00               729 	ld	(hl), #0x00
   0514 21r06r01            730 	ld	hl, #(_selection_bkg + 0x0101)
   0517 36 00               731 	ld	(hl), #0x00
   0519 21r07r01            732 	ld	hl, #(_selection_bkg + 0x0102)
   051C 36 00               733 	ld	(hl), #0x00
   051E 21r08r01            734 	ld	hl, #(_selection_bkg + 0x0103)
   0521 36 00               735 	ld	(hl), #0x00
   0523 21r09r01            736 	ld	hl, #(_selection_bkg + 0x0104)
   0526 36 00               737 	ld	(hl), #0x00
   0528 21r0Ar01            738 	ld	hl, #(_selection_bkg + 0x0105)
   052B 36 00               739 	ld	(hl), #0x00
   052D 21r0Br01            740 	ld	hl, #(_selection_bkg + 0x0106)
   0530 36 00               741 	ld	(hl), #0x00
   0532 21r0Cr01            742 	ld	hl, #(_selection_bkg + 0x0107)
   0535 36 00               743 	ld	(hl), #0x00
   0537 21r0Dr01            744 	ld	hl, #(_selection_bkg + 0x0108)
   053A 36 00               745 	ld	(hl), #0x00
   053C 21r0Er01            746 	ld	hl, #(_selection_bkg + 0x0109)
   053F 36 00               747 	ld	(hl), #0x00
   0541 21r0Fr01            748 	ld	hl, #(_selection_bkg + 0x010a)
   0544 36 00               749 	ld	(hl), #0x00
   0546 21r10r01            750 	ld	hl, #(_selection_bkg + 0x010b)
   0549 36 00               751 	ld	(hl), #0x00
   054B 21r11r01            752 	ld	hl, #(_selection_bkg + 0x010c)
   054E 36 00               753 	ld	(hl), #0x00
   0550 21r12r01            754 	ld	hl, #(_selection_bkg + 0x010d)
   0553 36 00               755 	ld	(hl), #0x00
   0555 21r13r01            756 	ld	hl, #(_selection_bkg + 0x010e)
   0558 36 00               757 	ld	(hl), #0x00
   055A 21r14r01            758 	ld	hl, #(_selection_bkg + 0x010f)
   055D 36 00               759 	ld	(hl), #0x00
   055F 21r15r01            760 	ld	hl, #(_selection_bkg + 0x0110)
   0562 36 00               761 	ld	(hl), #0x00
   0564 21r16r01            762 	ld	hl, #(_selection_bkg + 0x0111)
   0567 36 00               763 	ld	(hl), #0x00
   0569 21r17r01            764 	ld	hl, #(_selection_bkg + 0x0112)
   056C 36 00               765 	ld	(hl), #0x00
   056E 21r18r01            766 	ld	hl, #(_selection_bkg + 0x0113)
   0571 36 00               767 	ld	(hl), #0x00
   0573 21r19r01            768 	ld	hl, #(_selection_bkg + 0x0114)
   0576 36 00               769 	ld	(hl), #0x00
   0578 21r1Ar01            770 	ld	hl, #(_selection_bkg + 0x0115)
   057B 36 00               771 	ld	(hl), #0x00
   057D 21r1Br01            772 	ld	hl, #(_selection_bkg + 0x0116)
   0580 36 00               773 	ld	(hl), #0x00
   0582 21r1Cr01            774 	ld	hl, #(_selection_bkg + 0x0117)
   0585 36 00               775 	ld	(hl), #0x00
   0587 21r1Dr01            776 	ld	hl, #(_selection_bkg + 0x0118)
   058A 36 00               777 	ld	(hl), #0x00
   058C 21r1Er01            778 	ld	hl, #(_selection_bkg + 0x0119)
   058F 36 00               779 	ld	(hl), #0x00
   0591 21r1Fr01            780 	ld	hl, #(_selection_bkg + 0x011a)
   0594 36 00               781 	ld	(hl), #0x00
   0596 21r20r01            782 	ld	hl, #(_selection_bkg + 0x011b)
   0599 36 00               783 	ld	(hl), #0x00
   059B 21r21r01            784 	ld	hl, #(_selection_bkg + 0x011c)
   059E 36 00               785 	ld	(hl), #0x00
   05A0 21r22r01            786 	ld	hl, #(_selection_bkg + 0x011d)
   05A3 36 00               787 	ld	(hl), #0x00
   05A5 21r23r01            788 	ld	hl, #(_selection_bkg + 0x011e)
   05A8 36 00               789 	ld	(hl), #0x00
   05AA 21r24r01            790 	ld	hl, #(_selection_bkg + 0x011f)
   05AD 36 00               791 	ld	(hl), #0x00
   05AF 21r25r01            792 	ld	hl, #(_selection_bkg + 0x0120)
   05B2 36 00               793 	ld	(hl), #0x00
   05B4 21r26r01            794 	ld	hl, #(_selection_bkg + 0x0121)
   05B7 36 00               795 	ld	(hl), #0x00
   05B9 21r27r01            796 	ld	hl, #(_selection_bkg + 0x0122)
   05BC 36 00               797 	ld	(hl), #0x00
   05BE 21r28r01            798 	ld	hl, #(_selection_bkg + 0x0123)
   05C1 36 00               799 	ld	(hl), #0x00
   05C3 21r29r01            800 	ld	hl, #(_selection_bkg + 0x0124)
   05C6 36 00               801 	ld	(hl), #0x00
   05C8 21r2Ar01            802 	ld	hl, #(_selection_bkg + 0x0125)
   05CB 36 00               803 	ld	(hl), #0x00
   05CD 21r2Br01            804 	ld	hl, #(_selection_bkg + 0x0126)
   05D0 36 00               805 	ld	(hl), #0x00
   05D2 21r2Cr01            806 	ld	hl, #(_selection_bkg + 0x0127)
   05D5 36 00               807 	ld	(hl), #0x00
   05D7 21r2Dr01            808 	ld	hl, #(_selection_bkg + 0x0128)
   05DA 36 00               809 	ld	(hl), #0x00
   05DC 21r2Er01            810 	ld	hl, #(_selection_bkg + 0x0129)
   05DF 36 00               811 	ld	(hl), #0x00
   05E1 21r2Fr01            812 	ld	hl, #(_selection_bkg + 0x012a)
   05E4 36 00               813 	ld	(hl), #0x00
   05E6 21r30r01            814 	ld	hl, #(_selection_bkg + 0x012b)
   05E9 36 00               815 	ld	(hl), #0x00
   05EB 21r31r01            816 	ld	hl, #(_selection_bkg + 0x012c)
   05EE 36 00               817 	ld	(hl), #0x00
   05F0 21r32r01            818 	ld	hl, #(_selection_bkg + 0x012d)
   05F3 36 00               819 	ld	(hl), #0x00
   05F5 21r33r01            820 	ld	hl, #(_selection_bkg + 0x012e)
   05F8 36 00               821 	ld	(hl), #0x00
   05FA 21r34r01            822 	ld	hl, #(_selection_bkg + 0x012f)
   05FD 36 00               823 	ld	(hl), #0x00
   05FF 21r35r01            824 	ld	hl, #(_selection_bkg + 0x0130)
   0602 36 00               825 	ld	(hl), #0x00
   0604 21r36r01            826 	ld	hl, #(_selection_bkg + 0x0131)
   0607 36 00               827 	ld	(hl), #0x00
   0609 21r37r01            828 	ld	hl, #(_selection_bkg + 0x0132)
   060C 36 00               829 	ld	(hl), #0x00
   060E 21r38r01            830 	ld	hl, #(_selection_bkg + 0x0133)
   0611 36 00               831 	ld	(hl), #0x00
   0613 21r39r01            832 	ld	hl, #(_selection_bkg + 0x0134)
   0616 36 00               833 	ld	(hl), #0x00
   0618 21r3Ar01            834 	ld	hl, #(_selection_bkg + 0x0135)
   061B 36 00               835 	ld	(hl), #0x00
   061D 21r3Br01            836 	ld	hl, #(_selection_bkg + 0x0136)
   0620 36 00               837 	ld	(hl), #0x00
   0622 21r3Cr01            838 	ld	hl, #(_selection_bkg + 0x0137)
   0625 36 00               839 	ld	(hl), #0x00
   0627 21r3Dr01            840 	ld	hl, #(_selection_bkg + 0x0138)
   062A 36 00               841 	ld	(hl), #0x00
   062C 21r3Er01            842 	ld	hl, #(_selection_bkg + 0x0139)
   062F 36 00               843 	ld	(hl), #0x00
   0631 21r3Fr01            844 	ld	hl, #(_selection_bkg + 0x013a)
   0634 36 00               845 	ld	(hl), #0x00
   0636 21r40r01            846 	ld	hl, #(_selection_bkg + 0x013b)
   0639 36 00               847 	ld	(hl), #0x00
   063B 21r41r01            848 	ld	hl, #(_selection_bkg + 0x013c)
   063E 36 00               849 	ld	(hl), #0x00
   0640 21r42r01            850 	ld	hl, #(_selection_bkg + 0x013d)
   0643 36 00               851 	ld	(hl), #0x00
   0645 21r43r01            852 	ld	hl, #(_selection_bkg + 0x013e)
   0648 36 00               853 	ld	(hl), #0x00
   064A 21r44r01            854 	ld	hl, #(_selection_bkg + 0x013f)
   064D 36 00               855 	ld	(hl), #0x00
   064F 21r45r01            856 	ld	hl, #(_selection_bkg + 0x0140)
   0652 36 00               857 	ld	(hl), #0x00
   0654 21r46r01            858 	ld	hl, #(_selection_bkg + 0x0141)
   0657 36 00               859 	ld	(hl), #0x00
   0659 21r47r01            860 	ld	hl, #(_selection_bkg + 0x0142)
   065C 36 00               861 	ld	(hl), #0x00
   065E 21r48r01            862 	ld	hl, #(_selection_bkg + 0x0143)
   0661 36 00               863 	ld	(hl), #0x00
   0663 21r49r01            864 	ld	hl, #(_selection_bkg + 0x0144)
   0666 36 00               865 	ld	(hl), #0x00
   0668 21r4Ar01            866 	ld	hl, #(_selection_bkg + 0x0145)
   066B 36 00               867 	ld	(hl), #0x00
   066D 21r4Br01            868 	ld	hl, #(_selection_bkg + 0x0146)
   0670 36 00               869 	ld	(hl), #0x00
   0672 21r4Cr01            870 	ld	hl, #(_selection_bkg + 0x0147)
   0675 36 00               871 	ld	(hl), #0x00
   0677 21r4Dr01            872 	ld	hl, #(_selection_bkg + 0x0148)
   067A 36 00               873 	ld	(hl), #0x00
   067C 21r4Er01            874 	ld	hl, #(_selection_bkg + 0x0149)
   067F 36 00               875 	ld	(hl), #0x00
   0681 21r4Fr01            876 	ld	hl, #(_selection_bkg + 0x014a)
   0684 36 00               877 	ld	(hl), #0x00
   0686 21r50r01            878 	ld	hl, #(_selection_bkg + 0x014b)
   0689 36 00               879 	ld	(hl), #0x00
   068B 21r51r01            880 	ld	hl, #(_selection_bkg + 0x014c)
   068E 36 00               881 	ld	(hl), #0x00
   0690 21r52r01            882 	ld	hl, #(_selection_bkg + 0x014d)
   0693 36 00               883 	ld	(hl), #0x00
   0695 21r53r01            884 	ld	hl, #(_selection_bkg + 0x014e)
   0698 36 00               885 	ld	(hl), #0x00
   069A 21r54r01            886 	ld	hl, #(_selection_bkg + 0x014f)
   069D 36 00               887 	ld	(hl), #0x00
   069F 21r55r01            888 	ld	hl, #(_selection_bkg + 0x0150)
   06A2 36 00               889 	ld	(hl), #0x00
   06A4 21r56r01            890 	ld	hl, #(_selection_bkg + 0x0151)
   06A7 36 00               891 	ld	(hl), #0x00
   06A9 21r57r01            892 	ld	hl, #(_selection_bkg + 0x0152)
   06AC 36 00               893 	ld	(hl), #0x00
   06AE 21r58r01            894 	ld	hl, #(_selection_bkg + 0x0153)
   06B1 36 00               895 	ld	(hl), #0x00
   06B3 21r59r01            896 	ld	hl, #(_selection_bkg + 0x0154)
   06B6 36 00               897 	ld	(hl), #0x00
   06B8 21r5Ar01            898 	ld	hl, #(_selection_bkg + 0x0155)
   06BB 36 00               899 	ld	(hl), #0x00
   06BD 21r5Br01            900 	ld	hl, #(_selection_bkg + 0x0156)
   06C0 36 00               901 	ld	(hl), #0x00
   06C2 21r5Cr01            902 	ld	hl, #(_selection_bkg + 0x0157)
   06C5 36 00               903 	ld	(hl), #0x00
   06C7 21r5Dr01            904 	ld	hl, #(_selection_bkg + 0x0158)
   06CA 36 00               905 	ld	(hl), #0x00
   06CC 21r5Er01            906 	ld	hl, #(_selection_bkg + 0x0159)
   06CF 36 00               907 	ld	(hl), #0x00
   06D1 21r5Fr01            908 	ld	hl, #(_selection_bkg + 0x015a)
   06D4 36 00               909 	ld	(hl), #0x00
   06D6 21r60r01            910 	ld	hl, #(_selection_bkg + 0x015b)
   06D9 36 00               911 	ld	(hl), #0x00
   06DB 21r61r01            912 	ld	hl, #(_selection_bkg + 0x015c)
   06DE 36 00               913 	ld	(hl), #0x00
   06E0 21r62r01            914 	ld	hl, #(_selection_bkg + 0x015d)
   06E3 36 00               915 	ld	(hl), #0x00
   06E5 21r63r01            916 	ld	hl, #(_selection_bkg + 0x015e)
   06E8 36 00               917 	ld	(hl), #0x00
   06EA 21r64r01            918 	ld	hl, #(_selection_bkg + 0x015f)
   06ED 36 00               919 	ld	(hl), #0x00
   06EF 21r65r01            920 	ld	hl, #(_selection_bkg + 0x0160)
   06F2 36 00               921 	ld	(hl), #0x00
   06F4 21r66r01            922 	ld	hl, #(_selection_bkg + 0x0161)
   06F7 36 00               923 	ld	(hl), #0x00
   06F9 21r67r01            924 	ld	hl, #(_selection_bkg + 0x0162)
   06FC 36 00               925 	ld	(hl), #0x00
   06FE 21r68r01            926 	ld	hl, #(_selection_bkg + 0x0163)
   0701 36 00               927 	ld	(hl), #0x00
   0703 21r69r01            928 	ld	hl, #(_selection_bkg + 0x0164)
   0706 36 00               929 	ld	(hl), #0x00
   0708 21r6Ar01            930 	ld	hl, #(_selection_bkg + 0x0165)
   070B 36 00               931 	ld	(hl), #0x00
   070D 21r6Br01            932 	ld	hl, #(_selection_bkg + 0x0166)
   0710 36 00               933 	ld	(hl), #0x00
   0712 21r6Cr01            934 	ld	hl, #(_selection_bkg + 0x0167)
   0715 36 00               935 	ld	(hl), #0x00
                            936 ;..\/hudmaps.c:123: unsigned char game_win[] =
   0717 21r6Dr01            937 	ld	hl, #_game_win
   071A 36 01               938 	ld	(hl), #0x01
   071C 21r6Er01            939 	ld	hl, #(_game_win + 0x0001)
   071F 36 04               940 	ld	(hl), #0x04
   0721 21r6Fr01            941 	ld	hl, #(_game_win + 0x0002)
   0724 36 04               942 	ld	(hl), #0x04
   0726 21r70r01            943 	ld	hl, #(_game_win + 0x0003)
   0729 36 00               944 	ld	(hl), #0x00
   072B 21r71r01            945 	ld	hl, #(_game_win + 0x0004)
   072E 36 02               946 	ld	(hl), #0x02
   0730 21r72r01            947 	ld	hl, #(_game_win + 0x0005)
   0733 36 04               948 	ld	(hl), #0x04
   0735 21r73r01            949 	ld	hl, #(_game_win + 0x0006)
   0738 36 00               950 	ld	(hl), #0x00
   073A 21r74r01            951 	ld	hl, #(_game_win + 0x0007)
   073D 36 00               952 	ld	(hl), #0x00
   073F 21r75r01            953 	ld	hl, #(_game_win + 0x0008)
   0742 36 04               954 	ld	(hl), #0x04
   0744 21r76r01            955 	ld	hl, #(_game_win + 0x0009)
   0747 36 04               956 	ld	(hl), #0x04
   0749 21r77r01            957 	ld	hl, #(_game_win + 0x000a)
   074C 36 04               958 	ld	(hl), #0x04
   074E 21r78r01            959 	ld	hl, #(_game_win + 0x000b)
   0751 36 04               960 	ld	(hl), #0x04
   0753 21r79r01            961 	ld	hl, #(_game_win + 0x000c)
   0756 36 04               962 	ld	(hl), #0x04
   0758 21r7Ar01            963 	ld	hl, #(_game_win + 0x000d)
   075B 36 00               964 	ld	(hl), #0x00
   075D 21r7Br01            965 	ld	hl, #(_game_win + 0x000e)
   0760 36 00               966 	ld	(hl), #0x00
   0762 21r7Cr01            967 	ld	hl, #(_game_win + 0x000f)
   0765 36 00               968 	ld	(hl), #0x00
   0767 21r7Dr01            969 	ld	hl, #(_game_win + 0x0010)
   076A 36 00               970 	ld	(hl), #0x00
   076C 21r7Er01            971 	ld	hl, #(_game_win + 0x0011)
   076F 36 00               972 	ld	(hl), #0x00
   0771 21r7Fr01            973 	ld	hl, #(_game_win + 0x0012)
   0774 36 03               974 	ld	(hl), #0x03
   0776 21r80r01            975 	ld	hl, #(_game_win + 0x0013)
   0779 36 04               976 	ld	(hl), #0x04
   077B 21r81r01            977 	ld	hl, #(_game_win + 0x0014)
   077E 36 0E               978 	ld	(hl), #0x0e
   0780 21r82r01            979 	ld	hl, #(_game_win + 0x0015)
   0783 36 0E               980 	ld	(hl), #0x0e
   0785 21r83r01            981 	ld	hl, #(_game_win + 0x0016)
   0788 36 0E               982 	ld	(hl), #0x0e
   078A 21r84r01            983 	ld	hl, #(_game_win + 0x0017)
   078D 36 0E               984 	ld	(hl), #0x0e
   078F 21r85r01            985 	ld	hl, #(_game_win + 0x0018)
   0792 36 0E               986 	ld	(hl), #0x0e
   0794 21r86r01            987 	ld	hl, #(_game_win + 0x0019)
   0797 36 0E               988 	ld	(hl), #0x0e
   0799 21r87r01            989 	ld	hl, #(_game_win + 0x001a)
   079C 36 0E               990 	ld	(hl), #0x0e
   079E 21r88r01            991 	ld	hl, #(_game_win + 0x001b)
   07A1 36 0E               992 	ld	(hl), #0x0e
   07A3 21r89r01            993 	ld	hl, #(_game_win + 0x001c)
   07A6 36 0E               994 	ld	(hl), #0x0e
   07A8 21r8Ar01            995 	ld	hl, #(_game_win + 0x001d)
   07AB 36 0E               996 	ld	(hl), #0x0e
   07AD 21r8Br01            997 	ld	hl, #(_game_win + 0x001e)
   07B0 36 0E               998 	ld	(hl), #0x0e
   07B2 21r8Cr01            999 	ld	hl, #(_game_win + 0x001f)
   07B5 36 0E              1000 	ld	(hl), #0x0e
   07B7 21r8Dr01           1001 	ld	hl, #(_game_win + 0x0020)
   07BA 36 0E              1002 	ld	(hl), #0x0e
   07BC 21r8Er01           1003 	ld	hl, #(_game_win + 0x0021)
   07BF 36 0E              1004 	ld	(hl), #0x0e
   07C1 21r8Fr01           1005 	ld	hl, #(_game_win + 0x0022)
   07C4 36 0E              1006 	ld	(hl), #0x0e
   07C6 21r90r01           1007 	ld	hl, #(_game_win + 0x0023)
   07C9 36 0E              1008 	ld	(hl), #0x0e
   07CB 21r91r01           1009 	ld	hl, #(_game_win + 0x0024)
   07CE 36 0E              1010 	ld	(hl), #0x0e
   07D0 21r92r01           1011 	ld	hl, #(_game_win + 0x0025)
   07D3 36 0E              1012 	ld	(hl), #0x0e
   07D5 21r93r01           1013 	ld	hl, #(_game_win + 0x0026)
   07D8 36 0E              1014 	ld	(hl), #0x0e
   07DA 21r94r01           1015 	ld	hl, #(_game_win + 0x0027)
   07DD 36 0E              1016 	ld	(hl), #0x0e
                           1017 ;..\/hudmaps.c:129: unsigned char complete_win[] =
   07DF 21r95r01           1018 	ld	hl, #_complete_win
   07E2 36 00              1019 	ld	(hl), #0x00
   07E4 21r96r01           1020 	ld	hl, #(_complete_win + 0x0001)
   07E7 36 00              1021 	ld	(hl), #0x00
   07E9 21r97r01           1022 	ld	hl, #(_complete_win + 0x0002)
   07EC 36 00              1023 	ld	(hl), #0x00
   07EE 21r98r01           1024 	ld	hl, #(_complete_win + 0x0003)
   07F1 36 00              1025 	ld	(hl), #0x00
   07F3 21r99r01           1026 	ld	hl, #(_complete_win + 0x0004)
   07F6 36 00              1027 	ld	(hl), #0x00
   07F8 21r9Ar01           1028 	ld	hl, #(_complete_win + 0x0005)
   07FB 36 00              1029 	ld	(hl), #0x00
   07FD 21r9Br01           1030 	ld	hl, #(_complete_win + 0x0006)
   0800 36 00              1031 	ld	(hl), #0x00
   0802 21r9Cr01           1032 	ld	hl, #(_complete_win + 0x0007)
   0805 36 00              1033 	ld	(hl), #0x00
   0807 21r9Dr01           1034 	ld	hl, #(_complete_win + 0x0008)
   080A 36 00              1035 	ld	(hl), #0x00
   080C 21r9Er01           1036 	ld	hl, #(_complete_win + 0x0009)
   080F 36 00              1037 	ld	(hl), #0x00
   0811 21r9Fr01           1038 	ld	hl, #(_complete_win + 0x000a)
   0814 36 00              1039 	ld	(hl), #0x00
   0816 21rA0r01           1040 	ld	hl, #(_complete_win + 0x000b)
   0819 36 00              1041 	ld	(hl), #0x00
   081B 21rA1r01           1042 	ld	hl, #(_complete_win + 0x000c)
   081E 36 00              1043 	ld	(hl), #0x00
   0820 21rA2r01           1044 	ld	hl, #(_complete_win + 0x000d)
   0823 36 00              1045 	ld	(hl), #0x00
   0825 21rA3r01           1046 	ld	hl, #(_complete_win + 0x000e)
   0828 36 00              1047 	ld	(hl), #0x00
   082A 21rA4r01           1048 	ld	hl, #(_complete_win + 0x000f)
   082D 36 00              1049 	ld	(hl), #0x00
   082F 21rA5r01           1050 	ld	hl, #(_complete_win + 0x0010)
   0832 36 00              1051 	ld	(hl), #0x00
   0834 21rA6r01           1052 	ld	hl, #(_complete_win + 0x0011)
   0837 36 00              1053 	ld	(hl), #0x00
   0839 21rA7r01           1054 	ld	hl, #(_complete_win + 0x0012)
   083C 36 00              1055 	ld	(hl), #0x00
   083E 21rA8r01           1056 	ld	hl, #(_complete_win + 0x0013)
   0841 36 00              1057 	ld	(hl), #0x00
   0843 21rA9r01           1058 	ld	hl, #(_complete_win + 0x0014)
   0846 36 00              1059 	ld	(hl), #0x00
   0848 21rAAr01           1060 	ld	hl, #(_complete_win + 0x0015)
   084B 36 00              1061 	ld	(hl), #0x00
   084D 21rABr01           1062 	ld	hl, #(_complete_win + 0x0016)
   0850 36 00              1063 	ld	(hl), #0x00
   0852 21rACr01           1064 	ld	hl, #(_complete_win + 0x0017)
   0855 36 00              1065 	ld	(hl), #0x00
   0857 21rADr01           1066 	ld	hl, #(_complete_win + 0x0018)
   085A 36 00              1067 	ld	(hl), #0x00
   085C 21rAEr01           1068 	ld	hl, #(_complete_win + 0x0019)
   085F 36 00              1069 	ld	(hl), #0x00
   0861 21rAFr01           1070 	ld	hl, #(_complete_win + 0x001a)
   0864 36 12              1071 	ld	(hl), #0x12
   0866 21rB0r01           1072 	ld	hl, #(_complete_win + 0x001b)
   0869 36 1E              1073 	ld	(hl), #0x1e
   086B 21rB1r01           1074 	ld	hl, #(_complete_win + 0x001c)
   086E 36 1C              1075 	ld	(hl), #0x1c
   0870 21rB2r01           1076 	ld	hl, #(_complete_win + 0x001d)
   0873 36 1F              1077 	ld	(hl), #0x1f
   0875 21rB3r01           1078 	ld	hl, #(_complete_win + 0x001e)
   0878 36 1B              1079 	ld	(hl), #0x1b
   087A 21rB4r01           1080 	ld	hl, #(_complete_win + 0x001f)
   087D 36 14              1081 	ld	(hl), #0x14
   087F 21rB5r01           1082 	ld	hl, #(_complete_win + 0x0020)
   0882 36 23              1083 	ld	(hl), #0x23
   0884 21rB6r01           1084 	ld	hl, #(_complete_win + 0x0021)
   0887 36 14              1085 	ld	(hl), #0x14
   0889 21rB7r01           1086 	ld	hl, #(_complete_win + 0x0022)
   088C 36 00              1087 	ld	(hl), #0x00
   088E 21rB8r01           1088 	ld	hl, #(_complete_win + 0x0023)
   0891 36 00              1089 	ld	(hl), #0x00
   0893 21rB9r01           1090 	ld	hl, #(_complete_win + 0x0024)
   0896 36 00              1091 	ld	(hl), #0x00
   0898 21rBAr01           1092 	ld	hl, #(_complete_win + 0x0025)
   089B 36 00              1093 	ld	(hl), #0x00
   089D 21rBBr01           1094 	ld	hl, #(_complete_win + 0x0026)
   08A0 36 00              1095 	ld	(hl), #0x00
   08A2 21rBCr01           1096 	ld	hl, #(_complete_win + 0x0027)
   08A5 36 00              1097 	ld	(hl), #0x00
   08A7 21rBDr01           1098 	ld	hl, #(_complete_win + 0x0028)
   08AA 36 00              1099 	ld	(hl), #0x00
   08AC 21rBEr01           1100 	ld	hl, #(_complete_win + 0x0029)
   08AF 36 00              1101 	ld	(hl), #0x00
   08B1 21rBFr01           1102 	ld	hl, #(_complete_win + 0x002a)
   08B4 36 00              1103 	ld	(hl), #0x00
   08B6 21rC0r01           1104 	ld	hl, #(_complete_win + 0x002b)
   08B9 36 00              1105 	ld	(hl), #0x00
   08BB 21rC1r01           1106 	ld	hl, #(_complete_win + 0x002c)
   08BE 36 00              1107 	ld	(hl), #0x00
   08C0 21rC2r01           1108 	ld	hl, #(_complete_win + 0x002d)
   08C3 36 00              1109 	ld	(hl), #0x00
   08C5 21rC3r01           1110 	ld	hl, #(_complete_win + 0x002e)
   08C8 36 00              1111 	ld	(hl), #0x00
   08CA 21rC4r01           1112 	ld	hl, #(_complete_win + 0x002f)
   08CD 36 00              1113 	ld	(hl), #0x00
   08CF 21rC5r01           1114 	ld	hl, #(_complete_win + 0x0030)
   08D2 36 00              1115 	ld	(hl), #0x00
   08D4 21rC6r01           1116 	ld	hl, #(_complete_win + 0x0031)
   08D7 36 00              1117 	ld	(hl), #0x00
   08D9 21rC7r01           1118 	ld	hl, #(_complete_win + 0x0032)
   08DC 36 00              1119 	ld	(hl), #0x00
   08DE 21rC8r01           1120 	ld	hl, #(_complete_win + 0x0033)
   08E1 36 00              1121 	ld	(hl), #0x00
   08E3 21rC9r01           1122 	ld	hl, #(_complete_win + 0x0034)
   08E6 36 00              1123 	ld	(hl), #0x00
   08E8 21rCAr01           1124 	ld	hl, #(_complete_win + 0x0035)
   08EB 36 00              1125 	ld	(hl), #0x00
   08ED 21rCBr01           1126 	ld	hl, #(_complete_win + 0x0036)
   08F0 36 00              1127 	ld	(hl), #0x00
   08F2 21rCCr01           1128 	ld	hl, #(_complete_win + 0x0037)
   08F5 36 00              1129 	ld	(hl), #0x00
   08F7 21rCDr01           1130 	ld	hl, #(_complete_win + 0x0038)
   08FA 36 00              1131 	ld	(hl), #0x00
   08FC 21rCEr01           1132 	ld	hl, #(_complete_win + 0x0039)
   08FF 36 00              1133 	ld	(hl), #0x00
   0901 21rCFr01           1134 	ld	hl, #(_complete_win + 0x003a)
   0904 36 00              1135 	ld	(hl), #0x00
   0906 21rD0r01           1136 	ld	hl, #(_complete_win + 0x003b)
   0909 36 00              1137 	ld	(hl), #0x00
   090B 21rD1r01           1138 	ld	hl, #(_complete_win + 0x003c)
   090E 36 00              1139 	ld	(hl), #0x00
   0910 21rD2r01           1140 	ld	hl, #(_complete_win + 0x003d)
   0913 36 00              1141 	ld	(hl), #0x00
   0915 21rD3r01           1142 	ld	hl, #(_complete_win + 0x003e)
   0918 36 00              1143 	ld	(hl), #0x00
   091A 21rD4r01           1144 	ld	hl, #(_complete_win + 0x003f)
   091D 36 00              1145 	ld	(hl), #0x00
   091F 21rD5r01           1146 	ld	hl, #(_complete_win + 0x0040)
   0922 36 00              1147 	ld	(hl), #0x00
   0924 21rD6r01           1148 	ld	hl, #(_complete_win + 0x0041)
   0927 36 00              1149 	ld	(hl), #0x00
   0929 21rD7r01           1150 	ld	hl, #(_complete_win + 0x0042)
   092C 36 00              1151 	ld	(hl), #0x00
   092E 21rD8r01           1152 	ld	hl, #(_complete_win + 0x0043)
   0931 36 00              1153 	ld	(hl), #0x00
   0933 21rD9r01           1154 	ld	hl, #(_complete_win + 0x0044)
   0936 36 00              1155 	ld	(hl), #0x00
   0938 21rDAr01           1156 	ld	hl, #(_complete_win + 0x0045)
   093B 36 00              1157 	ld	(hl), #0x00
   093D 21rDBr01           1158 	ld	hl, #(_complete_win + 0x0046)
   0940 36 00              1159 	ld	(hl), #0x00
   0942 21rDCr01           1160 	ld	hl, #(_complete_win + 0x0047)
   0945 36 00              1161 	ld	(hl), #0x00
   0947 21rDDr01           1162 	ld	hl, #(_complete_win + 0x0048)
   094A 36 00              1163 	ld	(hl), #0x00
   094C 21rDEr01           1164 	ld	hl, #(_complete_win + 0x0049)
   094F 36 00              1165 	ld	(hl), #0x00
   0951 21rDFr01           1166 	ld	hl, #(_complete_win + 0x004a)
   0954 36 00              1167 	ld	(hl), #0x00
   0956 21rE0r01           1168 	ld	hl, #(_complete_win + 0x004b)
   0959 36 00              1169 	ld	(hl), #0x00
   095B 21rE1r01           1170 	ld	hl, #(_complete_win + 0x004c)
   095E 36 00              1171 	ld	(hl), #0x00
   0960 21rE2r01           1172 	ld	hl, #(_complete_win + 0x004d)
   0963 36 00              1173 	ld	(hl), #0x00
   0965 21rE3r01           1174 	ld	hl, #(_complete_win + 0x004e)
   0968 36 00              1175 	ld	(hl), #0x00
   096A 21rE4r01           1176 	ld	hl, #(_complete_win + 0x004f)
   096D 36 00              1177 	ld	(hl), #0x00
   096F 21rE5r01           1178 	ld	hl, #(_complete_win + 0x0050)
   0972 36 00              1179 	ld	(hl), #0x00
   0974 21rE6r01           1180 	ld	hl, #(_complete_win + 0x0051)
   0977 36 00              1181 	ld	(hl), #0x00
   0979 21rE7r01           1182 	ld	hl, #(_complete_win + 0x0052)
   097C 36 00              1183 	ld	(hl), #0x00
   097E 21rE8r01           1184 	ld	hl, #(_complete_win + 0x0053)
   0981 36 00              1185 	ld	(hl), #0x00
   0983 21rE9r01           1186 	ld	hl, #(_complete_win + 0x0054)
   0986 36 21              1187 	ld	(hl), #0x21
   0988 21rEAr01           1188 	ld	hl, #(_complete_win + 0x0055)
   098B 36 14              1189 	ld	(hl), #0x14
   098D 21rEBr01           1190 	ld	hl, #(_complete_win + 0x0056)
   0990 36 20              1191 	ld	(hl), #0x20
   0992 21rECr01           1192 	ld	hl, #(_complete_win + 0x0057)
   0995 36 24              1193 	ld	(hl), #0x24
   0997 21rEDr01           1194 	ld	hl, #(_complete_win + 0x0058)
   099A 36 18              1195 	ld	(hl), #0x18
   099C 21rEEr01           1196 	ld	hl, #(_complete_win + 0x0059)
   099F 36 21              1197 	ld	(hl), #0x21
   09A1 21rEFr01           1198 	ld	hl, #(_complete_win + 0x005a)
   09A4 36 14              1199 	ld	(hl), #0x14
   09A6 21rF0r01           1200 	ld	hl, #(_complete_win + 0x005b)
   09A9 36 13              1201 	ld	(hl), #0x13
   09AB 21rF1r01           1202 	ld	hl, #(_complete_win + 0x005c)
   09AE 36 00              1203 	ld	(hl), #0x00
   09B0 21rF2r01           1204 	ld	hl, #(_complete_win + 0x005d)
   09B3 36 01              1205 	ld	(hl), #0x01
   09B5 21rF3r01           1206 	ld	hl, #(_complete_win + 0x005e)
   09B8 36 00              1207 	ld	(hl), #0x00
   09BA 21rF4r01           1208 	ld	hl, #(_complete_win + 0x005f)
   09BD 36 00              1209 	ld	(hl), #0x00
   09BF 21rF5r01           1210 	ld	hl, #(_complete_win + 0x0060)
   09C2 36 00              1211 	ld	(hl), #0x00
   09C4 21rF6r01           1212 	ld	hl, #(_complete_win + 0x0061)
   09C7 36 00              1213 	ld	(hl), #0x00
   09C9 21rF7r01           1214 	ld	hl, #(_complete_win + 0x0062)
   09CC 36 00              1215 	ld	(hl), #0x00
   09CE 21rF8r01           1216 	ld	hl, #(_complete_win + 0x0063)
   09D1 36 00              1217 	ld	(hl), #0x00
   09D3 21rF9r01           1218 	ld	hl, #(_complete_win + 0x0064)
   09D6 36 00              1219 	ld	(hl), #0x00
   09D8 21rFAr01           1220 	ld	hl, #(_complete_win + 0x0065)
   09DB 36 00              1221 	ld	(hl), #0x00
   09DD 21rFBr01           1222 	ld	hl, #(_complete_win + 0x0066)
   09E0 36 00              1223 	ld	(hl), #0x00
   09E2 21rFCr01           1224 	ld	hl, #(_complete_win + 0x0067)
   09E5 36 00              1225 	ld	(hl), #0x00
   09E7 21rFDr01           1226 	ld	hl, #(_complete_win + 0x0068)
   09EA 36 00              1227 	ld	(hl), #0x00
   09EC 21rFEr01           1228 	ld	hl, #(_complete_win + 0x0069)
   09EF 36 23              1229 	ld	(hl), #0x23
   09F1 21rFFr01           1230 	ld	hl, #(_complete_win + 0x006a)
   09F4 36 10              1231 	ld	(hl), #0x10
   09F6 21r00r02           1232 	ld	hl, #(_complete_win + 0x006b)
   09F9 36 1A              1233 	ld	(hl), #0x1a
   09FB 21r01r02           1234 	ld	hl, #(_complete_win + 0x006c)
   09FE 36 14              1235 	ld	(hl), #0x14
   0A00 21r02r02           1236 	ld	hl, #(_complete_win + 0x006d)
   0A03 36 1D              1237 	ld	(hl), #0x1d
   0A05 21r03r02           1238 	ld	hl, #(_complete_win + 0x006e)
   0A08 36 00              1239 	ld	(hl), #0x00
   0A0A 21r04r02           1240 	ld	hl, #(_complete_win + 0x006f)
   0A0D 36 00              1241 	ld	(hl), #0x00
   0A0F 21r05r02           1242 	ld	hl, #(_complete_win + 0x0070)
   0A12 36 01              1243 	ld	(hl), #0x01
   0A14 21r06r02           1244 	ld	hl, #(_complete_win + 0x0071)
   0A17 36 00              1245 	ld	(hl), #0x00
   0A19 21r07r02           1246 	ld	hl, #(_complete_win + 0x0072)
   0A1C 36 00              1247 	ld	(hl), #0x00
   0A1E 21r08r02           1248 	ld	hl, #(_complete_win + 0x0073)
   0A21 36 00              1249 	ld	(hl), #0x00
   0A23 21r09r02           1250 	ld	hl, #(_complete_win + 0x0074)
   0A26 36 00              1251 	ld	(hl), #0x00
   0A28 21r0Ar02           1252 	ld	hl, #(_complete_win + 0x0075)
   0A2B 36 00              1253 	ld	(hl), #0x00
   0A2D 21r0Br02           1254 	ld	hl, #(_complete_win + 0x0076)
   0A30 36 00              1255 	ld	(hl), #0x00
   0A32 21r0Cr02           1256 	ld	hl, #(_complete_win + 0x0077)
   0A35 36 00              1257 	ld	(hl), #0x00
   0A37 21r0Dr02           1258 	ld	hl, #(_complete_win + 0x0078)
   0A3A 36 00              1259 	ld	(hl), #0x00
   0A3C 21r0Er02           1260 	ld	hl, #(_complete_win + 0x0079)
   0A3F 36 00              1261 	ld	(hl), #0x00
   0A41 21r0Fr02           1262 	ld	hl, #(_complete_win + 0x007a)
   0A44 36 00              1263 	ld	(hl), #0x00
   0A46 21r10r02           1264 	ld	hl, #(_complete_win + 0x007b)
   0A49 36 00              1265 	ld	(hl), #0x00
   0A4B 21r11r02           1266 	ld	hl, #(_complete_win + 0x007c)
   0A4E 36 00              1267 	ld	(hl), #0x00
   0A50 21r12r02           1268 	ld	hl, #(_complete_win + 0x007d)
   0A53 36 00              1269 	ld	(hl), #0x00
   0A55 21r13r02           1270 	ld	hl, #(_complete_win + 0x007e)
   0A58 36 00              1271 	ld	(hl), #0x00
   0A5A 21r14r02           1272 	ld	hl, #(_complete_win + 0x007f)
   0A5D 36 00              1273 	ld	(hl), #0x00
   0A5F 21r15r02           1274 	ld	hl, #(_complete_win + 0x0080)
   0A62 36 00              1275 	ld	(hl), #0x00
   0A64 21r16r02           1276 	ld	hl, #(_complete_win + 0x0081)
   0A67 36 00              1277 	ld	(hl), #0x00
   0A69 21r17r02           1278 	ld	hl, #(_complete_win + 0x0082)
   0A6C 36 00              1279 	ld	(hl), #0x00
   0A6E 21r18r02           1280 	ld	hl, #(_complete_win + 0x0083)
   0A71 36 00              1281 	ld	(hl), #0x00
   0A73 21r19r02           1282 	ld	hl, #(_complete_win + 0x0084)
   0A76 36 00              1283 	ld	(hl), #0x00
   0A78 21r1Ar02           1284 	ld	hl, #(_complete_win + 0x0085)
   0A7B 36 00              1285 	ld	(hl), #0x00
   0A7D 21r1Br02           1286 	ld	hl, #(_complete_win + 0x0086)
   0A80 36 00              1287 	ld	(hl), #0x00
   0A82 21r1Cr02           1288 	ld	hl, #(_complete_win + 0x0087)
   0A85 36 00              1289 	ld	(hl), #0x00
   0A87 21r1Dr02           1290 	ld	hl, #(_complete_win + 0x0088)
   0A8A 36 00              1291 	ld	(hl), #0x00
   0A8C 21r1Er02           1292 	ld	hl, #(_complete_win + 0x0089)
   0A8F 36 00              1293 	ld	(hl), #0x00
   0A91 21r1Fr02           1294 	ld	hl, #(_complete_win + 0x008a)
   0A94 36 00              1295 	ld	(hl), #0x00
   0A96 21r20r02           1296 	ld	hl, #(_complete_win + 0x008b)
   0A99 36 00              1297 	ld	(hl), #0x00
                           1298 ;..\/hudmaps.c:147: unsigned char gameover_win[] =
   0A9B 21r21r02           1299 	ld	hl, #_gameover_win
   0A9E 36 00              1300 	ld	(hl), #0x00
   0AA0 21r22r02           1301 	ld	hl, #(_gameover_win + 0x0001)
   0AA3 36 00              1302 	ld	(hl), #0x00
   0AA5 21r23r02           1303 	ld	hl, #(_gameover_win + 0x0002)
   0AA8 36 00              1304 	ld	(hl), #0x00
   0AAA 21r24r02           1305 	ld	hl, #(_gameover_win + 0x0003)
   0AAD 36 00              1306 	ld	(hl), #0x00
   0AAF 21r25r02           1307 	ld	hl, #(_gameover_win + 0x0004)
   0AB2 36 00              1308 	ld	(hl), #0x00
   0AB4 21r26r02           1309 	ld	hl, #(_gameover_win + 0x0005)
   0AB7 36 00              1310 	ld	(hl), #0x00
   0AB9 21r27r02           1311 	ld	hl, #(_gameover_win + 0x0006)
   0ABC 36 00              1312 	ld	(hl), #0x00
   0ABE 21r28r02           1313 	ld	hl, #(_gameover_win + 0x0007)
   0AC1 36 00              1314 	ld	(hl), #0x00
   0AC3 21r29r02           1315 	ld	hl, #(_gameover_win + 0x0008)
   0AC6 36 00              1316 	ld	(hl), #0x00
   0AC8 21r2Ar02           1317 	ld	hl, #(_gameover_win + 0x0009)
   0ACB 36 00              1318 	ld	(hl), #0x00
   0ACD 21r2Br02           1319 	ld	hl, #(_gameover_win + 0x000a)
   0AD0 36 00              1320 	ld	(hl), #0x00
   0AD2 21r2Cr02           1321 	ld	hl, #(_gameover_win + 0x000b)
   0AD5 36 00              1322 	ld	(hl), #0x00
   0AD7 21r2Dr02           1323 	ld	hl, #(_gameover_win + 0x000c)
   0ADA 36 00              1324 	ld	(hl), #0x00
   0ADC 21r2Er02           1325 	ld	hl, #(_gameover_win + 0x000d)
   0ADF 36 00              1326 	ld	(hl), #0x00
   0AE1 21r2Fr02           1327 	ld	hl, #(_gameover_win + 0x000e)
   0AE4 36 00              1328 	ld	(hl), #0x00
   0AE6 21r30r02           1329 	ld	hl, #(_gameover_win + 0x000f)
   0AE9 36 00              1330 	ld	(hl), #0x00
   0AEB 21r31r02           1331 	ld	hl, #(_gameover_win + 0x0010)
   0AEE 36 00              1332 	ld	(hl), #0x00
   0AF0 21r32r02           1333 	ld	hl, #(_gameover_win + 0x0011)
   0AF3 36 00              1334 	ld	(hl), #0x00
   0AF5 21r33r02           1335 	ld	hl, #(_gameover_win + 0x0012)
   0AF8 36 00              1336 	ld	(hl), #0x00
   0AFA 21r34r02           1337 	ld	hl, #(_gameover_win + 0x0013)
   0AFD 36 00              1338 	ld	(hl), #0x00
   0AFF 21r35r02           1339 	ld	hl, #(_gameover_win + 0x0014)
   0B02 36 00              1340 	ld	(hl), #0x00
   0B04 21r36r02           1341 	ld	hl, #(_gameover_win + 0x0015)
   0B07 36 00              1342 	ld	(hl), #0x00
   0B09 21r37r02           1343 	ld	hl, #(_gameover_win + 0x0016)
   0B0C 36 00              1344 	ld	(hl), #0x00
   0B0E 21r38r02           1345 	ld	hl, #(_gameover_win + 0x0017)
   0B11 36 00              1346 	ld	(hl), #0x00
   0B13 21r39r02           1347 	ld	hl, #(_gameover_win + 0x0018)
   0B16 36 00              1348 	ld	(hl), #0x00
   0B18 21r3Ar02           1349 	ld	hl, #(_gameover_win + 0x0019)
   0B1B 36 00              1350 	ld	(hl), #0x00
   0B1D 21r3Br02           1351 	ld	hl, #(_gameover_win + 0x001a)
   0B20 36 00              1352 	ld	(hl), #0x00
   0B22 21r3Cr02           1353 	ld	hl, #(_gameover_win + 0x001b)
   0B25 36 00              1354 	ld	(hl), #0x00
   0B27 21r3Dr02           1355 	ld	hl, #(_gameover_win + 0x001c)
   0B2A 36 00              1356 	ld	(hl), #0x00
   0B2C 21r3Er02           1357 	ld	hl, #(_gameover_win + 0x001d)
   0B2F 36 00              1358 	ld	(hl), #0x00
   0B31 21r3Fr02           1359 	ld	hl, #(_gameover_win + 0x001e)
   0B34 36 00              1360 	ld	(hl), #0x00
   0B36 21r40r02           1361 	ld	hl, #(_gameover_win + 0x001f)
   0B39 36 00              1362 	ld	(hl), #0x00
   0B3B 21r41r02           1363 	ld	hl, #(_gameover_win + 0x0020)
   0B3E 36 00              1364 	ld	(hl), #0x00
   0B40 21r42r02           1365 	ld	hl, #(_gameover_win + 0x0021)
   0B43 36 00              1366 	ld	(hl), #0x00
   0B45 21r43r02           1367 	ld	hl, #(_gameover_win + 0x0022)
   0B48 36 00              1368 	ld	(hl), #0x00
   0B4A 21r44r02           1369 	ld	hl, #(_gameover_win + 0x0023)
   0B4D 36 00              1370 	ld	(hl), #0x00
   0B4F 21r45r02           1371 	ld	hl, #(_gameover_win + 0x0024)
   0B52 36 00              1372 	ld	(hl), #0x00
   0B54 21r46r02           1373 	ld	hl, #(_gameover_win + 0x0025)
   0B57 36 00              1374 	ld	(hl), #0x00
   0B59 21r47r02           1375 	ld	hl, #(_gameover_win + 0x0026)
   0B5C 36 00              1376 	ld	(hl), #0x00
   0B5E 21r48r02           1377 	ld	hl, #(_gameover_win + 0x0027)
   0B61 36 00              1378 	ld	(hl), #0x00
   0B63 21r49r02           1379 	ld	hl, #(_gameover_win + 0x0028)
   0B66 36 00              1380 	ld	(hl), #0x00
   0B68 21r4Ar02           1381 	ld	hl, #(_gameover_win + 0x0029)
   0B6B 36 00              1382 	ld	(hl), #0x00
   0B6D 21r4Br02           1383 	ld	hl, #(_gameover_win + 0x002a)
   0B70 36 00              1384 	ld	(hl), #0x00
   0B72 21r4Cr02           1385 	ld	hl, #(_gameover_win + 0x002b)
   0B75 36 00              1386 	ld	(hl), #0x00
   0B77 21r4Dr02           1387 	ld	hl, #(_gameover_win + 0x002c)
   0B7A 36 00              1388 	ld	(hl), #0x00
   0B7C 21r4Er02           1389 	ld	hl, #(_gameover_win + 0x002d)
   0B7F 36 00              1390 	ld	(hl), #0x00
   0B81 21r4Fr02           1391 	ld	hl, #(_gameover_win + 0x002e)
   0B84 36 00              1392 	ld	(hl), #0x00
   0B86 21r50r02           1393 	ld	hl, #(_gameover_win + 0x002f)
   0B89 36 00              1394 	ld	(hl), #0x00
   0B8B 21r51r02           1395 	ld	hl, #(_gameover_win + 0x0030)
   0B8E 36 00              1396 	ld	(hl), #0x00
   0B90 21r52r02           1397 	ld	hl, #(_gameover_win + 0x0031)
   0B93 36 00              1398 	ld	(hl), #0x00
   0B95 21r53r02           1399 	ld	hl, #(_gameover_win + 0x0032)
   0B98 36 00              1400 	ld	(hl), #0x00
   0B9A 21r54r02           1401 	ld	hl, #(_gameover_win + 0x0033)
   0B9D 36 00              1402 	ld	(hl), #0x00
   0B9F 21r55r02           1403 	ld	hl, #(_gameover_win + 0x0034)
   0BA2 36 00              1404 	ld	(hl), #0x00
   0BA4 21r56r02           1405 	ld	hl, #(_gameover_win + 0x0035)
   0BA7 36 00              1406 	ld	(hl), #0x00
   0BA9 21r57r02           1407 	ld	hl, #(_gameover_win + 0x0036)
   0BAC 36 00              1408 	ld	(hl), #0x00
   0BAE 21r58r02           1409 	ld	hl, #(_gameover_win + 0x0037)
   0BB1 36 00              1410 	ld	(hl), #0x00
   0BB3 21r59r02           1411 	ld	hl, #(_gameover_win + 0x0038)
   0BB6 36 00              1412 	ld	(hl), #0x00
   0BB8 21r5Ar02           1413 	ld	hl, #(_gameover_win + 0x0039)
   0BBB 36 00              1414 	ld	(hl), #0x00
   0BBD 21r5Br02           1415 	ld	hl, #(_gameover_win + 0x003a)
   0BC0 36 00              1416 	ld	(hl), #0x00
   0BC2 21r5Cr02           1417 	ld	hl, #(_gameover_win + 0x003b)
   0BC5 36 00              1418 	ld	(hl), #0x00
   0BC7 21r5Dr02           1419 	ld	hl, #(_gameover_win + 0x003c)
   0BCA 36 00              1420 	ld	(hl), #0x00
   0BCC 21r5Er02           1421 	ld	hl, #(_gameover_win + 0x003d)
   0BCF 36 00              1422 	ld	(hl), #0x00
   0BD1 21r5Fr02           1423 	ld	hl, #(_gameover_win + 0x003e)
   0BD4 36 00              1424 	ld	(hl), #0x00
   0BD6 21r60r02           1425 	ld	hl, #(_gameover_win + 0x003f)
   0BD9 36 00              1426 	ld	(hl), #0x00
   0BDB 21r61r02           1427 	ld	hl, #(_gameover_win + 0x0040)
   0BDE 36 00              1428 	ld	(hl), #0x00
   0BE0 21r62r02           1429 	ld	hl, #(_gameover_win + 0x0041)
   0BE3 36 00              1430 	ld	(hl), #0x00
   0BE5 21r63r02           1431 	ld	hl, #(_gameover_win + 0x0042)
   0BE8 36 16              1432 	ld	(hl), #0x16
   0BEA 21r64r02           1433 	ld	hl, #(_gameover_win + 0x0043)
   0BED 36 10              1434 	ld	(hl), #0x10
   0BEF 21r65r02           1435 	ld	hl, #(_gameover_win + 0x0044)
   0BF2 36 1C              1436 	ld	(hl), #0x1c
   0BF4 21r66r02           1437 	ld	hl, #(_gameover_win + 0x0045)
   0BF7 36 14              1438 	ld	(hl), #0x14
   0BF9 21r67r02           1439 	ld	hl, #(_gameover_win + 0x0046)
   0BFC 36 1E              1440 	ld	(hl), #0x1e
   0BFE 21r68r02           1441 	ld	hl, #(_gameover_win + 0x0047)
   0C01 36 25              1442 	ld	(hl), #0x25
   0C03 21r69r02           1443 	ld	hl, #(_gameover_win + 0x0048)
   0C06 36 14              1444 	ld	(hl), #0x14
   0C08 21r6Ar02           1445 	ld	hl, #(_gameover_win + 0x0049)
   0C0B 36 21              1446 	ld	(hl), #0x21
   0C0D 21r6Br02           1447 	ld	hl, #(_gameover_win + 0x004a)
   0C10 36 00              1448 	ld	(hl), #0x00
   0C12 21r6Cr02           1449 	ld	hl, #(_gameover_win + 0x004b)
   0C15 36 00              1450 	ld	(hl), #0x00
   0C17 21r6Dr02           1451 	ld	hl, #(_gameover_win + 0x004c)
   0C1A 36 00              1452 	ld	(hl), #0x00
   0C1C 21r6Er02           1453 	ld	hl, #(_gameover_win + 0x004d)
   0C1F 36 00              1454 	ld	(hl), #0x00
   0C21 21r6Fr02           1455 	ld	hl, #(_gameover_win + 0x004e)
   0C24 36 00              1456 	ld	(hl), #0x00
   0C26 21r70r02           1457 	ld	hl, #(_gameover_win + 0x004f)
   0C29 36 00              1458 	ld	(hl), #0x00
   0C2B 21r71r02           1459 	ld	hl, #(_gameover_win + 0x0050)
   0C2E 36 00              1460 	ld	(hl), #0x00
   0C30 21r72r02           1461 	ld	hl, #(_gameover_win + 0x0051)
   0C33 36 00              1462 	ld	(hl), #0x00
   0C35 21r73r02           1463 	ld	hl, #(_gameover_win + 0x0052)
   0C38 36 00              1464 	ld	(hl), #0x00
   0C3A 21r74r02           1465 	ld	hl, #(_gameover_win + 0x0053)
   0C3D 36 00              1466 	ld	(hl), #0x00
   0C3F 21r75r02           1467 	ld	hl, #(_gameover_win + 0x0054)
   0C42 36 00              1468 	ld	(hl), #0x00
   0C44 21r76r02           1469 	ld	hl, #(_gameover_win + 0x0055)
   0C47 36 00              1470 	ld	(hl), #0x00
   0C49 21r77r02           1471 	ld	hl, #(_gameover_win + 0x0056)
   0C4C 36 00              1472 	ld	(hl), #0x00
   0C4E 21r78r02           1473 	ld	hl, #(_gameover_win + 0x0057)
   0C51 36 00              1474 	ld	(hl), #0x00
   0C53 21r79r02           1475 	ld	hl, #(_gameover_win + 0x0058)
   0C56 36 00              1476 	ld	(hl), #0x00
   0C58 21r7Ar02           1477 	ld	hl, #(_gameover_win + 0x0059)
   0C5B 36 00              1478 	ld	(hl), #0x00
   0C5D 21r7Br02           1479 	ld	hl, #(_gameover_win + 0x005a)
   0C60 36 00              1480 	ld	(hl), #0x00
   0C62 21r7Cr02           1481 	ld	hl, #(_gameover_win + 0x005b)
   0C65 36 00              1482 	ld	(hl), #0x00
   0C67 21r7Dr02           1483 	ld	hl, #(_gameover_win + 0x005c)
   0C6A 36 00              1484 	ld	(hl), #0x00
   0C6C 21r7Er02           1485 	ld	hl, #(_gameover_win + 0x005d)
   0C6F 36 00              1486 	ld	(hl), #0x00
   0C71 21r7Fr02           1487 	ld	hl, #(_gameover_win + 0x005e)
   0C74 36 00              1488 	ld	(hl), #0x00
   0C76 21r80r02           1489 	ld	hl, #(_gameover_win + 0x005f)
   0C79 36 00              1490 	ld	(hl), #0x00
   0C7B 21r81r02           1491 	ld	hl, #(_gameover_win + 0x0060)
   0C7E 36 00              1492 	ld	(hl), #0x00
   0C80 21r82r02           1493 	ld	hl, #(_gameover_win + 0x0061)
   0C83 36 00              1494 	ld	(hl), #0x00
   0C85 21r83r02           1495 	ld	hl, #(_gameover_win + 0x0062)
   0C88 36 00              1496 	ld	(hl), #0x00
   0C8A 21r84r02           1497 	ld	hl, #(_gameover_win + 0x0063)
   0C8D 36 00              1498 	ld	(hl), #0x00
   0C8F 21r85r02           1499 	ld	hl, #(_gameover_win + 0x0064)
   0C92 36 00              1500 	ld	(hl), #0x00
   0C94 21r86r02           1501 	ld	hl, #(_gameover_win + 0x0065)
   0C97 36 00              1502 	ld	(hl), #0x00
   0C99 21r87r02           1503 	ld	hl, #(_gameover_win + 0x0066)
   0C9C 36 00              1504 	ld	(hl), #0x00
   0C9E 21r88r02           1505 	ld	hl, #(_gameover_win + 0x0067)
   0CA1 36 00              1506 	ld	(hl), #0x00
   0CA3 21r89r02           1507 	ld	hl, #(_gameover_win + 0x0068)
   0CA6 36 00              1508 	ld	(hl), #0x00
   0CA8 21r8Ar02           1509 	ld	hl, #(_gameover_win + 0x0069)
   0CAB 36 00              1510 	ld	(hl), #0x00
   0CAD 21r8Br02           1511 	ld	hl, #(_gameover_win + 0x006a)
   0CB0 36 00              1512 	ld	(hl), #0x00
   0CB2 21r8Cr02           1513 	ld	hl, #(_gameover_win + 0x006b)
   0CB5 36 00              1514 	ld	(hl), #0x00
   0CB7 21r8Dr02           1515 	ld	hl, #(_gameover_win + 0x006c)
   0CBA 36 00              1516 	ld	(hl), #0x00
   0CBC 21r8Er02           1517 	ld	hl, #(_gameover_win + 0x006d)
   0CBF 36 00              1518 	ld	(hl), #0x00
   0CC1 21r8Fr02           1519 	ld	hl, #(_gameover_win + 0x006e)
   0CC4 36 00              1520 	ld	(hl), #0x00
   0CC6 21r90r02           1521 	ld	hl, #(_gameover_win + 0x006f)
   0CC9 36 00              1522 	ld	(hl), #0x00
   0CCB 21r91r02           1523 	ld	hl, #(_gameover_win + 0x0070)
   0CCE 36 00              1524 	ld	(hl), #0x00
   0CD0 21r92r02           1525 	ld	hl, #(_gameover_win + 0x0071)
   0CD3 36 00              1526 	ld	(hl), #0x00
   0CD5 21r93r02           1527 	ld	hl, #(_gameover_win + 0x0072)
   0CD8 36 00              1528 	ld	(hl), #0x00
   0CDA 21r94r02           1529 	ld	hl, #(_gameover_win + 0x0073)
   0CDD 36 00              1530 	ld	(hl), #0x00
   0CDF 21r95r02           1531 	ld	hl, #(_gameover_win + 0x0074)
   0CE2 36 00              1532 	ld	(hl), #0x00
   0CE4 21r96r02           1533 	ld	hl, #(_gameover_win + 0x0075)
   0CE7 36 00              1534 	ld	(hl), #0x00
   0CE9 21r97r02           1535 	ld	hl, #(_gameover_win + 0x0076)
   0CEC 36 00              1536 	ld	(hl), #0x00
   0CEE 21r98r02           1537 	ld	hl, #(_gameover_win + 0x0077)
   0CF1 36 00              1538 	ld	(hl), #0x00
   0CF3 21r99r02           1539 	ld	hl, #(_gameover_win + 0x0078)
   0CF6 36 00              1540 	ld	(hl), #0x00
   0CF8 21r9Ar02           1541 	ld	hl, #(_gameover_win + 0x0079)
   0CFB 36 00              1542 	ld	(hl), #0x00
   0CFD 21r9Br02           1543 	ld	hl, #(_gameover_win + 0x007a)
   0D00 36 00              1544 	ld	(hl), #0x00
   0D02 21r9Cr02           1545 	ld	hl, #(_gameover_win + 0x007b)
   0D05 36 00              1546 	ld	(hl), #0x00
   0D07 21r9Dr02           1547 	ld	hl, #(_gameover_win + 0x007c)
   0D0A 36 00              1548 	ld	(hl), #0x00
   0D0C 21r9Er02           1549 	ld	hl, #(_gameover_win + 0x007d)
   0D0F 36 00              1550 	ld	(hl), #0x00
   0D11 21r9Fr02           1551 	ld	hl, #(_gameover_win + 0x007e)
   0D14 36 00              1552 	ld	(hl), #0x00
   0D16 21rA0r02           1553 	ld	hl, #(_gameover_win + 0x007f)
   0D19 36 00              1554 	ld	(hl), #0x00
   0D1B 21rA1r02           1555 	ld	hl, #(_gameover_win + 0x0080)
   0D1E 36 00              1556 	ld	(hl), #0x00
   0D20 21rA2r02           1557 	ld	hl, #(_gameover_win + 0x0081)
   0D23 36 00              1558 	ld	(hl), #0x00
   0D25 21rA3r02           1559 	ld	hl, #(_gameover_win + 0x0082)
   0D28 36 00              1560 	ld	(hl), #0x00
   0D2A 21rA4r02           1561 	ld	hl, #(_gameover_win + 0x0083)
   0D2D 36 00              1562 	ld	(hl), #0x00
   0D2F 21rA5r02           1563 	ld	hl, #(_gameover_win + 0x0084)
   0D32 36 00              1564 	ld	(hl), #0x00
   0D34 21rA6r02           1565 	ld	hl, #(_gameover_win + 0x0085)
   0D37 36 00              1566 	ld	(hl), #0x00
   0D39 21rA7r02           1567 	ld	hl, #(_gameover_win + 0x0086)
   0D3C 36 00              1568 	ld	(hl), #0x00
   0D3E 21rA8r02           1569 	ld	hl, #(_gameover_win + 0x0087)
   0D41 36 00              1570 	ld	(hl), #0x00
   0D43 21rA9r02           1571 	ld	hl, #(_gameover_win + 0x0088)
   0D46 36 00              1572 	ld	(hl), #0x00
   0D48 21rAAr02           1573 	ld	hl, #(_gameover_win + 0x0089)
   0D4B 36 00              1574 	ld	(hl), #0x00
   0D4D 21rABr02           1575 	ld	hl, #(_gameover_win + 0x008a)
   0D50 36 00              1576 	ld	(hl), #0x00
   0D52 21rACr02           1577 	ld	hl, #(_gameover_win + 0x008b)
   0D55 36 00              1578 	ld	(hl), #0x00
                           1579 ;..\/levels.c:159: const unsigned char *levels[] = {&level01[0], &level02[0], &test_level[0]};
   0D57 21rADr02           1580 	ld	hl, #_levels
   0D5A 36r54              1581 	ld	(hl), #<(_level01)
   0D5C 23                 1582 	inc	hl
   0D5D 36s04              1583 	ld	(hl), #>(_level01)
   0D5F 21rAFr02           1584 	ld	hl, #(_levels + 0x0002)
   0D62 36rBC              1585 	ld	(hl), #<(_level02)
   0D64 23                 1586 	inc	hl
   0D65 36s05              1587 	ld	(hl), #>(_level02)
   0D67 21rB1r02           1588 	ld	hl, #(_levels + 0x0004)
   0D6A 36r0E              1589 	ld	(hl), #<(_test_level)
   0D6C 23                 1590 	inc	hl
   0D6D 36s08              1591 	ld	(hl), #>(_test_level)
                           1592 ;..\/game.c:40: UINT8 movement = MOVING_VERTICALLY | FACING_RIGHT;
   0D6F 21rF6r08           1593 	ld	hl, #_movement
   0D72 36 09              1594 	ld	(hl), #0x09
                           1595 ;..\/game.c:43: UINT8 game_refresh = 0;
   0D74 21rF7r08           1596 	ld	hl, #_game_refresh
   0D77 36 00              1597 	ld	(hl), #0x00
                           1598 ;..\/game.c:44: UINT8 walking_refresh = 6;
   0D79 21rF8r08           1599 	ld	hl, #_walking_refresh
   0D7C 36 06              1600 	ld	(hl), #0x06
                           1601 ;..\/game.c:45: UINT8 jumping_refresh = 0;
   0D7E 21rF9r08           1602 	ld	hl, #_jumping_refresh
   0D81 36 00              1603 	ld	(hl), #0x00
                           1604 ;..\/game.c:46: UINT8 falling_refresh = 0;
   0D83 21rFAr08           1605 	ld	hl, #_falling_refresh
   0D86 36 00              1606 	ld	(hl), #0x00
                           1607 ;..\/game.c:48: BOOLEAN h_swapped = FALSE; //have the tiles in the level's tilemap been swapped vertically
   0D88 21rFBr08           1608 	ld	hl, #_h_swapped
   0D8B 36 00              1609 	ld	(hl), #0x00
                           1610 ;..\/game.c:49: BOOLEAN standing = FALSE;
   0D8D 21rFCr08           1611 	ld	hl, #_standing
   0D90 36 00              1612 	ld	(hl), #0x00
                           1613 ;..\/game.c:50: BOOLEAN blocked_left = FALSE;
   0D92 21rFDr08           1614 	ld	hl, #_blocked_left
   0D95 36 00              1615 	ld	(hl), #0x00
                           1616 ;..\/game.c:51: BOOLEAN blocked_right = FALSE;
   0D97 21rFEr08           1617 	ld	hl, #_blocked_right
   0D9A 36 00              1618 	ld	(hl), #0x00
                           1619 ;..\/game.c:52: BOOLEAN requirement_met = FALSE;
   0D9C 21rFFr08           1620 	ld	hl, #_requirement_met
   0D9F 36 00              1621 	ld	(hl), #0x00
                           1622 ;..\/game.c:55: UINT8 lives = 3;
   0DA1 21r00r09           1623 	ld	hl, #_lives
   0DA4 36 03              1624 	ld	(hl), #0x03
                           1625 ;..\/game.c:56: UINT8 gems = 0;
   0DA6 21r01r09           1626 	ld	hl, #_gems
   0DA9 36 00              1627 	ld	(hl), #0x00
                           1628 ;..\/game.c:57: UINT8 score = 0;
   0DAB 21r02r09           1629 	ld	hl, #_score
   0DAE 36 00              1630 	ld	(hl), #0x00
                           1631 ;..\/game.c:58: UINT8 chutes = 0; //number of parachutes in the inventory
   0DB0 21r03r09           1632 	ld	hl, #_chutes
   0DB3 36 00              1633 	ld	(hl), #0x00
                           1634 ;..\/scenes.c:1: UINT8 scene = 0;
   0DB5 21r2Cr09           1635 	ld	hl, #_scene
   0DB8 36 00              1636 	ld	(hl), #0x00
                           1637 ;..\/graphics.c:5: BOOLEAN faded_out = FALSE;
   0DBA 21r2Er09           1638 	ld	hl, #_faded_out
   0DBD 36 00              1639 	ld	(hl), #0x00
                           1640 ;..\/tiles/hudtiles.c:97: unsigned char title_tiles[] =
   0DBF 21r2Fr09           1641 	ld	hl, #_title_tiles
   0DC2 36 FF              1642 	ld	(hl), #0xff
   0DC4 21r30r09           1643 	ld	hl, #(_title_tiles + 0x0001)
   0DC7 36 00              1644 	ld	(hl), #0x00
   0DC9 21r31r09           1645 	ld	hl, #(_title_tiles + 0x0002)
   0DCC 36 FF              1646 	ld	(hl), #0xff
   0DCE 21r32r09           1647 	ld	hl, #(_title_tiles + 0x0003)
   0DD1 36 00              1648 	ld	(hl), #0x00
   0DD3 21r33r09           1649 	ld	hl, #(_title_tiles + 0x0004)
   0DD6 36 FF              1650 	ld	(hl), #0xff
   0DD8 21r34r09           1651 	ld	hl, #(_title_tiles + 0x0005)
   0DDB 36 00              1652 	ld	(hl), #0x00
   0DDD 21r35r09           1653 	ld	hl, #(_title_tiles + 0x0006)
   0DE0 36 FF              1654 	ld	(hl), #0xff
   0DE2 21r36r09           1655 	ld	hl, #(_title_tiles + 0x0007)
   0DE5 36 00              1656 	ld	(hl), #0x00
   0DE7 21r37r09           1657 	ld	hl, #(_title_tiles + 0x0008)
   0DEA 36 FF              1658 	ld	(hl), #0xff
   0DEC 21r38r09           1659 	ld	hl, #(_title_tiles + 0x0009)
   0DEF 36 00              1660 	ld	(hl), #0x00
   0DF1 21r39r09           1661 	ld	hl, #(_title_tiles + 0x000a)
   0DF4 36 FF              1662 	ld	(hl), #0xff
   0DF6 21r3Ar09           1663 	ld	hl, #(_title_tiles + 0x000b)
   0DF9 36 00              1664 	ld	(hl), #0x00
   0DFB 21r3Br09           1665 	ld	hl, #(_title_tiles + 0x000c)
   0DFE 36 FF              1666 	ld	(hl), #0xff
   0E00 21r3Cr09           1667 	ld	hl, #(_title_tiles + 0x000d)
   0E03 36 00              1668 	ld	(hl), #0x00
   0E05 21r3Dr09           1669 	ld	hl, #(_title_tiles + 0x000e)
   0E08 36 FF              1670 	ld	(hl), #0xff
   0E0A 21r3Er09           1671 	ld	hl, #(_title_tiles + 0x000f)
   0E0D 36 00              1672 	ld	(hl), #0x00
   0E0F 21r3Fr09           1673 	ld	hl, #(_title_tiles + 0x0010)
   0E12 36 FF              1674 	ld	(hl), #0xff
   0E14 21r40r09           1675 	ld	hl, #(_title_tiles + 0x0011)
   0E17 36 00              1676 	ld	(hl), #0x00
   0E19 21r41r09           1677 	ld	hl, #(_title_tiles + 0x0012)
   0E1C 36 FF              1678 	ld	(hl), #0xff
   0E1E 21r42r09           1679 	ld	hl, #(_title_tiles + 0x0013)
   0E21 36 00              1680 	ld	(hl), #0x00
   0E23 21r43r09           1681 	ld	hl, #(_title_tiles + 0x0014)
   0E26 36 FF              1682 	ld	(hl), #0xff
   0E28 21r44r09           1683 	ld	hl, #(_title_tiles + 0x0015)
   0E2B 36 00              1684 	ld	(hl), #0x00
   0E2D 21r45r09           1685 	ld	hl, #(_title_tiles + 0x0016)
   0E30 36 FF              1686 	ld	(hl), #0xff
   0E32 21r46r09           1687 	ld	hl, #(_title_tiles + 0x0017)
   0E35 36 01              1688 	ld	(hl), #0x01
   0E37 21r47r09           1689 	ld	hl, #(_title_tiles + 0x0018)
   0E3A 36 FE              1690 	ld	(hl), #0xfe
   0E3C 21r48r09           1691 	ld	hl, #(_title_tiles + 0x0019)
   0E3F 36 06              1692 	ld	(hl), #0x06
   0E41 21r49r09           1693 	ld	hl, #(_title_tiles + 0x001a)
   0E44 36 F8              1694 	ld	(hl), #0xf8
   0E46 21r4Ar09           1695 	ld	hl, #(_title_tiles + 0x001b)
   0E49 36 08              1696 	ld	(hl), #0x08
   0E4B 21r4Br09           1697 	ld	hl, #(_title_tiles + 0x001c)
   0E4E 36 F8              1698 	ld	(hl), #0xf8
   0E50 21r4Cr09           1699 	ld	hl, #(_title_tiles + 0x001d)
   0E53 36 08              1700 	ld	(hl), #0x08
   0E55 21r4Dr09           1701 	ld	hl, #(_title_tiles + 0x001e)
   0E58 36 F0              1702 	ld	(hl), #0xf0
   0E5A 21r4Er09           1703 	ld	hl, #(_title_tiles + 0x001f)
   0E5D 36 10              1704 	ld	(hl), #0x10
   0E5F 21r4Fr09           1705 	ld	hl, #(_title_tiles + 0x0020)
   0E62 36 FF              1706 	ld	(hl), #0xff
   0E64 21r50r09           1707 	ld	hl, #(_title_tiles + 0x0021)
   0E67 36 00              1708 	ld	(hl), #0x00
   0E69 21r51r09           1709 	ld	hl, #(_title_tiles + 0x0022)
   0E6C 36 FF              1710 	ld	(hl), #0xff
   0E6E 21r52r09           1711 	ld	hl, #(_title_tiles + 0x0023)
   0E71 36 00              1712 	ld	(hl), #0x00
   0E73 21r53r09           1713 	ld	hl, #(_title_tiles + 0x0024)
   0E76 36 FF              1714 	ld	(hl), #0xff
   0E78 21r54r09           1715 	ld	hl, #(_title_tiles + 0x0025)
   0E7B 36 7E              1716 	ld	(hl), #0x7e
   0E7D 21r55r09           1717 	ld	hl, #(_title_tiles + 0x0026)
   0E80 36 8F              1718 	ld	(hl), #0x8f
   0E82 21r56r09           1719 	ld	hl, #(_title_tiles + 0x0027)
   0E85 36 81              1720 	ld	(hl), #0x81
   0E87 21r57r09           1721 	ld	hl, #(_title_tiles + 0x0028)
   0E8A 36 01              1722 	ld	(hl), #0x01
   0E8C 21r58r09           1723 	ld	hl, #(_title_tiles + 0x0029)
   0E8F 36 00              1724 	ld	(hl), #0x00
   0E91 21r59r09           1725 	ld	hl, #(_title_tiles + 0x002a)
   0E94 36 01              1726 	ld	(hl), #0x01
   0E96 21r5Ar09           1727 	ld	hl, #(_title_tiles + 0x002b)
   0E99 36 00              1728 	ld	(hl), #0x00
   0E9B 21r5Br09           1729 	ld	hl, #(_title_tiles + 0x002c)
   0E9E 36 00              1730 	ld	(hl), #0x00
   0EA0 21r5Cr09           1731 	ld	hl, #(_title_tiles + 0x002d)
   0EA3 36 00              1732 	ld	(hl), #0x00
   0EA5 21r5Dr09           1733 	ld	hl, #(_title_tiles + 0x002e)
   0EA8 36 00              1734 	ld	(hl), #0x00
   0EAA 21r5Er09           1735 	ld	hl, #(_title_tiles + 0x002f)
   0EAD 36 00              1736 	ld	(hl), #0x00
   0EAF 21r5Fr09           1737 	ld	hl, #(_title_tiles + 0x0030)
   0EB2 36 FF              1738 	ld	(hl), #0xff
   0EB4 21r60r09           1739 	ld	hl, #(_title_tiles + 0x0031)
   0EB7 36 00              1740 	ld	(hl), #0x00
   0EB9 21r61r09           1741 	ld	hl, #(_title_tiles + 0x0032)
   0EBC 36 FF              1742 	ld	(hl), #0xff
   0EBE 21r62r09           1743 	ld	hl, #(_title_tiles + 0x0033)
   0EC1 36 00              1744 	ld	(hl), #0x00
   0EC3 21r63r09           1745 	ld	hl, #(_title_tiles + 0x0034)
   0EC6 36 FF              1746 	ld	(hl), #0xff
   0EC8 21r64r09           1747 	ld	hl, #(_title_tiles + 0x0035)
   0ECB 36 00              1748 	ld	(hl), #0x00
   0ECD 21r65r09           1749 	ld	hl, #(_title_tiles + 0x0036)
   0ED0 36 FF              1750 	ld	(hl), #0xff
   0ED2 21r66r09           1751 	ld	hl, #(_title_tiles + 0x0037)
   0ED5 36 80              1752 	ld	(hl), #0x80
   0ED7 21r67r09           1753 	ld	hl, #(_title_tiles + 0x0038)
   0EDA 36 FF              1754 	ld	(hl), #0xff
   0EDC 21r68r09           1755 	ld	hl, #(_title_tiles + 0x0039)
   0EDF 36 60              1756 	ld	(hl), #0x60
   0EE1 21r69r09           1757 	ld	hl, #(_title_tiles + 0x003a)
   0EE4 36 FF              1758 	ld	(hl), #0xff
   0EE6 21r6Ar09           1759 	ld	hl, #(_title_tiles + 0x003b)
   0EE9 36 10              1760 	ld	(hl), #0x10
   0EEB 21r6Br09           1761 	ld	hl, #(_title_tiles + 0x003c)
   0EEE 36 FF              1762 	ld	(hl), #0xff
   0EF0 21r6Cr09           1763 	ld	hl, #(_title_tiles + 0x003d)
   0EF3 36 10              1764 	ld	(hl), #0x10
   0EF5 21r6Dr09           1765 	ld	hl, #(_title_tiles + 0x003e)
   0EF8 36 7F              1766 	ld	(hl), #0x7f
   0EFA 21r6Er09           1767 	ld	hl, #(_title_tiles + 0x003f)
   0EFD 36 08              1768 	ld	(hl), #0x08
   0EFF 21r6Fr09           1769 	ld	hl, #(_title_tiles + 0x0040)
   0F02 36 F0              1770 	ld	(hl), #0xf0
   0F04 21r70r09           1771 	ld	hl, #(_title_tiles + 0x0041)
   0F07 36 10              1772 	ld	(hl), #0x10
   0F09 21r71r09           1773 	ld	hl, #(_title_tiles + 0x0042)
   0F0C 36 F0              1774 	ld	(hl), #0xf0
   0F0E 21r72r09           1775 	ld	hl, #(_title_tiles + 0x0043)
   0F11 36 20              1776 	ld	(hl), #0x20
   0F13 21r73r09           1777 	ld	hl, #(_title_tiles + 0x0044)
   0F16 36 F0              1778 	ld	(hl), #0xf0
   0F18 21r74r09           1779 	ld	hl, #(_title_tiles + 0x0045)
   0F1B 36 20              1780 	ld	(hl), #0x20
   0F1D 21r75r09           1781 	ld	hl, #(_title_tiles + 0x0046)
   0F20 36 F0              1782 	ld	(hl), #0xf0
   0F22 21r76r09           1783 	ld	hl, #(_title_tiles + 0x0047)
   0F25 36 20              1784 	ld	(hl), #0x20
   0F27 21r77r09           1785 	ld	hl, #(_title_tiles + 0x0048)
   0F2A 36 F0              1786 	ld	(hl), #0xf0
   0F2C 21r78r09           1787 	ld	hl, #(_title_tiles + 0x0049)
   0F2F 36 20              1788 	ld	(hl), #0x20
   0F31 21r79r09           1789 	ld	hl, #(_title_tiles + 0x004a)
   0F34 36 F8              1790 	ld	(hl), #0xf8
   0F36 21r7Ar09           1791 	ld	hl, #(_title_tiles + 0x004b)
   0F39 36 20              1792 	ld	(hl), #0x20
   0F3B 21r7Br09           1793 	ld	hl, #(_title_tiles + 0x004c)
   0F3E 36 F8              1794 	ld	(hl), #0xf8
   0F40 21r7Cr09           1795 	ld	hl, #(_title_tiles + 0x004d)
   0F43 36 20              1796 	ld	(hl), #0x20
   0F45 21r7Dr09           1797 	ld	hl, #(_title_tiles + 0x004e)
   0F48 36 FE              1798 	ld	(hl), #0xfe
   0F4A 21r7Er09           1799 	ld	hl, #(_title_tiles + 0x004f)
   0F4D 36 10              1800 	ld	(hl), #0x10
   0F4F 21r7Fr09           1801 	ld	hl, #(_title_tiles + 0x0050)
   0F52 36 7F              1802 	ld	(hl), #0x7f
   0F54 21r80r09           1803 	ld	hl, #(_title_tiles + 0x0051)
   0F57 36 08              1804 	ld	(hl), #0x08
   0F59 21r81r09           1805 	ld	hl, #(_title_tiles + 0x0052)
   0F5C 36 7F              1806 	ld	(hl), #0x7f
   0F5E 21r82r09           1807 	ld	hl, #(_title_tiles + 0x0053)
   0F61 36 04              1808 	ld	(hl), #0x04
   0F63 21r83r09           1809 	ld	hl, #(_title_tiles + 0x0054)
   0F66 36 7F              1810 	ld	(hl), #0x7f
   0F68 21r84r09           1811 	ld	hl, #(_title_tiles + 0x0055)
   0F6B 36 04              1812 	ld	(hl), #0x04
   0F6D 21r85r09           1813 	ld	hl, #(_title_tiles + 0x0056)
   0F70 36 7F              1814 	ld	(hl), #0x7f
   0F72 21r86r09           1815 	ld	hl, #(_title_tiles + 0x0057)
   0F75 36 04              1816 	ld	(hl), #0x04
   0F77 21r87r09           1817 	ld	hl, #(_title_tiles + 0x0058)
   0F7A 36 FF              1818 	ld	(hl), #0xff
   0F7C 21r88r09           1819 	ld	hl, #(_title_tiles + 0x0059)
   0F7F 36 04              1820 	ld	(hl), #0x04
   0F81 21r89r09           1821 	ld	hl, #(_title_tiles + 0x005a)
   0F84 36 FF              1822 	ld	(hl), #0xff
   0F86 21r8Ar09           1823 	ld	hl, #(_title_tiles + 0x005b)
   0F89 36 04              1824 	ld	(hl), #0x04
   0F8B 21r8Br09           1825 	ld	hl, #(_title_tiles + 0x005c)
   0F8E 36 FF              1826 	ld	(hl), #0xff
   0F90 21r8Cr09           1827 	ld	hl, #(_title_tiles + 0x005d)
   0F93 36 04              1828 	ld	(hl), #0x04
   0F95 21r8Dr09           1829 	ld	hl, #(_title_tiles + 0x005e)
   0F98 36 FF              1830 	ld	(hl), #0xff
   0F9A 21r8Er09           1831 	ld	hl, #(_title_tiles + 0x005f)
   0F9D 36 08              1832 	ld	(hl), #0x08
   0F9F 21r8Fr09           1833 	ld	hl, #(_title_tiles + 0x0060)
   0FA2 36 FF              1834 	ld	(hl), #0xff
   0FA4 21r90r09           1835 	ld	hl, #(_title_tiles + 0x0061)
   0FA7 36 10              1836 	ld	(hl), #0x10
   0FA9 21r91r09           1837 	ld	hl, #(_title_tiles + 0x0062)
   0FAC 36 FF              1838 	ld	(hl), #0xff
   0FAE 21r92r09           1839 	ld	hl, #(_title_tiles + 0x0063)
   0FB1 36 08              1840 	ld	(hl), #0x08
   0FB3 21r93r09           1841 	ld	hl, #(_title_tiles + 0x0064)
   0FB6 36 FF              1842 	ld	(hl), #0xff
   0FB8 21r94r09           1843 	ld	hl, #(_title_tiles + 0x0065)
   0FBB 36 08              1844 	ld	(hl), #0x08
   0FBD 21r95r09           1845 	ld	hl, #(_title_tiles + 0x0066)
   0FC0 36 FF              1846 	ld	(hl), #0xff
   0FC2 21r96r09           1847 	ld	hl, #(_title_tiles + 0x0067)
   0FC5 36 06              1848 	ld	(hl), #0x06
   0FC7 21r97r09           1849 	ld	hl, #(_title_tiles + 0x0068)
   0FCA 36 FF              1850 	ld	(hl), #0xff
   0FCC 21r98r09           1851 	ld	hl, #(_title_tiles + 0x0069)
   0FCF 36 01              1852 	ld	(hl), #0x01
   0FD1 21r99r09           1853 	ld	hl, #(_title_tiles + 0x006a)
   0FD4 36 FF              1854 	ld	(hl), #0xff
   0FD6 21r9Ar09           1855 	ld	hl, #(_title_tiles + 0x006b)
   0FD9 36 00              1856 	ld	(hl), #0x00
   0FDB 21r9Br09           1857 	ld	hl, #(_title_tiles + 0x006c)
   0FDE 36 FF              1858 	ld	(hl), #0xff
   0FE0 21r9Cr09           1859 	ld	hl, #(_title_tiles + 0x006d)
   0FE3 36 00              1860 	ld	(hl), #0x00
   0FE5 21r9Dr09           1861 	ld	hl, #(_title_tiles + 0x006e)
   0FE8 36 FF              1862 	ld	(hl), #0xff
   0FEA 21r9Er09           1863 	ld	hl, #(_title_tiles + 0x006f)
   0FED 36 00              1864 	ld	(hl), #0x00
   0FEF 21r9Fr09           1865 	ld	hl, #(_title_tiles + 0x0070)
   0FF2 36 FF              1866 	ld	(hl), #0xff
   0FF4 21rA0r09           1867 	ld	hl, #(_title_tiles + 0x0071)
   0FF7 36 00              1868 	ld	(hl), #0x00
   0FF9 21rA1r09           1869 	ld	hl, #(_title_tiles + 0x0072)
   0FFC 36 FF              1870 	ld	(hl), #0xff
   0FFE 21rA2r09           1871 	ld	hl, #(_title_tiles + 0x0073)
   1001 36 00              1872 	ld	(hl), #0x00
   1003 21rA3r09           1873 	ld	hl, #(_title_tiles + 0x0074)
   1006 36 FF              1874 	ld	(hl), #0xff
   1008 21rA4r09           1875 	ld	hl, #(_title_tiles + 0x0075)
   100B 36 00              1876 	ld	(hl), #0x00
   100D 21rA5r09           1877 	ld	hl, #(_title_tiles + 0x0076)
   1010 36 FF              1878 	ld	(hl), #0xff
   1012 21rA6r09           1879 	ld	hl, #(_title_tiles + 0x0077)
   1015 36 00              1880 	ld	(hl), #0x00
   1017 21rA7r09           1881 	ld	hl, #(_title_tiles + 0x0078)
   101A 36 FF              1882 	ld	(hl), #0xff
   101C 21rA8r09           1883 	ld	hl, #(_title_tiles + 0x0079)
   101F 36 81              1884 	ld	(hl), #0x81
   1021 21rA9r09           1885 	ld	hl, #(_title_tiles + 0x007a)
   1024 36 FF              1886 	ld	(hl), #0xff
   1026 21rAAr09           1887 	ld	hl, #(_title_tiles + 0x007b)
   1029 36 7E              1888 	ld	(hl), #0x7e
   102B 21rABr09           1889 	ld	hl, #(_title_tiles + 0x007c)
   102E 36 FF              1890 	ld	(hl), #0xff
   1030 21rACr09           1891 	ld	hl, #(_title_tiles + 0x007d)
   1033 36 00              1892 	ld	(hl), #0x00
   1035 21rADr09           1893 	ld	hl, #(_title_tiles + 0x007e)
   1038 36 FF              1894 	ld	(hl), #0xff
   103A 21rAEr09           1895 	ld	hl, #(_title_tiles + 0x007f)
   103D 36 00              1896 	ld	(hl), #0x00
   103F 21rAFr09           1897 	ld	hl, #(_title_tiles + 0x0080)
   1042 36 FF              1898 	ld	(hl), #0xff
   1044 21rB0r09           1899 	ld	hl, #(_title_tiles + 0x0081)
   1047 36 08              1900 	ld	(hl), #0x08
   1049 21rB1r09           1901 	ld	hl, #(_title_tiles + 0x0082)
   104C 36 FF              1902 	ld	(hl), #0xff
   104E 21rB2r09           1903 	ld	hl, #(_title_tiles + 0x0083)
   1051 36 10              1904 	ld	(hl), #0x10
   1053 21rB3r09           1905 	ld	hl, #(_title_tiles + 0x0084)
   1056 36 FF              1906 	ld	(hl), #0xff
   1058 21rB4r09           1907 	ld	hl, #(_title_tiles + 0x0085)
   105B 36 10              1908 	ld	(hl), #0x10
   105D 21rB5r09           1909 	ld	hl, #(_title_tiles + 0x0086)
   1060 36 FF              1910 	ld	(hl), #0xff
   1062 21rB6r09           1911 	ld	hl, #(_title_tiles + 0x0087)
   1065 36 60              1912 	ld	(hl), #0x60
   1067 21rB7r09           1913 	ld	hl, #(_title_tiles + 0x0088)
   106A 36 FF              1914 	ld	(hl), #0xff
   106C 21rB8r09           1915 	ld	hl, #(_title_tiles + 0x0089)
   106F 36 80              1916 	ld	(hl), #0x80
   1071 21rB9r09           1917 	ld	hl, #(_title_tiles + 0x008a)
   1074 36 FF              1918 	ld	(hl), #0xff
   1076 21rBAr09           1919 	ld	hl, #(_title_tiles + 0x008b)
   1079 36 00              1920 	ld	(hl), #0x00
   107B 21rBBr09           1921 	ld	hl, #(_title_tiles + 0x008c)
   107E 36 FF              1922 	ld	(hl), #0xff
   1080 21rBCr09           1923 	ld	hl, #(_title_tiles + 0x008d)
   1083 36 00              1924 	ld	(hl), #0x00
   1085 21rBDr09           1925 	ld	hl, #(_title_tiles + 0x008e)
   1088 36 FF              1926 	ld	(hl), #0xff
   108A 21rBEr09           1927 	ld	hl, #(_title_tiles + 0x008f)
   108D 36 00              1928 	ld	(hl), #0x00
   108F 21rBFr09           1929 	ld	hl, #(_title_tiles + 0x0090)
   1092 36 00              1930 	ld	(hl), #0x00
   1094 21rC0r09           1931 	ld	hl, #(_title_tiles + 0x0091)
   1097 36 00              1932 	ld	(hl), #0x00
   1099 21rC1r09           1933 	ld	hl, #(_title_tiles + 0x0092)
   109C 36 00              1934 	ld	(hl), #0x00
   109E 21rC2r09           1935 	ld	hl, #(_title_tiles + 0x0093)
   10A1 36 00              1936 	ld	(hl), #0x00
   10A3 21rC3r09           1937 	ld	hl, #(_title_tiles + 0x0094)
   10A6 36 00              1938 	ld	(hl), #0x00
   10A8 21rC4r09           1939 	ld	hl, #(_title_tiles + 0x0095)
   10AB 36 00              1940 	ld	(hl), #0x00
   10AD 21rC5r09           1941 	ld	hl, #(_title_tiles + 0x0096)
   10B0 36 00              1942 	ld	(hl), #0x00
   10B2 21rC6r09           1943 	ld	hl, #(_title_tiles + 0x0097)
   10B5 36 00              1944 	ld	(hl), #0x00
   10B7 21rC7r09           1945 	ld	hl, #(_title_tiles + 0x0098)
   10BA 36 00              1946 	ld	(hl), #0x00
   10BC 21rC8r09           1947 	ld	hl, #(_title_tiles + 0x0099)
   10BF 36 00              1948 	ld	(hl), #0x00
   10C1 21rC9r09           1949 	ld	hl, #(_title_tiles + 0x009a)
   10C4 36 00              1950 	ld	(hl), #0x00
   10C6 21rCAr09           1951 	ld	hl, #(_title_tiles + 0x009b)
   10C9 36 00              1952 	ld	(hl), #0x00
   10CB 21rCBr09           1953 	ld	hl, #(_title_tiles + 0x009c)
   10CE 36 00              1954 	ld	(hl), #0x00
   10D0 21rCCr09           1955 	ld	hl, #(_title_tiles + 0x009d)
   10D3 36 00              1956 	ld	(hl), #0x00
   10D5 21rCDr09           1957 	ld	hl, #(_title_tiles + 0x009e)
   10D8 36 07              1958 	ld	(hl), #0x07
   10DA 21rCEr09           1959 	ld	hl, #(_title_tiles + 0x009f)
   10DD 36 00              1960 	ld	(hl), #0x00
                           1961 ;..\/tiles/bubbletiles.c:26: unsigned char bubble_tiles[] =
   10DF 21rCFr09           1962 	ld	hl, #_bubble_tiles
   10E2 36 00              1963 	ld	(hl), #0x00
   10E4 21rD0r09           1964 	ld	hl, #(_bubble_tiles + 0x0001)
   10E7 36 00              1965 	ld	(hl), #0x00
   10E9 21rD1r09           1966 	ld	hl, #(_bubble_tiles + 0x0002)
   10EC 36 03              1967 	ld	(hl), #0x03
   10EE 21rD2r09           1968 	ld	hl, #(_bubble_tiles + 0x0003)
   10F1 36 03              1969 	ld	(hl), #0x03
   10F3 21rD3r09           1970 	ld	hl, #(_bubble_tiles + 0x0004)
   10F6 36 0C              1971 	ld	(hl), #0x0c
   10F8 21rD4r09           1972 	ld	hl, #(_bubble_tiles + 0x0005)
   10FB 36 0F              1973 	ld	(hl), #0x0f
   10FD 21rD5r09           1974 	ld	hl, #(_bubble_tiles + 0x0006)
   1100 36 10              1975 	ld	(hl), #0x10
   1102 21rD6r09           1976 	ld	hl, #(_bubble_tiles + 0x0007)
   1105 36 1F              1977 	ld	(hl), #0x1f
   1107 21rD7r09           1978 	ld	hl, #(_bubble_tiles + 0x0008)
   110A 36 20              1979 	ld	(hl), #0x20
   110C 21rD8r09           1980 	ld	hl, #(_bubble_tiles + 0x0009)
   110F 36 3F              1981 	ld	(hl), #0x3f
   1111 21rD9r09           1982 	ld	hl, #(_bubble_tiles + 0x000a)
   1114 36 20              1983 	ld	(hl), #0x20
   1116 21rDAr09           1984 	ld	hl, #(_bubble_tiles + 0x000b)
   1119 36 3F              1985 	ld	(hl), #0x3f
   111B 21rDBr09           1986 	ld	hl, #(_bubble_tiles + 0x000c)
   111E 36 40              1987 	ld	(hl), #0x40
   1120 21rDCr09           1988 	ld	hl, #(_bubble_tiles + 0x000d)
   1123 36 7F              1989 	ld	(hl), #0x7f
   1125 21rDDr09           1990 	ld	hl, #(_bubble_tiles + 0x000e)
   1128 36 40              1991 	ld	(hl), #0x40
   112A 21rDEr09           1992 	ld	hl, #(_bubble_tiles + 0x000f)
   112D 36 7F              1993 	ld	(hl), #0x7f
   112F 21rDFr09           1994 	ld	hl, #(_bubble_tiles + 0x0010)
   1132 36 00              1995 	ld	(hl), #0x00
   1134 21rE0r09           1996 	ld	hl, #(_bubble_tiles + 0x0011)
   1137 36 00              1997 	ld	(hl), #0x00
   1139 21rE1r09           1998 	ld	hl, #(_bubble_tiles + 0x0012)
   113C 36 C0              1999 	ld	(hl), #0xc0
   113E 21rE2r09           2000 	ld	hl, #(_bubble_tiles + 0x0013)
   1141 36 C0              2001 	ld	(hl), #0xc0
   1143 21rE3r09           2002 	ld	hl, #(_bubble_tiles + 0x0014)
   1146 36 30              2003 	ld	(hl), #0x30
   1148 21rE4r09           2004 	ld	hl, #(_bubble_tiles + 0x0015)
   114B 36 F0              2005 	ld	(hl), #0xf0
   114D 21rE5r09           2006 	ld	hl, #(_bubble_tiles + 0x0016)
   1150 36 08              2007 	ld	(hl), #0x08
   1152 21rE6r09           2008 	ld	hl, #(_bubble_tiles + 0x0017)
   1155 36 F8              2009 	ld	(hl), #0xf8
   1157 21rE7r09           2010 	ld	hl, #(_bubble_tiles + 0x0018)
   115A 36 04              2011 	ld	(hl), #0x04
   115C 21rE8r09           2012 	ld	hl, #(_bubble_tiles + 0x0019)
   115F 36 FC              2013 	ld	(hl), #0xfc
   1161 21rE9r09           2014 	ld	hl, #(_bubble_tiles + 0x001a)
   1164 36 04              2015 	ld	(hl), #0x04
   1166 21rEAr09           2016 	ld	hl, #(_bubble_tiles + 0x001b)
   1169 36 FC              2017 	ld	(hl), #0xfc
   116B 21rEBr09           2018 	ld	hl, #(_bubble_tiles + 0x001c)
   116E 36 02              2019 	ld	(hl), #0x02
   1170 21rECr09           2020 	ld	hl, #(_bubble_tiles + 0x001d)
   1173 36 FE              2021 	ld	(hl), #0xfe
   1175 21rEDr09           2022 	ld	hl, #(_bubble_tiles + 0x001e)
   1178 36 02              2023 	ld	(hl), #0x02
   117A 21rEEr09           2024 	ld	hl, #(_bubble_tiles + 0x001f)
   117D 36 FE              2025 	ld	(hl), #0xfe
   117F 21rEFr09           2026 	ld	hl, #(_bubble_tiles + 0x0020)
   1182 36 40              2027 	ld	(hl), #0x40
   1184 21rF0r09           2028 	ld	hl, #(_bubble_tiles + 0x0021)
   1187 36 7F              2029 	ld	(hl), #0x7f
   1189 21rF1r09           2030 	ld	hl, #(_bubble_tiles + 0x0022)
   118C 36 40              2031 	ld	(hl), #0x40
   118E 21rF2r09           2032 	ld	hl, #(_bubble_tiles + 0x0023)
   1191 36 7F              2033 	ld	(hl), #0x7f
   1193 21rF3r09           2034 	ld	hl, #(_bubble_tiles + 0x0024)
   1196 36 20              2035 	ld	(hl), #0x20
   1198 21rF4r09           2036 	ld	hl, #(_bubble_tiles + 0x0025)
   119B 36 3F              2037 	ld	(hl), #0x3f
   119D 21rF5r09           2038 	ld	hl, #(_bubble_tiles + 0x0026)
   11A0 36 20              2039 	ld	(hl), #0x20
   11A2 21rF6r09           2040 	ld	hl, #(_bubble_tiles + 0x0027)
   11A5 36 3F              2041 	ld	(hl), #0x3f
   11A7 21rF7r09           2042 	ld	hl, #(_bubble_tiles + 0x0028)
   11AA 36 10              2043 	ld	(hl), #0x10
   11AC 21rF8r09           2044 	ld	hl, #(_bubble_tiles + 0x0029)
   11AF 36 1F              2045 	ld	(hl), #0x1f
   11B1 21rF9r09           2046 	ld	hl, #(_bubble_tiles + 0x002a)
   11B4 36 0C              2047 	ld	(hl), #0x0c
   11B6 21rFAr09           2048 	ld	hl, #(_bubble_tiles + 0x002b)
   11B9 36 0F              2049 	ld	(hl), #0x0f
   11BB 21rFBr09           2050 	ld	hl, #(_bubble_tiles + 0x002c)
   11BE 36 03              2051 	ld	(hl), #0x03
   11C0 21rFCr09           2052 	ld	hl, #(_bubble_tiles + 0x002d)
   11C3 36 03              2053 	ld	(hl), #0x03
   11C5 21rFDr09           2054 	ld	hl, #(_bubble_tiles + 0x002e)
   11C8 36 00              2055 	ld	(hl), #0x00
   11CA 21rFEr09           2056 	ld	hl, #(_bubble_tiles + 0x002f)
   11CD 36 00              2057 	ld	(hl), #0x00
   11CF 21rFFr09           2058 	ld	hl, #(_bubble_tiles + 0x0030)
   11D2 36 02              2059 	ld	(hl), #0x02
   11D4 21r00r0A           2060 	ld	hl, #(_bubble_tiles + 0x0031)
   11D7 36 FE              2061 	ld	(hl), #0xfe
   11D9 21r01r0A           2062 	ld	hl, #(_bubble_tiles + 0x0032)
   11DC 36 02              2063 	ld	(hl), #0x02
   11DE 21r02r0A           2064 	ld	hl, #(_bubble_tiles + 0x0033)
   11E1 36 FE              2065 	ld	(hl), #0xfe
   11E3 21r03r0A           2066 	ld	hl, #(_bubble_tiles + 0x0034)
   11E6 36 04              2067 	ld	(hl), #0x04
   11E8 21r04r0A           2068 	ld	hl, #(_bubble_tiles + 0x0035)
   11EB 36 FC              2069 	ld	(hl), #0xfc
   11ED 21r05r0A           2070 	ld	hl, #(_bubble_tiles + 0x0036)
   11F0 36 04              2071 	ld	(hl), #0x04
   11F2 21r06r0A           2072 	ld	hl, #(_bubble_tiles + 0x0037)
   11F5 36 FC              2073 	ld	(hl), #0xfc
   11F7 21r07r0A           2074 	ld	hl, #(_bubble_tiles + 0x0038)
   11FA 36 08              2075 	ld	(hl), #0x08
   11FC 21r08r0A           2076 	ld	hl, #(_bubble_tiles + 0x0039)
   11FF 36 F8              2077 	ld	(hl), #0xf8
   1201 21r09r0A           2078 	ld	hl, #(_bubble_tiles + 0x003a)
   1204 36 30              2079 	ld	(hl), #0x30
   1206 21r0Ar0A           2080 	ld	hl, #(_bubble_tiles + 0x003b)
   1209 36 F0              2081 	ld	(hl), #0xf0
   120B 21r0Br0A           2082 	ld	hl, #(_bubble_tiles + 0x003c)
   120E 36 C0              2083 	ld	(hl), #0xc0
   1210 21r0Cr0A           2084 	ld	hl, #(_bubble_tiles + 0x003d)
   1213 36 C0              2085 	ld	(hl), #0xc0
   1215 21r0Dr0A           2086 	ld	hl, #(_bubble_tiles + 0x003e)
   1218 36 00              2087 	ld	(hl), #0x00
   121A 21r0Er0A           2088 	ld	hl, #(_bubble_tiles + 0x003f)
   121D 36 00              2089 	ld	(hl), #0x00
   121F 21r0Fr0A           2090 	ld	hl, #(_bubble_tiles + 0x0040)
   1222 36 07              2091 	ld	(hl), #0x07
   1224 21r10r0A           2092 	ld	hl, #(_bubble_tiles + 0x0041)
   1227 36 07              2093 	ld	(hl), #0x07
   1229 21r11r0A           2094 	ld	hl, #(_bubble_tiles + 0x0042)
   122C 36 1F              2095 	ld	(hl), #0x1f
   122E 21r12r0A           2096 	ld	hl, #(_bubble_tiles + 0x0043)
   1231 36 18              2097 	ld	(hl), #0x18
   1233 21r13r0A           2098 	ld	hl, #(_bubble_tiles + 0x0044)
   1236 36 3F              2099 	ld	(hl), #0x3f
   1238 21r14r0A           2100 	ld	hl, #(_bubble_tiles + 0x0045)
   123B 36 20              2101 	ld	(hl), #0x20
   123D 21r15r0A           2102 	ld	hl, #(_bubble_tiles + 0x0046)
   1240 36 7F              2103 	ld	(hl), #0x7f
   1242 21r16r0A           2104 	ld	hl, #(_bubble_tiles + 0x0047)
   1245 36 40              2105 	ld	(hl), #0x40
   1247 21r17r0A           2106 	ld	hl, #(_bubble_tiles + 0x0048)
   124A 36 7F              2107 	ld	(hl), #0x7f
   124C 21r18r0A           2108 	ld	hl, #(_bubble_tiles + 0x0049)
   124F 36 40              2109 	ld	(hl), #0x40
   1251 21r19r0A           2110 	ld	hl, #(_bubble_tiles + 0x004a)
   1254 36 FF              2111 	ld	(hl), #0xff
   1256 21r1Ar0A           2112 	ld	hl, #(_bubble_tiles + 0x004b)
   1259 36 80              2113 	ld	(hl), #0x80
   125B 21r1Br0A           2114 	ld	hl, #(_bubble_tiles + 0x004c)
   125E 36 FF              2115 	ld	(hl), #0xff
   1260 21r1Cr0A           2116 	ld	hl, #(_bubble_tiles + 0x004d)
   1263 36 80              2117 	ld	(hl), #0x80
   1265 21r1Dr0A           2118 	ld	hl, #(_bubble_tiles + 0x004e)
   1268 36 FF              2119 	ld	(hl), #0xff
   126A 21r1Er0A           2120 	ld	hl, #(_bubble_tiles + 0x004f)
   126D 36 80              2121 	ld	(hl), #0x80
   126F 21r1Fr0A           2122 	ld	hl, #(_bubble_tiles + 0x0050)
   1272 36 E0              2123 	ld	(hl), #0xe0
   1274 21r20r0A           2124 	ld	hl, #(_bubble_tiles + 0x0051)
   1277 36 E0              2125 	ld	(hl), #0xe0
   1279 21r21r0A           2126 	ld	hl, #(_bubble_tiles + 0x0052)
   127C 36 F8              2127 	ld	(hl), #0xf8
   127E 21r22r0A           2128 	ld	hl, #(_bubble_tiles + 0x0053)
   1281 36 18              2129 	ld	(hl), #0x18
   1283 21r23r0A           2130 	ld	hl, #(_bubble_tiles + 0x0054)
   1286 36 FC              2131 	ld	(hl), #0xfc
   1288 21r24r0A           2132 	ld	hl, #(_bubble_tiles + 0x0055)
   128B 36 04              2133 	ld	(hl), #0x04
   128D 21r25r0A           2134 	ld	hl, #(_bubble_tiles + 0x0056)
   1290 36 FE              2135 	ld	(hl), #0xfe
   1292 21r26r0A           2136 	ld	hl, #(_bubble_tiles + 0x0057)
   1295 36 02              2137 	ld	(hl), #0x02
   1297 21r27r0A           2138 	ld	hl, #(_bubble_tiles + 0x0058)
   129A 36 FE              2139 	ld	(hl), #0xfe
   129C 21r28r0A           2140 	ld	hl, #(_bubble_tiles + 0x0059)
   129F 36 02              2141 	ld	(hl), #0x02
   12A1 21r29r0A           2142 	ld	hl, #(_bubble_tiles + 0x005a)
   12A4 36 FF              2143 	ld	(hl), #0xff
   12A6 21r2Ar0A           2144 	ld	hl, #(_bubble_tiles + 0x005b)
   12A9 36 01              2145 	ld	(hl), #0x01
   12AB 21r2Br0A           2146 	ld	hl, #(_bubble_tiles + 0x005c)
   12AE 36 FF              2147 	ld	(hl), #0xff
   12B0 21r2Cr0A           2148 	ld	hl, #(_bubble_tiles + 0x005d)
   12B3 36 01              2149 	ld	(hl), #0x01
   12B5 21r2Dr0A           2150 	ld	hl, #(_bubble_tiles + 0x005e)
   12B8 36 FF              2151 	ld	(hl), #0xff
   12BA 21r2Er0A           2152 	ld	hl, #(_bubble_tiles + 0x005f)
   12BD 36 01              2153 	ld	(hl), #0x01
   12BF 21r2Fr0A           2154 	ld	hl, #(_bubble_tiles + 0x0060)
   12C2 36 FF              2155 	ld	(hl), #0xff
   12C4 21r30r0A           2156 	ld	hl, #(_bubble_tiles + 0x0061)
   12C7 36 80              2157 	ld	(hl), #0x80
   12C9 21r31r0A           2158 	ld	hl, #(_bubble_tiles + 0x0062)
   12CC 36 FF              2159 	ld	(hl), #0xff
   12CE 21r32r0A           2160 	ld	hl, #(_bubble_tiles + 0x0063)
   12D1 36 80              2161 	ld	(hl), #0x80
   12D3 21r33r0A           2162 	ld	hl, #(_bubble_tiles + 0x0064)
   12D6 36 FF              2163 	ld	(hl), #0xff
   12D8 21r34r0A           2164 	ld	hl, #(_bubble_tiles + 0x0065)
   12DB 36 80              2165 	ld	(hl), #0x80
   12DD 21r35r0A           2166 	ld	hl, #(_bubble_tiles + 0x0066)
   12E0 36 7F              2167 	ld	(hl), #0x7f
   12E2 21r36r0A           2168 	ld	hl, #(_bubble_tiles + 0x0067)
   12E5 36 40              2169 	ld	(hl), #0x40
   12E7 21r37r0A           2170 	ld	hl, #(_bubble_tiles + 0x0068)
   12EA 36 7F              2171 	ld	(hl), #0x7f
   12EC 21r38r0A           2172 	ld	hl, #(_bubble_tiles + 0x0069)
   12EF 36 40              2173 	ld	(hl), #0x40
   12F1 21r39r0A           2174 	ld	hl, #(_bubble_tiles + 0x006a)
   12F4 36 3F              2175 	ld	(hl), #0x3f
   12F6 21r3Ar0A           2176 	ld	hl, #(_bubble_tiles + 0x006b)
   12F9 36 20              2177 	ld	(hl), #0x20
   12FB 21r3Br0A           2178 	ld	hl, #(_bubble_tiles + 0x006c)
   12FE 36 1F              2179 	ld	(hl), #0x1f
   1300 21r3Cr0A           2180 	ld	hl, #(_bubble_tiles + 0x006d)
   1303 36 18              2181 	ld	(hl), #0x18
   1305 21r3Dr0A           2182 	ld	hl, #(_bubble_tiles + 0x006e)
   1308 36 07              2183 	ld	(hl), #0x07
   130A 21r3Er0A           2184 	ld	hl, #(_bubble_tiles + 0x006f)
   130D 36 07              2185 	ld	(hl), #0x07
   130F 21r3Fr0A           2186 	ld	hl, #(_bubble_tiles + 0x0070)
   1312 36 FF              2187 	ld	(hl), #0xff
   1314 21r40r0A           2188 	ld	hl, #(_bubble_tiles + 0x0071)
   1317 36 01              2189 	ld	(hl), #0x01
   1319 21r41r0A           2190 	ld	hl, #(_bubble_tiles + 0x0072)
   131C 36 FF              2191 	ld	(hl), #0xff
   131E 21r42r0A           2192 	ld	hl, #(_bubble_tiles + 0x0073)
   1321 36 01              2193 	ld	(hl), #0x01
   1323 21r43r0A           2194 	ld	hl, #(_bubble_tiles + 0x0074)
   1326 36 FF              2195 	ld	(hl), #0xff
   1328 21r44r0A           2196 	ld	hl, #(_bubble_tiles + 0x0075)
   132B 36 01              2197 	ld	(hl), #0x01
   132D 21r45r0A           2198 	ld	hl, #(_bubble_tiles + 0x0076)
   1330 36 FE              2199 	ld	(hl), #0xfe
   1332 21r46r0A           2200 	ld	hl, #(_bubble_tiles + 0x0077)
   1335 36 02              2201 	ld	(hl), #0x02
   1337 21r47r0A           2202 	ld	hl, #(_bubble_tiles + 0x0078)
   133A 36 FE              2203 	ld	(hl), #0xfe
   133C 21r48r0A           2204 	ld	hl, #(_bubble_tiles + 0x0079)
   133F 36 02              2205 	ld	(hl), #0x02
   1341 21r49r0A           2206 	ld	hl, #(_bubble_tiles + 0x007a)
   1344 36 FC              2207 	ld	(hl), #0xfc
   1346 21r4Ar0A           2208 	ld	hl, #(_bubble_tiles + 0x007b)
   1349 36 04              2209 	ld	(hl), #0x04
   134B 21r4Br0A           2210 	ld	hl, #(_bubble_tiles + 0x007c)
   134E 36 F8              2211 	ld	(hl), #0xf8
   1350 21r4Cr0A           2212 	ld	hl, #(_bubble_tiles + 0x007d)
   1353 36 18              2213 	ld	(hl), #0x18
   1355 21r4Dr0A           2214 	ld	hl, #(_bubble_tiles + 0x007e)
   1358 36 E0              2215 	ld	(hl), #0xe0
   135A 21r4Er0A           2216 	ld	hl, #(_bubble_tiles + 0x007f)
   135D 36 E0              2217 	ld	(hl), #0xe0
                           2218 ;--------------------------------------------------------
                           2219 ; Home
                           2220 ;--------------------------------------------------------
                           2221 	.area _HOME
                           2222 	.area _HOME
                           2223 ;--------------------------------------------------------
                           2224 ; code
                           2225 ;--------------------------------------------------------
                           2226 	.area _CODE
                           2227 ;..\/input.c:5: BOOLEAN key_down(UINT8 key)
                           2228 ;	---------------------------------
                           2229 ; Function key_down
                           2230 ; ---------------------------------
   0000                    2231 _key_down::
                           2232 ;..\/input.c:7: if(!(previous_keys & key) && (joypad() & key))
   0000 21r00r00           2233 	ld	hl, #_previous_keys
   0003 7E                 2234 	ld	a, (hl)
   0004 F8 02              2235 	ldhl	sp,	#2
   0006 A6                 2236 	and	a,(hl)
   0007 20 0A              2237 	jr	NZ,00102$
   0009 CDr00r00           2238 	call	_joypad
   000C 7B                 2239 	ld	a, e
   000D F8 02              2240 	ldhl	sp,	#2
   000F A6                 2241 	and	a,(hl)
                           2242 ;..\/input.c:9: return 1;
                           2243 ;..\/input.c:13: return 0;
   0010 1E 01              2244 	ld	e, #0x01
   0012 C0                 2245 	ret	NZ
   0013                    2246 00102$:
   0013 1E 00              2247 	ld	e, #0x00
                           2248 ;..\/input.c:15: }
   0015 C9                 2249 	ret
                           2250 ;..\/input.c:17: BOOLEAN key_up(UINT8 key)
                           2251 ;	---------------------------------
                           2252 ; Function key_up
                           2253 ; ---------------------------------
   0016                    2254 _key_up::
                           2255 ;..\/input.c:19: if((previous_keys & key) && !(joypad() & key))
   0016 21r00r00           2256 	ld	hl, #_previous_keys
   0019 7E                 2257 	ld	a, (hl)
   001A F8 02              2258 	ldhl	sp,	#2
   001C A6                 2259 	and	a,(hl)
   001D 28 0A              2260 	jr	Z,00102$
   001F CDr00r00           2261 	call	_joypad
   0022 7B                 2262 	ld	a, e
   0023 F8 02              2263 	ldhl	sp,	#2
   0025 A6                 2264 	and	a,(hl)
                           2265 ;..\/input.c:21: return 1;
                           2266 ;..\/input.c:25: return 0;
   0026 1E 01              2267 	ld	e, #0x01
   0028 C8                 2268 	ret	Z
   0029                    2269 00102$:
   0029 1E 00              2270 	ld	e, #0x00
                           2271 ;..\/input.c:27: }
   002B C9                 2272 	ret
                           2273 ;..\/menus.c:8: void menu_LCD()
                           2274 ;	---------------------------------
                           2275 ; Function menu_LCD
                           2276 ; ---------------------------------
   002C                    2277 _menu_LCD::
                           2278 ;..\/menus.c:10: if(LYC_REG == 143)
   002C F0r00              2279 	ldh	a, (_LYC_REG+0)
   002E D6 8F              2280 	sub	a, #0x8f
   0030 3E 01              2281 	ld	a, #0x01
   0032 28 01              2282 	jr	Z,00112$
   0034 AF                 2283 	xor	a, a
   0035                    2284 00112$:
   0035 4F                 2285 	ld	c, a
                           2286 ;..\/menus.c:12: SHOW_WIN;
   0036 F0r00              2287 	ldh	a, (_LCDC_REG+0)
   0038 47                 2288 	ld	b, a
                           2289 ;..\/menus.c:10: if(LYC_REG == 143)
   0039 79                 2290 	ld	a, c
   003A B7                 2291 	or	a, a
   003B 28 0E              2292 	jr	Z,00102$
                           2293 ;..\/menus.c:12: SHOW_WIN;
   003D 78                 2294 	ld	a, b
   003E F6 20              2295 	or	a, #0x20
   0040 E0r00              2296 	ldh	(_LCDC_REG+0),a
                           2297 ;..\/menus.c:13: LYC_REG = win_top + 23;
   0042 21r02r00           2298 	ld	hl, #_win_top
   0045 7E                 2299 	ld	a, (hl)
   0046 C6 17              2300 	add	a, #0x17
   0048 E0r00              2301 	ldh	(_LYC_REG+0),a
   004A C9                 2302 	ret
   004B                    2303 00102$:
                           2304 ;..\/menus.c:17: HIDE_WIN;
   004B 78                 2305 	ld	a, b
   004C E6 DF              2306 	and	a, #0xdf
   004E E0r00              2307 	ldh	(_LCDC_REG+0),a
                           2308 ;..\/menus.c:18: LYC_REG = 143;
   0050 3E 8F              2309 	ld	a, #0x8f
   0052 E0r00              2310 	ldh	(_LYC_REG+0),a
                           2311 ;..\/menus.c:20: }
   0054 C9                 2312 	ret
                           2313 ;..\/menus.c:22: void menu_VBL()
                           2314 ;	---------------------------------
                           2315 ; Function menu_VBL
                           2316 ; ---------------------------------
   0055                    2317 _menu_VBL::
                           2318 ;..\/menus.c:24: SHOW_WIN;
   0055 F0r00              2319 	ldh	a, (_LCDC_REG+0)
   0057 F6 20              2320 	or	a, #0x20
   0059 E0r00              2321 	ldh	(_LCDC_REG+0),a
                           2322 ;..\/menus.c:25: }
   005B C9                 2323 	ret
                           2324 ;..\/menus.c:27: void menu_update()
                           2325 ;	---------------------------------
                           2326 ; Function menu_update
                           2327 ; ---------------------------------
   005C                    2328 _menu_update::
                           2329 ;..\/menus.c:29: menu_refresh++;
   005C 21r01r00           2330 	ld	hl, #_menu_refresh
   005F 34                 2331 	inc	(hl)
                           2332 ;..\/menus.c:30: scroll_bkg(0, 1);
   0060 3E 01              2333 	ld	a, #0x01
   0062 F5                 2334 	push	af
   0063 33                 2335 	inc	sp
   0064 AF                 2336 	xor	a, a
   0065 F5                 2337 	push	af
   0066 33                 2338 	inc	sp
   0067 CDr00r00           2339 	call	_scroll_bkg
   006A E8 02              2340 	add	sp, #2
                           2341 ;..\/menus.c:31: if(menu_refresh + 1 & 2)
   006C 21r01r00           2342 	ld	hl, #_menu_refresh
   006F 4E                 2343 	ld	c, (hl)
   0070 06 00              2344 	ld	b, #0x00
   0072 03                 2345 	inc	bc
   0073 CB 49              2346 	bit	1, c
   0075 C8                 2347 	ret	Z
                           2348 ;..\/menus.c:33: if(menu_refresh + 1 < 2 * 8)
   0076 79                 2349 	ld	a, c
   0077 D6 10              2350 	sub	a, #0x10
   0079 78                 2351 	ld	a, b
   007A 17                 2352 	rla
   007B 3F                 2353 	ccf
   007C 1F                 2354 	rra
   007D DE 80              2355 	sbc	a, #0x80
   007F 30 06              2356 	jr	NC,00105$
                           2357 ;..\/menus.c:35: win_top++;
   0081 21r02r00           2358 	ld	hl, #_win_top
   0084 34                 2359 	inc	(hl)
   0085 18 16              2360 	jr	00106$
   0087                    2361 00105$:
                           2362 ;..\/menus.c:37: else if(menu_refresh + 1 < 2 * 16)
   0087 79                 2363 	ld	a, c
   0088 D6 20              2364 	sub	a, #0x20
   008A 78                 2365 	ld	a, b
   008B 17                 2366 	rla
   008C 3F                 2367 	ccf
   008D 1F                 2368 	rra
   008E DE 80              2369 	sbc	a, #0x80
   0090 30 06              2370 	jr	NC,00102$
                           2371 ;..\/menus.c:39: win_top--;
   0092 21r02r00           2372 	ld	hl, #_win_top
   0095 35                 2373 	dec	(hl)
   0096 18 05              2374 	jr	00106$
   0098                    2375 00102$:
                           2376 ;..\/menus.c:43: menu_refresh = 0;
   0098 21r01r00           2377 	ld	hl, #_menu_refresh
   009B 36 00              2378 	ld	(hl), #0x00
   009D                    2379 00106$:
                           2380 ;..\/menus.c:45: move_win(7, win_top);
   009D 21r02r00           2381 	ld	hl, #_win_top
   00A0 7E                 2382 	ld	a, (hl)
   00A1 F5                 2383 	push	af
   00A2 33                 2384 	inc	sp
   00A3 3E 07              2385 	ld	a, #0x07
   00A5 F5                 2386 	push	af
   00A6 33                 2387 	inc	sp
   00A7 CDr00r00           2388 	call	_move_win
   00AA E8 02              2389 	add	sp, #2
                           2390 ;..\/menus.c:47: }
   00AC C9                 2391 	ret
                           2392 ;..\/menus.c:49: void selection_update()
                           2393 ;	---------------------------------
                           2394 ; Function selection_update
                           2395 ; ---------------------------------
   00AD                    2396 _selection_update::
                           2397 ;..\/menus.c:51: if(key_down(J_LEFT))    
   00AD 3E 02              2398 	ld	a, #0x02
   00AF F5                 2399 	push	af
   00B0 33                 2400 	inc	sp
   00B1 CDr00r00           2401 	call	_key_down
   00B4 33                 2402 	inc	sp
   00B5 7B                 2403 	ld	a, e
   00B6 B7                 2404 	or	a, a
   00B7 CArFAr00           2405 	jp	Z, 00109$
                           2406 ;..\/menus.c:53: if(selected > 1)
   00BA 3E 01              2407 	ld	a, #0x01
   00BC 21r03r00           2408 	ld	hl, #_selected
   00BF 96                 2409 	sub	a, (hl)
   00C0 D2r55r01           2410 	jp	NC, 00110$
                           2411 ;..\/menus.c:55: selected--;
   00C3 35                 2412 	dec	(hl)
                           2413 ;..\/menus.c:56: selection_bkg[165] = 0x2B;
   00C4 21rAAr00           2414 	ld	hl, #(_selection_bkg + 0x00a5)
   00C7 36 2B              2415 	ld	(hl), #0x2b
                           2416 ;..\/menus.c:57: selection_bkg[172] = 0x04 + selected / 10;
   00C9 21r03r00           2417 	ld	hl, #_selected
   00CC 4E                 2418 	ld	c, (hl)
   00CD 06 00              2419 	ld	b, #0x00
   00CF 21 0A 00           2420 	ld	hl, #0x000a
   00D2 E5                 2421 	push	hl
   00D3 C5                 2422 	push	bc
   00D4 CDr00r00           2423 	call	__divsint
   00D7 E8 04              2424 	add	sp, #4
   00D9 7B                 2425 	ld	a, e
   00DA C6 04              2426 	add	a, #0x04
   00DC 21rB1r00           2427 	ld	hl, #(_selection_bkg + 0x00ac)
   00DF 77                 2428 	ld	(hl), a
                           2429 ;..\/menus.c:58: selection_bkg[173] = 0x04 + selected % 10;
   00E0 21r03r00           2430 	ld	hl, #_selected
   00E3 4E                 2431 	ld	c, (hl)
   00E4 06 00              2432 	ld	b, #0x00
   00E6 21 0A 00           2433 	ld	hl, #0x000a
   00E9 E5                 2434 	push	hl
   00EA C5                 2435 	push	bc
   00EB CDr00r00           2436 	call	__modsint
   00EE E8 04              2437 	add	sp, #4
   00F0 7B                 2438 	ld	a, e
   00F1 C6 04              2439 	add	a, #0x04
   00F3 21rB2r00           2440 	ld	hl, #(_selection_bkg + 0x00ad)
   00F6 77                 2441 	ld	(hl), a
   00F7 C3r55r01           2442 	jp	00110$
   00FA                    2443 00109$:
                           2444 ;..\/menus.c:61: else if(key_down(J_RIGHT))    
   00FA 3E 01              2445 	ld	a, #0x01
   00FC F5                 2446 	push	af
   00FD 33                 2447 	inc	sp
   00FE CDr00r00           2448 	call	_key_down
   0101 33                 2449 	inc	sp
   0102 7B                 2450 	ld	a, e
   0103 B7                 2451 	or	a, a
   0104 CAr4Br01           2452 	jp	Z, 00106$
                           2453 ;..\/menus.c:63: if(selected < unlocked)
   0107 21r03r00           2454 	ld	hl, #_selected
   010A 7E                 2455 	ld	a, (hl)
   010B 21r04r00           2456 	ld	hl, #_unlocked
   010E 96                 2457 	sub	a, (hl)
   010F D2r55r01           2458 	jp	NC, 00110$
                           2459 ;..\/menus.c:65: selected++;
   0112 21r03r00           2460 	ld	hl, #_selected
   0115 34                 2461 	inc	(hl)
                           2462 ;..\/menus.c:66: selection_bkg[174] = 0x2D;
   0116 21rB3r00           2463 	ld	hl, #(_selection_bkg + 0x00ae)
   0119 36 2D              2464 	ld	(hl), #0x2d
                           2465 ;..\/menus.c:67: selection_bkg[172] = 0x04 + selected / 10;
   011B 21r03r00           2466 	ld	hl, #_selected
   011E 4E                 2467 	ld	c, (hl)
   011F 06 00              2468 	ld	b, #0x00
   0121 21 0A 00           2469 	ld	hl, #0x000a
   0124 E5                 2470 	push	hl
   0125 C5                 2471 	push	bc
   0126 CDr00r00           2472 	call	__divsint
   0129 E8 04              2473 	add	sp, #4
   012B 7B                 2474 	ld	a, e
   012C C6 04              2475 	add	a, #0x04
   012E 21rB1r00           2476 	ld	hl, #(_selection_bkg + 0x00ac)
   0131 77                 2477 	ld	(hl), a
                           2478 ;..\/menus.c:68: selection_bkg[173] = 0x04 + selected % 10;
   0132 21r03r00           2479 	ld	hl, #_selected
   0135 4E                 2480 	ld	c, (hl)
   0136 06 00              2481 	ld	b, #0x00
   0138 21 0A 00           2482 	ld	hl, #0x000a
   013B E5                 2483 	push	hl
   013C C5                 2484 	push	bc
   013D CDr00r00           2485 	call	__modsint
   0140 E8 04              2486 	add	sp, #4
   0142 7B                 2487 	ld	a, e
   0143 C6 04              2488 	add	a, #0x04
   0145 21rB2r00           2489 	ld	hl, #(_selection_bkg + 0x00ad)
   0148 77                 2490 	ld	(hl), a
   0149 18 0A              2491 	jr	00110$
   014B                    2492 00106$:
                           2493 ;..\/menus.c:73: selection_bkg[165] = 0x2A;
   014B 21rAAr00           2494 	ld	hl, #(_selection_bkg + 0x00a5)
   014E 36 2A              2495 	ld	(hl), #0x2a
                           2496 ;..\/menus.c:74: selection_bkg[174] = 0x2C;
   0150 21rB3r00           2497 	ld	hl, #(_selection_bkg + 0x00ae)
   0153 36 2C              2498 	ld	(hl), #0x2c
   0155                    2499 00110$:
                           2500 ;..\/menus.c:76: set_bkg_tiles(0, 0, 20, 18, selection_bkg);
   0155 21r05r00           2501 	ld	hl, #_selection_bkg
   0158 E5                 2502 	push	hl
   0159 3E 12              2503 	ld	a, #0x12
   015B F5                 2504 	push	af
   015C 33                 2505 	inc	sp
   015D 3E 14              2506 	ld	a, #0x14
   015F F5                 2507 	push	af
   0160 33                 2508 	inc	sp
   0161 AF                 2509 	xor	a, a
   0162 F5                 2510 	push	af
   0163 33                 2511 	inc	sp
   0164 AF                 2512 	xor	a, a
   0165 F5                 2513 	push	af
   0166 33                 2514 	inc	sp
   0167 CDr00r00           2515 	call	_set_bkg_tiles
   016A E8 06              2516 	add	sp, #6
                           2517 ;..\/menus.c:77: }
   016C C9                 2518 	ret
                           2519 ;..\/game.c:64: void game_LCD()
                           2520 ;	---------------------------------
                           2521 ; Function game_LCD
                           2522 ; ---------------------------------
   016D                    2523 _game_LCD::
                           2524 ;..\/game.c:66: if(LYC_REG == 143)
   016D F0r00              2525 	ldh	a, (_LYC_REG+0)
   016F D6 8F              2526 	sub	a, #0x8f
   0171 3E 01              2527 	ld	a, #0x01
   0173 28 01              2528 	jr	Z,00112$
   0175 AF                 2529 	xor	a, a
   0176                    2530 00112$:
   0176 4F                 2531 	ld	c, a
                           2532 ;..\/game.c:68: SHOW_WIN;
   0177 F0r00              2533 	ldh	a, (_LCDC_REG+0)
   0179 47                 2534 	ld	b, a
                           2535 ;..\/game.c:66: if(LYC_REG == 143)
   017A 79                 2536 	ld	a, c
   017B B7                 2537 	or	a, a
   017C 28 0A              2538 	jr	Z,00102$
                           2539 ;..\/game.c:68: SHOW_WIN;
   017E 78                 2540 	ld	a, b
   017F F6 20              2541 	or	a, #0x20
   0181 E0r00              2542 	ldh	(_LCDC_REG+0),a
                           2543 ;..\/game.c:69: LYC_REG = 9;
   0183 3E 09              2544 	ld	a, #0x09
   0185 E0r00              2545 	ldh	(_LYC_REG+0),a
   0187 C9                 2546 	ret
   0188                    2547 00102$:
                           2548 ;..\/game.c:73: HIDE_WIN;
   0188 78                 2549 	ld	a, b
   0189 E6 DF              2550 	and	a, #0xdf
   018B E0r00              2551 	ldh	(_LCDC_REG+0),a
                           2552 ;..\/game.c:74: SHOW_SPRITES;
   018D F0r00              2553 	ldh	a, (_LCDC_REG+0)
   018F F6 02              2554 	or	a, #0x02
   0191 E0r00              2555 	ldh	(_LCDC_REG+0),a
                           2556 ;..\/game.c:75: LYC_REG = 143; //show window on the last H-Blank, if it's only done in the V-Blank some artifacts appear on screen
   0193 3E 8F              2557 	ld	a, #0x8f
   0195 E0r00              2558 	ldh	(_LYC_REG+0),a
                           2559 ;..\/game.c:77: }
   0197 C9                 2560 	ret
   0198                    2561 _title_bkg:
   0198 2F                 2562 	.db #0x2f	; 47
   0199 30                 2563 	.db #0x30	; 48	'0'
   019A 31                 2564 	.db #0x31	; 49	'1'
   019B 2E                 2565 	.db #0x2e	; 46
   019C 2E                 2566 	.db #0x2e	; 46
   019D 2E                 2567 	.db #0x2e	; 46
   019E 2E                 2568 	.db #0x2e	; 46
   019F 2E                 2569 	.db #0x2e	; 46
   01A0 2E                 2570 	.db #0x2e	; 46
   01A1 2E                 2571 	.db #0x2e	; 46
   01A2 2E                 2572 	.db #0x2e	; 46
   01A3 2E                 2573 	.db #0x2e	; 46
   01A4 2E                 2574 	.db #0x2e	; 46
   01A5 2E                 2575 	.db #0x2e	; 46
   01A6 2E                 2576 	.db #0x2e	; 46
   01A7 2E                 2577 	.db #0x2e	; 46
   01A8 2E                 2578 	.db #0x2e	; 46
   01A9 2E                 2579 	.db #0x2e	; 46
   01AA 2E                 2580 	.db #0x2e	; 46
   01AB 2E                 2581 	.db #0x2e	; 46
   01AC 32                 2582 	.db #0x32	; 50	'2'
   01AD 37                 2583 	.db #0x37	; 55	'7'
   01AE 33                 2584 	.db #0x33	; 51	'3'
   01AF 2E                 2585 	.db #0x2e	; 46
   01B0 2E                 2586 	.db #0x2e	; 46
   01B1 2E                 2587 	.db #0x2e	; 46
   01B2 2E                 2588 	.db #0x2e	; 46
   01B3 2E                 2589 	.db #0x2e	; 46
   01B4 2E                 2590 	.db #0x2e	; 46
   01B5 2E                 2591 	.db #0x2e	; 46
   01B6 2E                 2592 	.db #0x2e	; 46
   01B7 2E                 2593 	.db #0x2e	; 46
   01B8 2E                 2594 	.db #0x2e	; 46
   01B9 2E                 2595 	.db #0x2e	; 46
   01BA 2E                 2596 	.db #0x2e	; 46
   01BB 2E                 2597 	.db #0x2e	; 46
   01BC 2E                 2598 	.db #0x2e	; 46
   01BD 2E                 2599 	.db #0x2e	; 46
   01BE 2E                 2600 	.db #0x2e	; 46
   01BF 2E                 2601 	.db #0x2e	; 46
   01C0 34                 2602 	.db #0x34	; 52	'4'
   01C1 35                 2603 	.db #0x35	; 53	'5'
   01C2 36                 2604 	.db #0x36	; 54	'6'
   01C3 2E                 2605 	.db #0x2e	; 46
   01C4 2E                 2606 	.db #0x2e	; 46
   01C5 2E                 2607 	.db #0x2e	; 46
   01C6 2E                 2608 	.db #0x2e	; 46
   01C7 2E                 2609 	.db #0x2e	; 46
   01C8 2E                 2610 	.db #0x2e	; 46
   01C9 2E                 2611 	.db #0x2e	; 46
   01CA 2F                 2612 	.db #0x2f	; 47
   01CB 30                 2613 	.db #0x30	; 48	'0'
   01CC 31                 2614 	.db #0x31	; 49	'1'
   01CD 2E                 2615 	.db #0x2e	; 46
   01CE 2E                 2616 	.db #0x2e	; 46
   01CF 2E                 2617 	.db #0x2e	; 46
   01D0 2E                 2618 	.db #0x2e	; 46
   01D1 2E                 2619 	.db #0x2e	; 46
   01D2 2E                 2620 	.db #0x2e	; 46
   01D3 2E                 2621 	.db #0x2e	; 46
   01D4 2E                 2622 	.db #0x2e	; 46
   01D5 2E                 2623 	.db #0x2e	; 46
   01D6 2E                 2624 	.db #0x2e	; 46
   01D7 2E                 2625 	.db #0x2e	; 46
   01D8 2E                 2626 	.db #0x2e	; 46
   01D9 2E                 2627 	.db #0x2e	; 46
   01DA 2E                 2628 	.db #0x2e	; 46
   01DB 2E                 2629 	.db #0x2e	; 46
   01DC 2E                 2630 	.db #0x2e	; 46
   01DD 2E                 2631 	.db #0x2e	; 46
   01DE 32                 2632 	.db #0x32	; 50	'2'
   01DF 37                 2633 	.db #0x37	; 55	'7'
   01E0 33                 2634 	.db #0x33	; 51	'3'
   01E1 2E                 2635 	.db #0x2e	; 46
   01E2 2E                 2636 	.db #0x2e	; 46
   01E3 2E                 2637 	.db #0x2e	; 46
   01E4 2E                 2638 	.db #0x2e	; 46
   01E5 2E                 2639 	.db #0x2e	; 46
   01E6 2E                 2640 	.db #0x2e	; 46
   01E7 2E                 2641 	.db #0x2e	; 46
   01E8 2E                 2642 	.db #0x2e	; 46
   01E9 2E                 2643 	.db #0x2e	; 46
   01EA 2E                 2644 	.db #0x2e	; 46
   01EB 2E                 2645 	.db #0x2e	; 46
   01EC 2E                 2646 	.db #0x2e	; 46
   01ED 2E                 2647 	.db #0x2e	; 46
   01EE 2E                 2648 	.db #0x2e	; 46
   01EF 2E                 2649 	.db #0x2e	; 46
   01F0 2E                 2650 	.db #0x2e	; 46
   01F1 2E                 2651 	.db #0x2e	; 46
   01F2 34                 2652 	.db #0x34	; 52	'4'
   01F3 35                 2653 	.db #0x35	; 53	'5'
   01F4 36                 2654 	.db #0x36	; 54	'6'
   01F5 2E                 2655 	.db #0x2e	; 46
   01F6 2E                 2656 	.db #0x2e	; 46
   01F7 2E                 2657 	.db #0x2e	; 46
   01F8 2E                 2658 	.db #0x2e	; 46
   01F9 2E                 2659 	.db #0x2e	; 46
   01FA 2E                 2660 	.db #0x2e	; 46
   01FB 2E                 2661 	.db #0x2e	; 46
   01FC 2E                 2662 	.db #0x2e	; 46
   01FD 2E                 2663 	.db #0x2e	; 46
   01FE 2E                 2664 	.db #0x2e	; 46
   01FF 2E                 2665 	.db #0x2e	; 46
   0200 2E                 2666 	.db #0x2e	; 46
   0201 2E                 2667 	.db #0x2e	; 46
   0202 2E                 2668 	.db #0x2e	; 46
   0203 2E                 2669 	.db #0x2e	; 46
   0204 2F                 2670 	.db #0x2f	; 47
   0205 30                 2671 	.db #0x30	; 48	'0'
   0206 31                 2672 	.db #0x31	; 49	'1'
   0207 2E                 2673 	.db #0x2e	; 46
   0208 2E                 2674 	.db #0x2e	; 46
   0209 2E                 2675 	.db #0x2e	; 46
   020A 2E                 2676 	.db #0x2e	; 46
   020B 2E                 2677 	.db #0x2e	; 46
   020C 2E                 2678 	.db #0x2e	; 46
   020D 2E                 2679 	.db #0x2e	; 46
   020E 2E                 2680 	.db #0x2e	; 46
   020F 2E                 2681 	.db #0x2e	; 46
   0210 2E                 2682 	.db #0x2e	; 46
   0211 2E                 2683 	.db #0x2e	; 46
   0212 2E                 2684 	.db #0x2e	; 46
   0213 2E                 2685 	.db #0x2e	; 46
   0214 2E                 2686 	.db #0x2e	; 46
   0215 2E                 2687 	.db #0x2e	; 46
   0216 2E                 2688 	.db #0x2e	; 46
   0217 2E                 2689 	.db #0x2e	; 46
   0218 32                 2690 	.db #0x32	; 50	'2'
   0219 37                 2691 	.db #0x37	; 55	'7'
   021A 33                 2692 	.db #0x33	; 51	'3'
   021B 2E                 2693 	.db #0x2e	; 46
   021C 2E                 2694 	.db #0x2e	; 46
   021D 2E                 2695 	.db #0x2e	; 46
   021E 2E                 2696 	.db #0x2e	; 46
   021F 2E                 2697 	.db #0x2e	; 46
   0220 2E                 2698 	.db #0x2e	; 46
   0221 2E                 2699 	.db #0x2e	; 46
   0222 2E                 2700 	.db #0x2e	; 46
   0223 2E                 2701 	.db #0x2e	; 46
   0224 2E                 2702 	.db #0x2e	; 46
   0225 2E                 2703 	.db #0x2e	; 46
   0226 2E                 2704 	.db #0x2e	; 46
   0227 2E                 2705 	.db #0x2e	; 46
   0228 2E                 2706 	.db #0x2e	; 46
   0229 2E                 2707 	.db #0x2e	; 46
   022A 2E                 2708 	.db #0x2e	; 46
   022B 2E                 2709 	.db #0x2e	; 46
   022C 34                 2710 	.db #0x34	; 52	'4'
   022D 35                 2711 	.db #0x35	; 53	'5'
   022E 36                 2712 	.db #0x36	; 54	'6'
   022F 2E                 2713 	.db #0x2e	; 46
   0230 2E                 2714 	.db #0x2e	; 46
   0231 2E                 2715 	.db #0x2e	; 46
   0232 2E                 2716 	.db #0x2e	; 46
   0233 2E                 2717 	.db #0x2e	; 46
   0234 2E                 2718 	.db #0x2e	; 46
   0235 2E                 2719 	.db #0x2e	; 46
   0236 2E                 2720 	.db #0x2e	; 46
   0237 2E                 2721 	.db #0x2e	; 46
   0238 2E                 2722 	.db #0x2e	; 46
   0239 2E                 2723 	.db #0x2e	; 46
   023A 2E                 2724 	.db #0x2e	; 46
   023B 2E                 2725 	.db #0x2e	; 46
   023C 2E                 2726 	.db #0x2e	; 46
   023D 2E                 2727 	.db #0x2e	; 46
   023E 2E                 2728 	.db #0x2e	; 46
   023F 2E                 2729 	.db #0x2e	; 46
   0240 2E                 2730 	.db #0x2e	; 46
   0241 2E                 2731 	.db #0x2e	; 46
   0242 2E                 2732 	.db #0x2e	; 46
   0243 2E                 2733 	.db #0x2e	; 46
   0244 2E                 2734 	.db #0x2e	; 46
   0245 2E                 2735 	.db #0x2e	; 46
   0246 2E                 2736 	.db #0x2e	; 46
   0247 2E                 2737 	.db #0x2e	; 46
   0248 2E                 2738 	.db #0x2e	; 46
   0249 2E                 2739 	.db #0x2e	; 46
   024A 2E                 2740 	.db #0x2e	; 46
   024B 2E                 2741 	.db #0x2e	; 46
   024C 2E                 2742 	.db #0x2e	; 46
   024D 2E                 2743 	.db #0x2e	; 46
   024E 2E                 2744 	.db #0x2e	; 46
   024F 2E                 2745 	.db #0x2e	; 46
   0250 2E                 2746 	.db #0x2e	; 46
   0251 2E                 2747 	.db #0x2e	; 46
   0252 2E                 2748 	.db #0x2e	; 46
   0253 2E                 2749 	.db #0x2e	; 46
   0254 2E                 2750 	.db #0x2e	; 46
   0255 2E                 2751 	.db #0x2e	; 46
   0256 2E                 2752 	.db #0x2e	; 46
   0257 2E                 2753 	.db #0x2e	; 46
   0258 2E                 2754 	.db #0x2e	; 46
   0259 2E                 2755 	.db #0x2e	; 46
   025A 2E                 2756 	.db #0x2e	; 46
   025B 2E                 2757 	.db #0x2e	; 46
   025C 2E                 2758 	.db #0x2e	; 46
   025D 2E                 2759 	.db #0x2e	; 46
   025E 2E                 2760 	.db #0x2e	; 46
   025F 2E                 2761 	.db #0x2e	; 46
   0260 2E                 2762 	.db #0x2e	; 46
   0261 2E                 2763 	.db #0x2e	; 46
   0262 2E                 2764 	.db #0x2e	; 46
   0263 2E                 2765 	.db #0x2e	; 46
   0264 2E                 2766 	.db #0x2e	; 46
   0265 2E                 2767 	.db #0x2e	; 46
   0266 2E                 2768 	.db #0x2e	; 46
   0267 2E                 2769 	.db #0x2e	; 46
   0268 2E                 2770 	.db #0x2e	; 46
   0269 2E                 2771 	.db #0x2e	; 46
   026A 2E                 2772 	.db #0x2e	; 46
   026B 2E                 2773 	.db #0x2e	; 46
   026C 2E                 2774 	.db #0x2e	; 46
   026D 2E                 2775 	.db #0x2e	; 46
   026E 2E                 2776 	.db #0x2e	; 46
   026F 2E                 2777 	.db #0x2e	; 46
   0270 2E                 2778 	.db #0x2e	; 46
   0271 2E                 2779 	.db #0x2e	; 46
   0272 2E                 2780 	.db #0x2e	; 46
   0273 2E                 2781 	.db #0x2e	; 46
   0274 2E                 2782 	.db #0x2e	; 46
   0275 2E                 2783 	.db #0x2e	; 46
   0276 2E                 2784 	.db #0x2e	; 46
   0277 2E                 2785 	.db #0x2e	; 46
   0278 2E                 2786 	.db #0x2e	; 46
   0279 2E                 2787 	.db #0x2e	; 46
   027A 2E                 2788 	.db #0x2e	; 46
   027B 2E                 2789 	.db #0x2e	; 46
   027C 2E                 2790 	.db #0x2e	; 46
   027D 2E                 2791 	.db #0x2e	; 46
   027E 2E                 2792 	.db #0x2e	; 46
   027F 2E                 2793 	.db #0x2e	; 46
   0280 2E                 2794 	.db #0x2e	; 46
   0281 2E                 2795 	.db #0x2e	; 46
   0282 2E                 2796 	.db #0x2e	; 46
   0283 2E                 2797 	.db #0x2e	; 46
   0284 2E                 2798 	.db #0x2e	; 46
   0285 2E                 2799 	.db #0x2e	; 46
   0286 2E                 2800 	.db #0x2e	; 46
   0287 2E                 2801 	.db #0x2e	; 46
   0288 2E                 2802 	.db #0x2e	; 46
   0289 2E                 2803 	.db #0x2e	; 46
   028A 2E                 2804 	.db #0x2e	; 46
   028B 2E                 2805 	.db #0x2e	; 46
   028C 2E                 2806 	.db #0x2e	; 46
   028D 2E                 2807 	.db #0x2e	; 46
   028E 2E                 2808 	.db #0x2e	; 46
   028F 2E                 2809 	.db #0x2e	; 46
   0290 2E                 2810 	.db #0x2e	; 46
   0291 2E                 2811 	.db #0x2e	; 46
   0292 2E                 2812 	.db #0x2e	; 46
   0293 2E                 2813 	.db #0x2e	; 46
   0294 2E                 2814 	.db #0x2e	; 46
   0295 2E                 2815 	.db #0x2e	; 46
   0296 2E                 2816 	.db #0x2e	; 46
   0297 2E                 2817 	.db #0x2e	; 46
   0298 2E                 2818 	.db #0x2e	; 46
   0299 2E                 2819 	.db #0x2e	; 46
   029A 2E                 2820 	.db #0x2e	; 46
   029B 2E                 2821 	.db #0x2e	; 46
   029C 2E                 2822 	.db #0x2e	; 46
   029D 2E                 2823 	.db #0x2e	; 46
   029E 2E                 2824 	.db #0x2e	; 46
   029F 2E                 2825 	.db #0x2e	; 46
   02A0 2E                 2826 	.db #0x2e	; 46
   02A1 2E                 2827 	.db #0x2e	; 46
   02A2 2E                 2828 	.db #0x2e	; 46
   02A3 2E                 2829 	.db #0x2e	; 46
   02A4 2E                 2830 	.db #0x2e	; 46
   02A5 2E                 2831 	.db #0x2e	; 46
   02A6 2E                 2832 	.db #0x2e	; 46
   02A7 2E                 2833 	.db #0x2e	; 46
   02A8 2E                 2834 	.db #0x2e	; 46
   02A9 2E                 2835 	.db #0x2e	; 46
   02AA 2E                 2836 	.db #0x2e	; 46
   02AB 2E                 2837 	.db #0x2e	; 46
   02AC 2E                 2838 	.db #0x2e	; 46
   02AD 2E                 2839 	.db #0x2e	; 46
   02AE 2E                 2840 	.db #0x2e	; 46
   02AF 2E                 2841 	.db #0x2e	; 46
   02B0 2E                 2842 	.db #0x2e	; 46
   02B1 2E                 2843 	.db #0x2e	; 46
   02B2 2E                 2844 	.db #0x2e	; 46
   02B3 2E                 2845 	.db #0x2e	; 46
   02B4 2E                 2846 	.db #0x2e	; 46
   02B5 2E                 2847 	.db #0x2e	; 46
   02B6 2E                 2848 	.db #0x2e	; 46
   02B7 2E                 2849 	.db #0x2e	; 46
   02B8 2E                 2850 	.db #0x2e	; 46
   02B9 2E                 2851 	.db #0x2e	; 46
   02BA 2E                 2852 	.db #0x2e	; 46
   02BB 2E                 2853 	.db #0x2e	; 46
   02BC 2E                 2854 	.db #0x2e	; 46
   02BD 2E                 2855 	.db #0x2e	; 46
   02BE 2E                 2856 	.db #0x2e	; 46
   02BF 2E                 2857 	.db #0x2e	; 46
   02C0 2E                 2858 	.db #0x2e	; 46
   02C1 2E                 2859 	.db #0x2e	; 46
   02C2 2E                 2860 	.db #0x2e	; 46
   02C3 2E                 2861 	.db #0x2e	; 46
   02C4 2E                 2862 	.db #0x2e	; 46
   02C5 2E                 2863 	.db #0x2e	; 46
   02C6 2E                 2864 	.db #0x2e	; 46
   02C7 2E                 2865 	.db #0x2e	; 46
   02C8 2E                 2866 	.db #0x2e	; 46
   02C9 2E                 2867 	.db #0x2e	; 46
   02CA 2E                 2868 	.db #0x2e	; 46
   02CB 2E                 2869 	.db #0x2e	; 46
   02CC 2E                 2870 	.db #0x2e	; 46
   02CD 2E                 2871 	.db #0x2e	; 46
   02CE 2E                 2872 	.db #0x2e	; 46
   02CF 2E                 2873 	.db #0x2e	; 46
   02D0 2E                 2874 	.db #0x2e	; 46
   02D1 2E                 2875 	.db #0x2e	; 46
   02D2 2E                 2876 	.db #0x2e	; 46
   02D3 2E                 2877 	.db #0x2e	; 46
   02D4 2E                 2878 	.db #0x2e	; 46
   02D5 2E                 2879 	.db #0x2e	; 46
   02D6 2E                 2880 	.db #0x2e	; 46
   02D7 2E                 2881 	.db #0x2e	; 46
   02D8 2F                 2882 	.db #0x2f	; 47
   02D9 30                 2883 	.db #0x30	; 48	'0'
   02DA 31                 2884 	.db #0x31	; 49	'1'
   02DB 2E                 2885 	.db #0x2e	; 46
   02DC 2E                 2886 	.db #0x2e	; 46
   02DD 2E                 2887 	.db #0x2e	; 46
   02DE 2E                 2888 	.db #0x2e	; 46
   02DF 2E                 2889 	.db #0x2e	; 46
   02E0 2E                 2890 	.db #0x2e	; 46
   02E1 2E                 2891 	.db #0x2e	; 46
   02E2 2E                 2892 	.db #0x2e	; 46
   02E3 2E                 2893 	.db #0x2e	; 46
   02E4 2E                 2894 	.db #0x2e	; 46
   02E5 2E                 2895 	.db #0x2e	; 46
   02E6 2E                 2896 	.db #0x2e	; 46
   02E7 2E                 2897 	.db #0x2e	; 46
   02E8 2E                 2898 	.db #0x2e	; 46
   02E9 2E                 2899 	.db #0x2e	; 46
   02EA 2E                 2900 	.db #0x2e	; 46
   02EB 2E                 2901 	.db #0x2e	; 46
   02EC 32                 2902 	.db #0x32	; 50	'2'
   02ED 37                 2903 	.db #0x37	; 55	'7'
   02EE 33                 2904 	.db #0x33	; 51	'3'
   02EF 2E                 2905 	.db #0x2e	; 46
   02F0 2E                 2906 	.db #0x2e	; 46
   02F1 2E                 2907 	.db #0x2e	; 46
   02F2 2E                 2908 	.db #0x2e	; 46
   02F3 2E                 2909 	.db #0x2e	; 46
   02F4 2E                 2910 	.db #0x2e	; 46
   02F5 2E                 2911 	.db #0x2e	; 46
   02F6 2E                 2912 	.db #0x2e	; 46
   02F7 2E                 2913 	.db #0x2e	; 46
   02F8 2E                 2914 	.db #0x2e	; 46
   02F9 2E                 2915 	.db #0x2e	; 46
   02FA 2E                 2916 	.db #0x2e	; 46
   02FB 2E                 2917 	.db #0x2e	; 46
   02FC 2E                 2918 	.db #0x2e	; 46
   02FD 2E                 2919 	.db #0x2e	; 46
   02FE 2E                 2920 	.db #0x2e	; 46
   02FF 2E                 2921 	.db #0x2e	; 46
   0300 34                 2922 	.db #0x34	; 52	'4'
   0301 35                 2923 	.db #0x35	; 53	'5'
   0302 36                 2924 	.db #0x36	; 54	'6'
   0303 2E                 2925 	.db #0x2e	; 46
   0304 2E                 2926 	.db #0x2e	; 46
   0305 2E                 2927 	.db #0x2e	; 46
   0306 2E                 2928 	.db #0x2e	; 46
   0307 2E                 2929 	.db #0x2e	; 46
   0308 2E                 2930 	.db #0x2e	; 46
   0309 2E                 2931 	.db #0x2e	; 46
   030A 2F                 2932 	.db #0x2f	; 47
   030B 30                 2933 	.db #0x30	; 48	'0'
   030C 31                 2934 	.db #0x31	; 49	'1'
   030D 2E                 2935 	.db #0x2e	; 46
   030E 2E                 2936 	.db #0x2e	; 46
   030F 2E                 2937 	.db #0x2e	; 46
   0310 2E                 2938 	.db #0x2e	; 46
   0311 2E                 2939 	.db #0x2e	; 46
   0312 2E                 2940 	.db #0x2e	; 46
   0313 2E                 2941 	.db #0x2e	; 46
   0314 2E                 2942 	.db #0x2e	; 46
   0315 2E                 2943 	.db #0x2e	; 46
   0316 2E                 2944 	.db #0x2e	; 46
   0317 2E                 2945 	.db #0x2e	; 46
   0318 2E                 2946 	.db #0x2e	; 46
   0319 2E                 2947 	.db #0x2e	; 46
   031A 2E                 2948 	.db #0x2e	; 46
   031B 2E                 2949 	.db #0x2e	; 46
   031C 2E                 2950 	.db #0x2e	; 46
   031D 2E                 2951 	.db #0x2e	; 46
   031E 32                 2952 	.db #0x32	; 50	'2'
   031F 37                 2953 	.db #0x37	; 55	'7'
   0320 33                 2954 	.db #0x33	; 51	'3'
   0321 2E                 2955 	.db #0x2e	; 46
   0322 2E                 2956 	.db #0x2e	; 46
   0323 2E                 2957 	.db #0x2e	; 46
   0324 2E                 2958 	.db #0x2e	; 46
   0325 2E                 2959 	.db #0x2e	; 46
   0326 2E                 2960 	.db #0x2e	; 46
   0327 2E                 2961 	.db #0x2e	; 46
   0328 2E                 2962 	.db #0x2e	; 46
   0329 2E                 2963 	.db #0x2e	; 46
   032A 2E                 2964 	.db #0x2e	; 46
   032B 2E                 2965 	.db #0x2e	; 46
   032C 2E                 2966 	.db #0x2e	; 46
   032D 2E                 2967 	.db #0x2e	; 46
   032E 2E                 2968 	.db #0x2e	; 46
   032F 2E                 2969 	.db #0x2e	; 46
   0330 2E                 2970 	.db #0x2e	; 46
   0331 2E                 2971 	.db #0x2e	; 46
   0332 34                 2972 	.db #0x34	; 52	'4'
   0333 35                 2973 	.db #0x35	; 53	'5'
   0334 36                 2974 	.db #0x36	; 54	'6'
   0335 2E                 2975 	.db #0x2e	; 46
   0336 2E                 2976 	.db #0x2e	; 46
   0337 2E                 2977 	.db #0x2e	; 46
   0338 2E                 2978 	.db #0x2e	; 46
   0339 2E                 2979 	.db #0x2e	; 46
   033A 2E                 2980 	.db #0x2e	; 46
   033B 2E                 2981 	.db #0x2e	; 46
   033C 2E                 2982 	.db #0x2e	; 46
   033D 2E                 2983 	.db #0x2e	; 46
   033E 2E                 2984 	.db #0x2e	; 46
   033F 2E                 2985 	.db #0x2e	; 46
   0340 2E                 2986 	.db #0x2e	; 46
   0341 2E                 2987 	.db #0x2e	; 46
   0342 2E                 2988 	.db #0x2e	; 46
   0343 2E                 2989 	.db #0x2e	; 46
   0344 2F                 2990 	.db #0x2f	; 47
   0345 30                 2991 	.db #0x30	; 48	'0'
   0346 31                 2992 	.db #0x31	; 49	'1'
   0347 2E                 2993 	.db #0x2e	; 46
   0348 2E                 2994 	.db #0x2e	; 46
   0349 2E                 2995 	.db #0x2e	; 46
   034A 2E                 2996 	.db #0x2e	; 46
   034B 2E                 2997 	.db #0x2e	; 46
   034C 2E                 2998 	.db #0x2e	; 46
   034D 2E                 2999 	.db #0x2e	; 46
   034E 2E                 3000 	.db #0x2e	; 46
   034F 2E                 3001 	.db #0x2e	; 46
   0350 2E                 3002 	.db #0x2e	; 46
   0351 2E                 3003 	.db #0x2e	; 46
   0352 2E                 3004 	.db #0x2e	; 46
   0353 2E                 3005 	.db #0x2e	; 46
   0354 2E                 3006 	.db #0x2e	; 46
   0355 2E                 3007 	.db #0x2e	; 46
   0356 2E                 3008 	.db #0x2e	; 46
   0357 2E                 3009 	.db #0x2e	; 46
   0358 32                 3010 	.db #0x32	; 50	'2'
   0359 37                 3011 	.db #0x37	; 55	'7'
   035A 33                 3012 	.db #0x33	; 51	'3'
   035B 2E                 3013 	.db #0x2e	; 46
   035C 2E                 3014 	.db #0x2e	; 46
   035D 2E                 3015 	.db #0x2e	; 46
   035E 2E                 3016 	.db #0x2e	; 46
   035F 2E                 3017 	.db #0x2e	; 46
   0360 2E                 3018 	.db #0x2e	; 46
   0361 2E                 3019 	.db #0x2e	; 46
   0362 2E                 3020 	.db #0x2e	; 46
   0363 2E                 3021 	.db #0x2e	; 46
   0364 2E                 3022 	.db #0x2e	; 46
   0365 2E                 3023 	.db #0x2e	; 46
   0366 2E                 3024 	.db #0x2e	; 46
   0367 2E                 3025 	.db #0x2e	; 46
   0368 2E                 3026 	.db #0x2e	; 46
   0369 2E                 3027 	.db #0x2e	; 46
   036A 2E                 3028 	.db #0x2e	; 46
   036B 2E                 3029 	.db #0x2e	; 46
   036C 34                 3030 	.db #0x34	; 52	'4'
   036D 35                 3031 	.db #0x35	; 53	'5'
   036E 36                 3032 	.db #0x36	; 54	'6'
   036F 2E                 3033 	.db #0x2e	; 46
   0370 2E                 3034 	.db #0x2e	; 46
   0371 2E                 3035 	.db #0x2e	; 46
   0372 2E                 3036 	.db #0x2e	; 46
   0373 2E                 3037 	.db #0x2e	; 46
   0374 2E                 3038 	.db #0x2e	; 46
   0375 2E                 3039 	.db #0x2e	; 46
   0376 2E                 3040 	.db #0x2e	; 46
   0377 2E                 3041 	.db #0x2e	; 46
   0378 2E                 3042 	.db #0x2e	; 46
   0379 2E                 3043 	.db #0x2e	; 46
   037A 2E                 3044 	.db #0x2e	; 46
   037B 2E                 3045 	.db #0x2e	; 46
   037C 2E                 3046 	.db #0x2e	; 46
   037D 2E                 3047 	.db #0x2e	; 46
   037E 2E                 3048 	.db #0x2e	; 46
   037F 2E                 3049 	.db #0x2e	; 46
   0380 2E                 3050 	.db #0x2e	; 46
   0381 2E                 3051 	.db #0x2e	; 46
   0382 2E                 3052 	.db #0x2e	; 46
   0383 2E                 3053 	.db #0x2e	; 46
   0384 2E                 3054 	.db #0x2e	; 46
   0385 2E                 3055 	.db #0x2e	; 46
   0386 2E                 3056 	.db #0x2e	; 46
   0387 2E                 3057 	.db #0x2e	; 46
   0388 2E                 3058 	.db #0x2e	; 46
   0389 2E                 3059 	.db #0x2e	; 46
   038A 2E                 3060 	.db #0x2e	; 46
   038B 2E                 3061 	.db #0x2e	; 46
   038C 2E                 3062 	.db #0x2e	; 46
   038D 2E                 3063 	.db #0x2e	; 46
   038E 2E                 3064 	.db #0x2e	; 46
   038F 2E                 3065 	.db #0x2e	; 46
   0390 2E                 3066 	.db #0x2e	; 46
   0391 2E                 3067 	.db #0x2e	; 46
   0392 2E                 3068 	.db #0x2e	; 46
   0393 2E                 3069 	.db #0x2e	; 46
   0394 2E                 3070 	.db #0x2e	; 46
   0395 2E                 3071 	.db #0x2e	; 46
   0396 2E                 3072 	.db #0x2e	; 46
   0397 2E                 3073 	.db #0x2e	; 46
   0398 2E                 3074 	.db #0x2e	; 46
   0399 2E                 3075 	.db #0x2e	; 46
   039A 2E                 3076 	.db #0x2e	; 46
   039B 2E                 3077 	.db #0x2e	; 46
   039C 2E                 3078 	.db #0x2e	; 46
   039D 2E                 3079 	.db #0x2e	; 46
   039E 2E                 3080 	.db #0x2e	; 46
   039F 2E                 3081 	.db #0x2e	; 46
   03A0 2E                 3082 	.db #0x2e	; 46
   03A1 2E                 3083 	.db #0x2e	; 46
   03A2 2E                 3084 	.db #0x2e	; 46
   03A3 2E                 3085 	.db #0x2e	; 46
   03A4 2E                 3086 	.db #0x2e	; 46
   03A5 2E                 3087 	.db #0x2e	; 46
   03A6 2E                 3088 	.db #0x2e	; 46
   03A7 2E                 3089 	.db #0x2e	; 46
   03A8 2E                 3090 	.db #0x2e	; 46
   03A9 2E                 3091 	.db #0x2e	; 46
   03AA 2E                 3092 	.db #0x2e	; 46
   03AB 2E                 3093 	.db #0x2e	; 46
   03AC 2E                 3094 	.db #0x2e	; 46
   03AD 2E                 3095 	.db #0x2e	; 46
   03AE 2E                 3096 	.db #0x2e	; 46
   03AF 2E                 3097 	.db #0x2e	; 46
   03B0 2E                 3098 	.db #0x2e	; 46
   03B1 2E                 3099 	.db #0x2e	; 46
   03B2 2E                 3100 	.db #0x2e	; 46
   03B3 2E                 3101 	.db #0x2e	; 46
   03B4 2E                 3102 	.db #0x2e	; 46
   03B5 2E                 3103 	.db #0x2e	; 46
   03B6 2E                 3104 	.db #0x2e	; 46
   03B7 2E                 3105 	.db #0x2e	; 46
   03B8 2E                 3106 	.db #0x2e	; 46
   03B9 2E                 3107 	.db #0x2e	; 46
   03BA 2E                 3108 	.db #0x2e	; 46
   03BB 2E                 3109 	.db #0x2e	; 46
   03BC 2E                 3110 	.db #0x2e	; 46
   03BD 2E                 3111 	.db #0x2e	; 46
   03BE 2E                 3112 	.db #0x2e	; 46
   03BF 2E                 3113 	.db #0x2e	; 46
   03C0 2E                 3114 	.db #0x2e	; 46
   03C1 2E                 3115 	.db #0x2e	; 46
   03C2 2E                 3116 	.db #0x2e	; 46
   03C3 2E                 3117 	.db #0x2e	; 46
   03C4 2E                 3118 	.db #0x2e	; 46
   03C5 2E                 3119 	.db #0x2e	; 46
   03C6 2E                 3120 	.db #0x2e	; 46
   03C7 2E                 3121 	.db #0x2e	; 46
   03C8 2E                 3122 	.db #0x2e	; 46
   03C9 2E                 3123 	.db #0x2e	; 46
   03CA 2E                 3124 	.db #0x2e	; 46
   03CB 2E                 3125 	.db #0x2e	; 46
   03CC 2E                 3126 	.db #0x2e	; 46
   03CD 2E                 3127 	.db #0x2e	; 46
   03CE 2E                 3128 	.db #0x2e	; 46
   03CF 2E                 3129 	.db #0x2e	; 46
   03D0 2E                 3130 	.db #0x2e	; 46
   03D1 2E                 3131 	.db #0x2e	; 46
   03D2 2E                 3132 	.db #0x2e	; 46
   03D3 2E                 3133 	.db #0x2e	; 46
   03D4 2E                 3134 	.db #0x2e	; 46
   03D5 2E                 3135 	.db #0x2e	; 46
   03D6 2E                 3136 	.db #0x2e	; 46
   03D7 2E                 3137 	.db #0x2e	; 46
   03D8 2E                 3138 	.db #0x2e	; 46
   03D9 2E                 3139 	.db #0x2e	; 46
   03DA 2E                 3140 	.db #0x2e	; 46
   03DB 2E                 3141 	.db #0x2e	; 46
   03DC 2E                 3142 	.db #0x2e	; 46
   03DD 2E                 3143 	.db #0x2e	; 46
   03DE 2E                 3144 	.db #0x2e	; 46
   03DF 2E                 3145 	.db #0x2e	; 46
   03E0 2E                 3146 	.db #0x2e	; 46
   03E1 2E                 3147 	.db #0x2e	; 46
   03E2 2E                 3148 	.db #0x2e	; 46
   03E3 2E                 3149 	.db #0x2e	; 46
   03E4 2E                 3150 	.db #0x2e	; 46
   03E5 2E                 3151 	.db #0x2e	; 46
   03E6 2E                 3152 	.db #0x2e	; 46
   03E7 2E                 3153 	.db #0x2e	; 46
   03E8 2E                 3154 	.db #0x2e	; 46
   03E9 2E                 3155 	.db #0x2e	; 46
   03EA 2E                 3156 	.db #0x2e	; 46
   03EB 2E                 3157 	.db #0x2e	; 46
   03EC 2E                 3158 	.db #0x2e	; 46
   03ED 2E                 3159 	.db #0x2e	; 46
   03EE 2E                 3160 	.db #0x2e	; 46
   03EF 2E                 3161 	.db #0x2e	; 46
   03F0 2E                 3162 	.db #0x2e	; 46
   03F1 2E                 3163 	.db #0x2e	; 46
   03F2 2E                 3164 	.db #0x2e	; 46
   03F3 2E                 3165 	.db #0x2e	; 46
   03F4 2E                 3166 	.db #0x2e	; 46
   03F5 2E                 3167 	.db #0x2e	; 46
   03F6 2E                 3168 	.db #0x2e	; 46
   03F7 2E                 3169 	.db #0x2e	; 46
   03F8 2E                 3170 	.db #0x2e	; 46
   03F9 2E                 3171 	.db #0x2e	; 46
   03FA 2E                 3172 	.db #0x2e	; 46
   03FB 2E                 3173 	.db #0x2e	; 46
   03FC 2E                 3174 	.db #0x2e	; 46
   03FD 2E                 3175 	.db #0x2e	; 46
   03FE 2E                 3176 	.db #0x2e	; 46
   03FF 2E                 3177 	.db #0x2e	; 46
   0400 2E                 3178 	.db #0x2e	; 46
   0401 2E                 3179 	.db #0x2e	; 46
   0402 2E                 3180 	.db #0x2e	; 46
   0403 2E                 3181 	.db #0x2e	; 46
   0404 2E                 3182 	.db #0x2e	; 46
   0405 2E                 3183 	.db #0x2e	; 46
   0406 2E                 3184 	.db #0x2e	; 46
   0407 2E                 3185 	.db #0x2e	; 46
   0408 2E                 3186 	.db #0x2e	; 46
   0409 2E                 3187 	.db #0x2e	; 46
   040A 2E                 3188 	.db #0x2e	; 46
   040B 2E                 3189 	.db #0x2e	; 46
   040C 2E                 3190 	.db #0x2e	; 46
   040D 2E                 3191 	.db #0x2e	; 46
   040E 2E                 3192 	.db #0x2e	; 46
   040F 2E                 3193 	.db #0x2e	; 46
   0410 2E                 3194 	.db #0x2e	; 46
   0411 2E                 3195 	.db #0x2e	; 46
   0412 2E                 3196 	.db #0x2e	; 46
   0413 2E                 3197 	.db #0x2e	; 46
   0414 2E                 3198 	.db #0x2e	; 46
   0415 2E                 3199 	.db #0x2e	; 46
   0416 2E                 3200 	.db #0x2e	; 46
   0417 2E                 3201 	.db #0x2e	; 46
   0418                    3202 _title_win:
   0418 00                 3203 	.db #0x00	; 0
   0419 00                 3204 	.db #0x00	; 0
   041A 00                 3205 	.db #0x00	; 0
   041B 00                 3206 	.db #0x00	; 0
   041C 00                 3207 	.db #0x00	; 0
   041D 00                 3208 	.db #0x00	; 0
   041E 00                 3209 	.db #0x00	; 0
   041F 00                 3210 	.db #0x00	; 0
   0420 00                 3211 	.db #0x00	; 0
   0421 00                 3212 	.db #0x00	; 0
   0422 00                 3213 	.db #0x00	; 0
   0423 00                 3214 	.db #0x00	; 0
   0424 00                 3215 	.db #0x00	; 0
   0425 00                 3216 	.db #0x00	; 0
   0426 00                 3217 	.db #0x00	; 0
   0427 00                 3218 	.db #0x00	; 0
   0428 00                 3219 	.db #0x00	; 0
   0429 00                 3220 	.db #0x00	; 0
   042A 00                 3221 	.db #0x00	; 0
   042B 00                 3222 	.db #0x00	; 0
   042C 00                 3223 	.db #0x00	; 0
   042D 00                 3224 	.db #0x00	; 0
   042E 00                 3225 	.db #0x00	; 0
   042F 00                 3226 	.db #0x00	; 0
   0430 00                 3227 	.db #0x00	; 0
   0431 13                 3228 	.db #0x13	; 19
   0432 14                 3229 	.db #0x14	; 20
   0433 14                 3230 	.db #0x14	; 20
   0434 1F                 3231 	.db #0x1f	; 31
   0435 00                 3232 	.db #0x00	; 0
   0436 10                 3233 	.db #0x10	; 16
   0437 11                 3234 	.db #0x11	; 17
   0438 28                 3235 	.db #0x28	; 40
   0439 22                 3236 	.db #0x22	; 34
   043A 22                 3237 	.db #0x22	; 34
   043B 00                 3238 	.db #0x00	; 0
   043C 00                 3239 	.db #0x00	; 0
   043D 00                 3240 	.db #0x00	; 0
   043E 00                 3241 	.db #0x00	; 0
   043F 00                 3242 	.db #0x00	; 0
   0440 00                 3243 	.db #0x00	; 0
   0441 00                 3244 	.db #0x00	; 0
   0442 00                 3245 	.db #0x00	; 0
   0443 00                 3246 	.db #0x00	; 0
   0444 00                 3247 	.db #0x00	; 0
   0445 00                 3248 	.db #0x00	; 0
   0446 00                 3249 	.db #0x00	; 0
   0447 00                 3250 	.db #0x00	; 0
   0448 00                 3251 	.db #0x00	; 0
   0449 00                 3252 	.db #0x00	; 0
   044A 00                 3253 	.db #0x00	; 0
   044B 00                 3254 	.db #0x00	; 0
   044C 00                 3255 	.db #0x00	; 0
   044D 00                 3256 	.db #0x00	; 0
   044E 00                 3257 	.db #0x00	; 0
   044F 00                 3258 	.db #0x00	; 0
   0450 00                 3259 	.db #0x00	; 0
   0451 00                 3260 	.db #0x00	; 0
   0452 00                 3261 	.db #0x00	; 0
   0453 00                 3262 	.db #0x00	; 0
   0454                    3263 _level01:
   0454 37                 3264 	.db #0x37	; 55	'7'
   0455 31                 3265 	.db #0x31	; 49	'1'
   0456 2F                 3266 	.db #0x2f	; 47
   0457 32                 3267 	.db #0x32	; 50	'2'
   0458 32                 3268 	.db #0x32	; 50	'2'
   0459 2F                 3269 	.db #0x2f	; 47
   045A 30                 3270 	.db #0x30	; 48	'0'
   045B 31                 3271 	.db #0x31	; 49	'1'
   045C 32                 3272 	.db #0x32	; 50	'2'
   045D 2F                 3273 	.db #0x2f	; 47
   045E 32                 3274 	.db #0x32	; 50	'2'
   045F 2F                 3275 	.db #0x2f	; 47
   0460 31                 3276 	.db #0x31	; 49	'1'
   0461 30                 3277 	.db #0x30	; 48	'0'
   0462 2F                 3278 	.db #0x2f	; 47
   0463 32                 3279 	.db #0x32	; 50	'2'
   0464 32                 3280 	.db #0x32	; 50	'2'
   0465 31                 3281 	.db #0x31	; 49	'1'
   0466 37                 3282 	.db #0x37	; 55	'7'
   0467 37                 3283 	.db #0x37	; 55	'7'
   0468 3C                 3284 	.db #0x3c	; 60
   0469 2E                 3285 	.db #0x2e	; 46
   046A 2E                 3286 	.db #0x2e	; 46
   046B 2E                 3287 	.db #0x2e	; 46
   046C 2E                 3288 	.db #0x2e	; 46
   046D 2E                 3289 	.db #0x2e	; 46
   046E 2E                 3290 	.db #0x2e	; 46
   046F 2E                 3291 	.db #0x2e	; 46
   0470 2E                 3292 	.db #0x2e	; 46
   0471 2E                 3293 	.db #0x2e	; 46
   0472 2E                 3294 	.db #0x2e	; 46
   0473 2E                 3295 	.db #0x2e	; 46
   0474 2E                 3296 	.db #0x2e	; 46
   0475 2E                 3297 	.db #0x2e	; 46
   0476 2E                 3298 	.db #0x2e	; 46
   0477 2E                 3299 	.db #0x2e	; 46
   0478 2E                 3300 	.db #0x2e	; 46
   0479 2E                 3301 	.db #0x2e	; 46
   047A 38                 3302 	.db #0x38	; 56	'8'
   047B 37                 3303 	.db #0x37	; 55	'7'
   047C 3D                 3304 	.db #0x3d	; 61
   047D 2E                 3305 	.db #0x2e	; 46
   047E 2E                 3306 	.db #0x2e	; 46
   047F 2E                 3307 	.db #0x2e	; 46
   0480 2E                 3308 	.db #0x2e	; 46
   0481 2E                 3309 	.db #0x2e	; 46
   0482 2E                 3310 	.db #0x2e	; 46
   0483 2E                 3311 	.db #0x2e	; 46
   0484 2E                 3312 	.db #0x2e	; 46
   0485 2E                 3313 	.db #0x2e	; 46
   0486 2E                 3314 	.db #0x2e	; 46
   0487 2E                 3315 	.db #0x2e	; 46
   0488 2E                 3316 	.db #0x2e	; 46
   0489 2E                 3317 	.db #0x2e	; 46
   048A 2E                 3318 	.db #0x2e	; 46
   048B 2E                 3319 	.db #0x2e	; 46
   048C 2E                 3320 	.db #0x2e	; 46
   048D 2E                 3321 	.db #0x2e	; 46
   048E 39                 3322 	.db #0x39	; 57	'9'
   048F 37                 3323 	.db #0x37	; 55	'7'
   0490 3C                 3324 	.db #0x3c	; 60
   0491 2E                 3325 	.db #0x2e	; 46
   0492 2E                 3326 	.db #0x2e	; 46
   0493 2E                 3327 	.db #0x2e	; 46
   0494 2E                 3328 	.db #0x2e	; 46
   0495 2E                 3329 	.db #0x2e	; 46
   0496 2E                 3330 	.db #0x2e	; 46
   0497 2E                 3331 	.db #0x2e	; 46
   0498 2E                 3332 	.db #0x2e	; 46
   0499 2E                 3333 	.db #0x2e	; 46
   049A 2E                 3334 	.db #0x2e	; 46
   049B 2E                 3335 	.db #0x2e	; 46
   049C 2E                 3336 	.db #0x2e	; 46
   049D 2E                 3337 	.db #0x2e	; 46
   049E 2E                 3338 	.db #0x2e	; 46
   049F 2E                 3339 	.db #0x2e	; 46
   04A0 2E                 3340 	.db #0x2e	; 46
   04A1 2E                 3341 	.db #0x2e	; 46
   04A2 38                 3342 	.db #0x38	; 56	'8'
   04A3 37                 3343 	.db #0x37	; 55	'7'
   04A4 3F                 3344 	.db #0x3f	; 63
   04A5 2E                 3345 	.db #0x2e	; 46
   04A6 2E                 3346 	.db #0x2e	; 46
   04A7 2E                 3347 	.db #0x2e	; 46
   04A8 2E                 3348 	.db #0x2e	; 46
   04A9 2E                 3349 	.db #0x2e	; 46
   04AA 2E                 3350 	.db #0x2e	; 46
   04AB 2E                 3351 	.db #0x2e	; 46
   04AC 2E                 3352 	.db #0x2e	; 46
   04AD 2E                 3353 	.db #0x2e	; 46
   04AE 2E                 3354 	.db #0x2e	; 46
   04AF 2E                 3355 	.db #0x2e	; 46
   04B0 2E                 3356 	.db #0x2e	; 46
   04B1 2E                 3357 	.db #0x2e	; 46
   04B2 2E                 3358 	.db #0x2e	; 46
   04B3 2E                 3359 	.db #0x2e	; 46
   04B4 2E                 3360 	.db #0x2e	; 46
   04B5 2E                 3361 	.db #0x2e	; 46
   04B6 3A                 3362 	.db #0x3a	; 58
   04B7 37                 3363 	.db #0x37	; 55	'7'
   04B8 3D                 3364 	.db #0x3d	; 61
   04B9 2E                 3365 	.db #0x2e	; 46
   04BA 2E                 3366 	.db #0x2e	; 46
   04BB 2E                 3367 	.db #0x2e	; 46
   04BC 2E                 3368 	.db #0x2e	; 46
   04BD 2E                 3369 	.db #0x2e	; 46
   04BE 2E                 3370 	.db #0x2e	; 46
   04BF 2E                 3371 	.db #0x2e	; 46
   04C0 2E                 3372 	.db #0x2e	; 46
   04C1 2E                 3373 	.db #0x2e	; 46
   04C2 2E                 3374 	.db #0x2e	; 46
   04C3 2E                 3375 	.db #0x2e	; 46
   04C4 2E                 3376 	.db #0x2e	; 46
   04C5 2E                 3377 	.db #0x2e	; 46
   04C6 2E                 3378 	.db #0x2e	; 46
   04C7 2E                 3379 	.db #0x2e	; 46
   04C8 2E                 3380 	.db #0x2e	; 46
   04C9 2E                 3381 	.db #0x2e	; 46
   04CA 39                 3382 	.db #0x39	; 57	'9'
   04CB 37                 3383 	.db #0x37	; 55	'7'
   04CC 3C                 3384 	.db #0x3c	; 60
   04CD 2E                 3385 	.db #0x2e	; 46
   04CE 2E                 3386 	.db #0x2e	; 46
   04CF 2E                 3387 	.db #0x2e	; 46
   04D0 2E                 3388 	.db #0x2e	; 46
   04D1 2E                 3389 	.db #0x2e	; 46
   04D2 2E                 3390 	.db #0x2e	; 46
   04D3 2E                 3391 	.db #0x2e	; 46
   04D4 2E                 3392 	.db #0x2e	; 46
   04D5 2E                 3393 	.db #0x2e	; 46
   04D6 2E                 3394 	.db #0x2e	; 46
   04D7 2E                 3395 	.db #0x2e	; 46
   04D8 2E                 3396 	.db #0x2e	; 46
   04D9 2E                 3397 	.db #0x2e	; 46
   04DA 2E                 3398 	.db #0x2e	; 46
   04DB 2E                 3399 	.db #0x2e	; 46
   04DC 2E                 3400 	.db #0x2e	; 46
   04DD 2E                 3401 	.db #0x2e	; 46
   04DE 36                 3402 	.db #0x36	; 54	'6'
   04DF 37                 3403 	.db #0x37	; 55	'7'
   04E0 3C                 3404 	.db #0x3c	; 60
   04E1 2E                 3405 	.db #0x2e	; 46
   04E2 2E                 3406 	.db #0x2e	; 46
   04E3 2E                 3407 	.db #0x2e	; 46
   04E4 2E                 3408 	.db #0x2e	; 46
   04E5 2E                 3409 	.db #0x2e	; 46
   04E6 2E                 3410 	.db #0x2e	; 46
   04E7 2E                 3411 	.db #0x2e	; 46
   04E8 2E                 3412 	.db #0x2e	; 46
   04E9 48                 3413 	.db #0x48	; 72	'H'
   04EA 2E                 3414 	.db #0x2e	; 46
   04EB 2E                 3415 	.db #0x2e	; 46
   04EC 2E                 3416 	.db #0x2e	; 46
   04ED 2E                 3417 	.db #0x2e	; 46
   04EE 2E                 3418 	.db #0x2e	; 46
   04EF 2E                 3419 	.db #0x2e	; 46
   04F0 2E                 3420 	.db #0x2e	; 46
   04F1 2E                 3421 	.db #0x2e	; 46
   04F2 36                 3422 	.db #0x36	; 54	'6'
   04F3 37                 3423 	.db #0x37	; 55	'7'
   04F4 3D                 3424 	.db #0x3d	; 61
   04F5 2E                 3425 	.db #0x2e	; 46
   04F6 2E                 3426 	.db #0x2e	; 46
   04F7 2E                 3427 	.db #0x2e	; 46
   04F8 2E                 3428 	.db #0x2e	; 46
   04F9 2E                 3429 	.db #0x2e	; 46
   04FA 2E                 3430 	.db #0x2e	; 46
   04FB 2E                 3431 	.db #0x2e	; 46
   04FC 2E                 3432 	.db #0x2e	; 46
   04FD 2E                 3433 	.db #0x2e	; 46
   04FE 2E                 3434 	.db #0x2e	; 46
   04FF 2E                 3435 	.db #0x2e	; 46
   0500 2E                 3436 	.db #0x2e	; 46
   0501 2E                 3437 	.db #0x2e	; 46
   0502 2E                 3438 	.db #0x2e	; 46
   0503 2E                 3439 	.db #0x2e	; 46
   0504 2E                 3440 	.db #0x2e	; 46
   0505 2E                 3441 	.db #0x2e	; 46
   0506 2F                 3442 	.db #0x2f	; 47
   0507 46                 3443 	.db #0x46	; 70	'F'
   0508 3F                 3444 	.db #0x3f	; 63
   0509 2E                 3445 	.db #0x2e	; 46
   050A 2E                 3446 	.db #0x2e	; 46
   050B 2E                 3447 	.db #0x2e	; 46
   050C 2E                 3448 	.db #0x2e	; 46
   050D 2E                 3449 	.db #0x2e	; 46
   050E 2E                 3450 	.db #0x2e	; 46
   050F 2E                 3451 	.db #0x2e	; 46
   0510 2E                 3452 	.db #0x2e	; 46
   0511 2E                 3453 	.db #0x2e	; 46
   0512 2E                 3454 	.db #0x2e	; 46
   0513 2E                 3455 	.db #0x2e	; 46
   0514 2E                 3456 	.db #0x2e	; 46
   0515 2E                 3457 	.db #0x2e	; 46
   0516 2E                 3458 	.db #0x2e	; 46
   0517 2E                 3459 	.db #0x2e	; 46
   0518 2E                 3460 	.db #0x2e	; 46
   0519 2E                 3461 	.db #0x2e	; 46
   051A 2E                 3462 	.db #0x2e	; 46
   051B 47                 3463 	.db #0x47	; 71	'G'
   051C 34                 3464 	.db #0x34	; 52	'4'
   051D 2E                 3465 	.db #0x2e	; 46
   051E 2E                 3466 	.db #0x2e	; 46
   051F 2E                 3467 	.db #0x2e	; 46
   0520 2E                 3468 	.db #0x2e	; 46
   0521 2E                 3469 	.db #0x2e	; 46
   0522 48                 3470 	.db #0x48	; 72	'H'
   0523 2E                 3471 	.db #0x2e	; 46
   0524 2E                 3472 	.db #0x2e	; 46
   0525 2E                 3473 	.db #0x2e	; 46
   0526 2E                 3474 	.db #0x2e	; 46
   0527 49                 3475 	.db #0x49	; 73	'I'
   0528 2E                 3476 	.db #0x2e	; 46
   0529 2E                 3477 	.db #0x2e	; 46
   052A 2E                 3478 	.db #0x2e	; 46
   052B 2E                 3479 	.db #0x2e	; 46
   052C 2E                 3480 	.db #0x2e	; 46
   052D 2E                 3481 	.db #0x2e	; 46
   052E 2E                 3482 	.db #0x2e	; 46
   052F 47                 3483 	.db #0x47	; 71	'G'
   0530 34                 3484 	.db #0x34	; 52	'4'
   0531 2E                 3485 	.db #0x2e	; 46
   0532 2E                 3486 	.db #0x2e	; 46
   0533 2E                 3487 	.db #0x2e	; 46
   0534 2E                 3488 	.db #0x2e	; 46
   0535 2E                 3489 	.db #0x2e	; 46
   0536 2E                 3490 	.db #0x2e	; 46
   0537 2E                 3491 	.db #0x2e	; 46
   0538 2E                 3492 	.db #0x2e	; 46
   0539 2E                 3493 	.db #0x2e	; 46
   053A 2E                 3494 	.db #0x2e	; 46
   053B 2E                 3495 	.db #0x2e	; 46
   053C 2E                 3496 	.db #0x2e	; 46
   053D 2E                 3497 	.db #0x2e	; 46
   053E 2E                 3498 	.db #0x2e	; 46
   053F 2E                 3499 	.db #0x2e	; 46
   0540 2E                 3500 	.db #0x2e	; 46
   0541 2E                 3501 	.db #0x2e	; 46
   0542 2E                 3502 	.db #0x2e	; 46
   0543 47                 3503 	.db #0x47	; 71	'G'
   0544 37                 3504 	.db #0x37	; 55	'7'
   0545 33                 3505 	.db #0x33	; 51	'3'
   0546 33                 3506 	.db #0x33	; 51	'3'
   0547 33                 3507 	.db #0x33	; 51	'3'
   0548 33                 3508 	.db #0x33	; 51	'3'
   0549 33                 3509 	.db #0x33	; 51	'3'
   054A 33                 3510 	.db #0x33	; 51	'3'
   054B 33                 3511 	.db #0x33	; 51	'3'
   054C 33                 3512 	.db #0x33	; 51	'3'
   054D 33                 3513 	.db #0x33	; 51	'3'
   054E 33                 3514 	.db #0x33	; 51	'3'
   054F 33                 3515 	.db #0x33	; 51	'3'
   0550 33                 3516 	.db #0x33	; 51	'3'
   0551 33                 3517 	.db #0x33	; 51	'3'
   0552 33                 3518 	.db #0x33	; 51	'3'
   0553 33                 3519 	.db #0x33	; 51	'3'
   0554 33                 3520 	.db #0x33	; 51	'3'
   0555 33                 3521 	.db #0x33	; 51	'3'
   0556 33                 3522 	.db #0x33	; 51	'3'
   0557 45                 3523 	.db #0x45	; 69	'E'
   0558 37                 3524 	.db #0x37	; 55	'7'
   0559 37                 3525 	.db #0x37	; 55	'7'
   055A 37                 3526 	.db #0x37	; 55	'7'
   055B 37                 3527 	.db #0x37	; 55	'7'
   055C 37                 3528 	.db #0x37	; 55	'7'
   055D 37                 3529 	.db #0x37	; 55	'7'
   055E 37                 3530 	.db #0x37	; 55	'7'
   055F 37                 3531 	.db #0x37	; 55	'7'
   0560 37                 3532 	.db #0x37	; 55	'7'
   0561 37                 3533 	.db #0x37	; 55	'7'
   0562 37                 3534 	.db #0x37	; 55	'7'
   0563 37                 3535 	.db #0x37	; 55	'7'
   0564 37                 3536 	.db #0x37	; 55	'7'
   0565 37                 3537 	.db #0x37	; 55	'7'
   0566 37                 3538 	.db #0x37	; 55	'7'
   0567 37                 3539 	.db #0x37	; 55	'7'
   0568 37                 3540 	.db #0x37	; 55	'7'
   0569 37                 3541 	.db #0x37	; 55	'7'
   056A 37                 3542 	.db #0x37	; 55	'7'
   056B 37                 3543 	.db #0x37	; 55	'7'
   056C 37                 3544 	.db #0x37	; 55	'7'
   056D 37                 3545 	.db #0x37	; 55	'7'
   056E 37                 3546 	.db #0x37	; 55	'7'
   056F 37                 3547 	.db #0x37	; 55	'7'
   0570 37                 3548 	.db #0x37	; 55	'7'
   0571 37                 3549 	.db #0x37	; 55	'7'
   0572 37                 3550 	.db #0x37	; 55	'7'
   0573 37                 3551 	.db #0x37	; 55	'7'
   0574 37                 3552 	.db #0x37	; 55	'7'
   0575 37                 3553 	.db #0x37	; 55	'7'
   0576 37                 3554 	.db #0x37	; 55	'7'
   0577 37                 3555 	.db #0x37	; 55	'7'
   0578 37                 3556 	.db #0x37	; 55	'7'
   0579 37                 3557 	.db #0x37	; 55	'7'
   057A 37                 3558 	.db #0x37	; 55	'7'
   057B 37                 3559 	.db #0x37	; 55	'7'
   057C 37                 3560 	.db #0x37	; 55	'7'
   057D 37                 3561 	.db #0x37	; 55	'7'
   057E 37                 3562 	.db #0x37	; 55	'7'
   057F 37                 3563 	.db #0x37	; 55	'7'
   0580 37                 3564 	.db #0x37	; 55	'7'
   0581 37                 3565 	.db #0x37	; 55	'7'
   0582 37                 3566 	.db #0x37	; 55	'7'
   0583 37                 3567 	.db #0x37	; 55	'7'
   0584 37                 3568 	.db #0x37	; 55	'7'
   0585 37                 3569 	.db #0x37	; 55	'7'
   0586 37                 3570 	.db #0x37	; 55	'7'
   0587 37                 3571 	.db #0x37	; 55	'7'
   0588 37                 3572 	.db #0x37	; 55	'7'
   0589 37                 3573 	.db #0x37	; 55	'7'
   058A 37                 3574 	.db #0x37	; 55	'7'
   058B 37                 3575 	.db #0x37	; 55	'7'
   058C 37                 3576 	.db #0x37	; 55	'7'
   058D 37                 3577 	.db #0x37	; 55	'7'
   058E 37                 3578 	.db #0x37	; 55	'7'
   058F 37                 3579 	.db #0x37	; 55	'7'
   0590 37                 3580 	.db #0x37	; 55	'7'
   0591 37                 3581 	.db #0x37	; 55	'7'
   0592 37                 3582 	.db #0x37	; 55	'7'
   0593 37                 3583 	.db #0x37	; 55	'7'
   0594 44                 3584 	.db #0x44	; 68	'D'
   0595 43                 3585 	.db #0x43	; 67	'C'
   0596 44                 3586 	.db #0x44	; 68	'D'
   0597 43                 3587 	.db #0x43	; 67	'C'
   0598 44                 3588 	.db #0x44	; 68	'D'
   0599 43                 3589 	.db #0x43	; 67	'C'
   059A 44                 3590 	.db #0x44	; 68	'D'
   059B 43                 3591 	.db #0x43	; 67	'C'
   059C 44                 3592 	.db #0x44	; 68	'D'
   059D 43                 3593 	.db #0x43	; 67	'C'
   059E 44                 3594 	.db #0x44	; 68	'D'
   059F 43                 3595 	.db #0x43	; 67	'C'
   05A0 44                 3596 	.db #0x44	; 68	'D'
   05A1 43                 3597 	.db #0x43	; 67	'C'
   05A2 44                 3598 	.db #0x44	; 68	'D'
   05A3 43                 3599 	.db #0x43	; 67	'C'
   05A4 44                 3600 	.db #0x44	; 68	'D'
   05A5 43                 3601 	.db #0x43	; 67	'C'
   05A6 44                 3602 	.db #0x44	; 68	'D'
   05A7 43                 3603 	.db #0x43	; 67	'C'
   05A8 42                 3604 	.db #0x42	; 66	'B'
   05A9 42                 3605 	.db #0x42	; 66	'B'
   05AA 42                 3606 	.db #0x42	; 66	'B'
   05AB 42                 3607 	.db #0x42	; 66	'B'
   05AC 42                 3608 	.db #0x42	; 66	'B'
   05AD 42                 3609 	.db #0x42	; 66	'B'
   05AE 42                 3610 	.db #0x42	; 66	'B'
   05AF 42                 3611 	.db #0x42	; 66	'B'
   05B0 42                 3612 	.db #0x42	; 66	'B'
   05B1 42                 3613 	.db #0x42	; 66	'B'
   05B2 42                 3614 	.db #0x42	; 66	'B'
   05B3 42                 3615 	.db #0x42	; 66	'B'
   05B4 42                 3616 	.db #0x42	; 66	'B'
   05B5 42                 3617 	.db #0x42	; 66	'B'
   05B6 42                 3618 	.db #0x42	; 66	'B'
   05B7 42                 3619 	.db #0x42	; 66	'B'
   05B8 42                 3620 	.db #0x42	; 66	'B'
   05B9 42                 3621 	.db #0x42	; 66	'B'
   05BA 42                 3622 	.db #0x42	; 66	'B'
   05BB 42                 3623 	.db #0x42	; 66	'B'
   05BC                    3624 _level02:
   05BC 37                 3625 	.db #0x37	; 55	'7'
   05BD 37                 3626 	.db #0x37	; 55	'7'
   05BE 37                 3627 	.db #0x37	; 55	'7'
   05BF 32                 3628 	.db #0x32	; 50	'2'
   05C0 30                 3629 	.db #0x30	; 48	'0'
   05C1 2F                 3630 	.db #0x2f	; 47
   05C2 32                 3631 	.db #0x32	; 50	'2'
   05C3 2F                 3632 	.db #0x2f	; 47
   05C4 30                 3633 	.db #0x30	; 48	'0'
   05C5 31                 3634 	.db #0x31	; 49	'1'
   05C6 31                 3635 	.db #0x31	; 49	'1'
   05C7 30                 3636 	.db #0x30	; 48	'0'
   05C8 32                 3637 	.db #0x32	; 50	'2'
   05C9 2F                 3638 	.db #0x2f	; 47
   05CA 30                 3639 	.db #0x30	; 48	'0'
   05CB 32                 3640 	.db #0x32	; 50	'2'
   05CC 2F                 3641 	.db #0x2f	; 47
   05CD 30                 3642 	.db #0x30	; 48	'0'
   05CE 32                 3643 	.db #0x32	; 50	'2'
   05CF 2F                 3644 	.db #0x2f	; 47
   05D0 32                 3645 	.db #0x32	; 50	'2'
   05D1 32                 3646 	.db #0x32	; 50	'2'
   05D2 2F                 3647 	.db #0x2f	; 47
   05D3 30                 3648 	.db #0x30	; 48	'0'
   05D4 30                 3649 	.db #0x30	; 48	'0'
   05D5 2F                 3650 	.db #0x2f	; 47
   05D6 32                 3651 	.db #0x32	; 50	'2'
   05D7 2F                 3652 	.db #0x2f	; 47
   05D8 31                 3653 	.db #0x31	; 49	'1'
   05D9 37                 3654 	.db #0x37	; 55	'7'
   05DA 37                 3655 	.db #0x37	; 55	'7'
   05DB 37                 3656 	.db #0x37	; 55	'7'
   05DC 37                 3657 	.db #0x37	; 55	'7'
   05DD 37                 3658 	.db #0x37	; 55	'7'
   05DE 31                 3659 	.db #0x31	; 49	'1'
   05DF 30                 3660 	.db #0x30	; 48	'0'
   05E0 2E                 3661 	.db #0x2e	; 46
   05E1 2E                 3662 	.db #0x2e	; 46
   05E2 2E                 3663 	.db #0x2e	; 46
   05E3 2E                 3664 	.db #0x2e	; 46
   05E4 2E                 3665 	.db #0x2e	; 46
   05E5 2E                 3666 	.db #0x2e	; 46
   05E6 2E                 3667 	.db #0x2e	; 46
   05E7 2E                 3668 	.db #0x2e	; 46
   05E8 2E                 3669 	.db #0x2e	; 46
   05E9 2E                 3670 	.db #0x2e	; 46
   05EA 2E                 3671 	.db #0x2e	; 46
   05EB 2E                 3672 	.db #0x2e	; 46
   05EC 2E                 3673 	.db #0x2e	; 46
   05ED 2E                 3674 	.db #0x2e	; 46
   05EE 2E                 3675 	.db #0x2e	; 46
   05EF 2E                 3676 	.db #0x2e	; 46
   05F0 2E                 3677 	.db #0x2e	; 46
   05F1 2E                 3678 	.db #0x2e	; 46
   05F2 2E                 3679 	.db #0x2e	; 46
   05F3 2E                 3680 	.db #0x2e	; 46
   05F4 2E                 3681 	.db #0x2e	; 46
   05F5 2E                 3682 	.db #0x2e	; 46
   05F6 2E                 3683 	.db #0x2e	; 46
   05F7 2E                 3684 	.db #0x2e	; 46
   05F8 2E                 3685 	.db #0x2e	; 46
   05F9 2E                 3686 	.db #0x2e	; 46
   05FA 36                 3687 	.db #0x36	; 54	'6'
   05FB 37                 3688 	.db #0x37	; 55	'7'
   05FC 37                 3689 	.db #0x37	; 55	'7'
   05FD 37                 3690 	.db #0x37	; 55	'7'
   05FE 3C                 3691 	.db #0x3c	; 60
   05FF 2E                 3692 	.db #0x2e	; 46
   0600 2E                 3693 	.db #0x2e	; 46
   0601 2E                 3694 	.db #0x2e	; 46
   0602 2E                 3695 	.db #0x2e	; 46
   0603 2E                 3696 	.db #0x2e	; 46
   0604 2E                 3697 	.db #0x2e	; 46
   0605 2E                 3698 	.db #0x2e	; 46
   0606 2E                 3699 	.db #0x2e	; 46
   0607 2E                 3700 	.db #0x2e	; 46
   0608 2E                 3701 	.db #0x2e	; 46
   0609 2E                 3702 	.db #0x2e	; 46
   060A 2E                 3703 	.db #0x2e	; 46
   060B 2E                 3704 	.db #0x2e	; 46
   060C 2E                 3705 	.db #0x2e	; 46
   060D 2E                 3706 	.db #0x2e	; 46
   060E 2E                 3707 	.db #0x2e	; 46
   060F 2E                 3708 	.db #0x2e	; 46
   0610 2E                 3709 	.db #0x2e	; 46
   0611 2E                 3710 	.db #0x2e	; 46
   0612 2E                 3711 	.db #0x2e	; 46
   0613 2E                 3712 	.db #0x2e	; 46
   0614 2E                 3713 	.db #0x2e	; 46
   0615 2E                 3714 	.db #0x2e	; 46
   0616 2E                 3715 	.db #0x2e	; 46
   0617 2E                 3716 	.db #0x2e	; 46
   0618 2E                 3717 	.db #0x2e	; 46
   0619 2E                 3718 	.db #0x2e	; 46
   061A 2E                 3719 	.db #0x2e	; 46
   061B 38                 3720 	.db #0x38	; 56	'8'
   061C 37                 3721 	.db #0x37	; 55	'7'
   061D 37                 3722 	.db #0x37	; 55	'7'
   061E 37                 3723 	.db #0x37	; 55	'7'
   061F 3E                 3724 	.db #0x3e	; 62
   0620 2E                 3725 	.db #0x2e	; 46
   0621 2E                 3726 	.db #0x2e	; 46
   0622 2E                 3727 	.db #0x2e	; 46
   0623 2E                 3728 	.db #0x2e	; 46
   0624 2E                 3729 	.db #0x2e	; 46
   0625 2E                 3730 	.db #0x2e	; 46
   0626 2E                 3731 	.db #0x2e	; 46
   0627 2E                 3732 	.db #0x2e	; 46
   0628 2E                 3733 	.db #0x2e	; 46
   0629 2E                 3734 	.db #0x2e	; 46
   062A 2E                 3735 	.db #0x2e	; 46
   062B 2E                 3736 	.db #0x2e	; 46
   062C 2E                 3737 	.db #0x2e	; 46
   062D 2E                 3738 	.db #0x2e	; 46
   062E 2E                 3739 	.db #0x2e	; 46
   062F 2E                 3740 	.db #0x2e	; 46
   0630 2E                 3741 	.db #0x2e	; 46
   0631 2E                 3742 	.db #0x2e	; 46
   0632 2E                 3743 	.db #0x2e	; 46
   0633 2E                 3744 	.db #0x2e	; 46
   0634 2E                 3745 	.db #0x2e	; 46
   0635 2E                 3746 	.db #0x2e	; 46
   0636 2E                 3747 	.db #0x2e	; 46
   0637 2E                 3748 	.db #0x2e	; 46
   0638 2E                 3749 	.db #0x2e	; 46
   0639 2E                 3750 	.db #0x2e	; 46
   063A 2E                 3751 	.db #0x2e	; 46
   063B 2E                 3752 	.db #0x2e	; 46
   063C 3A                 3753 	.db #0x3a	; 58
   063D 37                 3754 	.db #0x37	; 55	'7'
   063E 37                 3755 	.db #0x37	; 55	'7'
   063F 37                 3756 	.db #0x37	; 55	'7'
   0640 3E                 3757 	.db #0x3e	; 62
   0641 2E                 3758 	.db #0x2e	; 46
   0642 2E                 3759 	.db #0x2e	; 46
   0643 2E                 3760 	.db #0x2e	; 46
   0644 2E                 3761 	.db #0x2e	; 46
   0645 2E                 3762 	.db #0x2e	; 46
   0646 2E                 3763 	.db #0x2e	; 46
   0647 2E                 3764 	.db #0x2e	; 46
   0648 2E                 3765 	.db #0x2e	; 46
   0649 2E                 3766 	.db #0x2e	; 46
   064A 2E                 3767 	.db #0x2e	; 46
   064B 2E                 3768 	.db #0x2e	; 46
   064C 2E                 3769 	.db #0x2e	; 46
   064D 2E                 3770 	.db #0x2e	; 46
   064E 2E                 3771 	.db #0x2e	; 46
   064F 2E                 3772 	.db #0x2e	; 46
   0650 2E                 3773 	.db #0x2e	; 46
   0651 2E                 3774 	.db #0x2e	; 46
   0652 2E                 3775 	.db #0x2e	; 46
   0653 2E                 3776 	.db #0x2e	; 46
   0654 2E                 3777 	.db #0x2e	; 46
   0655 2E                 3778 	.db #0x2e	; 46
   0656 2E                 3779 	.db #0x2e	; 46
   0657 2E                 3780 	.db #0x2e	; 46
   0658 2E                 3781 	.db #0x2e	; 46
   0659 2E                 3782 	.db #0x2e	; 46
   065A 2E                 3783 	.db #0x2e	; 46
   065B 2E                 3784 	.db #0x2e	; 46
   065C 2E                 3785 	.db #0x2e	; 46
   065D 3A                 3786 	.db #0x3a	; 58
   065E 37                 3787 	.db #0x37	; 55	'7'
   065F 37                 3788 	.db #0x37	; 55	'7'
   0660 37                 3789 	.db #0x37	; 55	'7'
   0661 2E                 3790 	.db #0x2e	; 46
   0662 2E                 3791 	.db #0x2e	; 46
   0663 2E                 3792 	.db #0x2e	; 46
   0664 2E                 3793 	.db #0x2e	; 46
   0665 2E                 3794 	.db #0x2e	; 46
   0666 2E                 3795 	.db #0x2e	; 46
   0667 2E                 3796 	.db #0x2e	; 46
   0668 2E                 3797 	.db #0x2e	; 46
   0669 2E                 3798 	.db #0x2e	; 46
   066A 2E                 3799 	.db #0x2e	; 46
   066B 2E                 3800 	.db #0x2e	; 46
   066C 2E                 3801 	.db #0x2e	; 46
   066D 2E                 3802 	.db #0x2e	; 46
   066E 2E                 3803 	.db #0x2e	; 46
   066F 2E                 3804 	.db #0x2e	; 46
   0670 2E                 3805 	.db #0x2e	; 46
   0671 2E                 3806 	.db #0x2e	; 46
   0672 2E                 3807 	.db #0x2e	; 46
   0673 2E                 3808 	.db #0x2e	; 46
   0674 2E                 3809 	.db #0x2e	; 46
   0675 2E                 3810 	.db #0x2e	; 46
   0676 2E                 3811 	.db #0x2e	; 46
   0677 2E                 3812 	.db #0x2e	; 46
   0678 2E                 3813 	.db #0x2e	; 46
   0679 2E                 3814 	.db #0x2e	; 46
   067A 2E                 3815 	.db #0x2e	; 46
   067B 2E                 3816 	.db #0x2e	; 46
   067C 2E                 3817 	.db #0x2e	; 46
   067D 2E                 3818 	.db #0x2e	; 46
   067E 38                 3819 	.db #0x38	; 56	'8'
   067F 37                 3820 	.db #0x37	; 55	'7'
   0680 37                 3821 	.db #0x37	; 55	'7'
   0681 37                 3822 	.db #0x37	; 55	'7'
   0682 2E                 3823 	.db #0x2e	; 46
   0683 2E                 3824 	.db #0x2e	; 46
   0684 2E                 3825 	.db #0x2e	; 46
   0685 2E                 3826 	.db #0x2e	; 46
   0686 2E                 3827 	.db #0x2e	; 46
   0687 2E                 3828 	.db #0x2e	; 46
   0688 2E                 3829 	.db #0x2e	; 46
   0689 2E                 3830 	.db #0x2e	; 46
   068A 2E                 3831 	.db #0x2e	; 46
   068B 2E                 3832 	.db #0x2e	; 46
   068C 2E                 3833 	.db #0x2e	; 46
   068D 2E                 3834 	.db #0x2e	; 46
   068E 2E                 3835 	.db #0x2e	; 46
   068F 2E                 3836 	.db #0x2e	; 46
   0690 2E                 3837 	.db #0x2e	; 46
   0691 2E                 3838 	.db #0x2e	; 46
   0692 2E                 3839 	.db #0x2e	; 46
   0693 2E                 3840 	.db #0x2e	; 46
   0694 2E                 3841 	.db #0x2e	; 46
   0695 2E                 3842 	.db #0x2e	; 46
   0696 2E                 3843 	.db #0x2e	; 46
   0697 2E                 3844 	.db #0x2e	; 46
   0698 2E                 3845 	.db #0x2e	; 46
   0699 2E                 3846 	.db #0x2e	; 46
   069A 2E                 3847 	.db #0x2e	; 46
   069B 2E                 3848 	.db #0x2e	; 46
   069C 2E                 3849 	.db #0x2e	; 46
   069D 2E                 3850 	.db #0x2e	; 46
   069E 2E                 3851 	.db #0x2e	; 46
   069F 3A                 3852 	.db #0x3a	; 58
   06A0 37                 3853 	.db #0x37	; 55	'7'
   06A1 37                 3854 	.db #0x37	; 55	'7'
   06A2 37                 3855 	.db #0x37	; 55	'7'
   06A3 2E                 3856 	.db #0x2e	; 46
   06A4 2E                 3857 	.db #0x2e	; 46
   06A5 2E                 3858 	.db #0x2e	; 46
   06A6 2E                 3859 	.db #0x2e	; 46
   06A7 2E                 3860 	.db #0x2e	; 46
   06A8 2E                 3861 	.db #0x2e	; 46
   06A9 2E                 3862 	.db #0x2e	; 46
   06AA 2E                 3863 	.db #0x2e	; 46
   06AB 2E                 3864 	.db #0x2e	; 46
   06AC 2E                 3865 	.db #0x2e	; 46
   06AD 2E                 3866 	.db #0x2e	; 46
   06AE 2E                 3867 	.db #0x2e	; 46
   06AF 2E                 3868 	.db #0x2e	; 46
   06B0 2E                 3869 	.db #0x2e	; 46
   06B1 2E                 3870 	.db #0x2e	; 46
   06B2 2E                 3871 	.db #0x2e	; 46
   06B3 48                 3872 	.db #0x48	; 72	'H'
   06B4 2E                 3873 	.db #0x2e	; 46
   06B5 2E                 3874 	.db #0x2e	; 46
   06B6 2E                 3875 	.db #0x2e	; 46
   06B7 2E                 3876 	.db #0x2e	; 46
   06B8 2E                 3877 	.db #0x2e	; 46
   06B9 2E                 3878 	.db #0x2e	; 46
   06BA 2E                 3879 	.db #0x2e	; 46
   06BB 2E                 3880 	.db #0x2e	; 46
   06BC 2E                 3881 	.db #0x2e	; 46
   06BD 2E                 3882 	.db #0x2e	; 46
   06BE 2E                 3883 	.db #0x2e	; 46
   06BF 2E                 3884 	.db #0x2e	; 46
   06C0 39                 3885 	.db #0x39	; 57	'9'
   06C1 37                 3886 	.db #0x37	; 55	'7'
   06C2 37                 3887 	.db #0x37	; 55	'7'
   06C3 37                 3888 	.db #0x37	; 55	'7'
   06C4 2E                 3889 	.db #0x2e	; 46
   06C5 2E                 3890 	.db #0x2e	; 46
   06C6 2E                 3891 	.db #0x2e	; 46
   06C7 2E                 3892 	.db #0x2e	; 46
   06C8 2E                 3893 	.db #0x2e	; 46
   06C9 2E                 3894 	.db #0x2e	; 46
   06CA 2E                 3895 	.db #0x2e	; 46
   06CB 2E                 3896 	.db #0x2e	; 46
   06CC 2E                 3897 	.db #0x2e	; 46
   06CD 2E                 3898 	.db #0x2e	; 46
   06CE 2E                 3899 	.db #0x2e	; 46
   06CF 2E                 3900 	.db #0x2e	; 46
   06D0 2E                 3901 	.db #0x2e	; 46
   06D1 2E                 3902 	.db #0x2e	; 46
   06D2 2E                 3903 	.db #0x2e	; 46
   06D3 2E                 3904 	.db #0x2e	; 46
   06D4 2E                 3905 	.db #0x2e	; 46
   06D5 2E                 3906 	.db #0x2e	; 46
   06D6 2E                 3907 	.db #0x2e	; 46
   06D7 2E                 3908 	.db #0x2e	; 46
   06D8 2E                 3909 	.db #0x2e	; 46
   06D9 2E                 3910 	.db #0x2e	; 46
   06DA 2E                 3911 	.db #0x2e	; 46
   06DB 2E                 3912 	.db #0x2e	; 46
   06DC 2E                 3913 	.db #0x2e	; 46
   06DD 2E                 3914 	.db #0x2e	; 46
   06DE 2E                 3915 	.db #0x2e	; 46
   06DF 2E                 3916 	.db #0x2e	; 46
   06E0 2E                 3917 	.db #0x2e	; 46
   06E1 38                 3918 	.db #0x38	; 56	'8'
   06E2 37                 3919 	.db #0x37	; 55	'7'
   06E3 37                 3920 	.db #0x37	; 55	'7'
   06E4 37                 3921 	.db #0x37	; 55	'7'
   06E5 2E                 3922 	.db #0x2e	; 46
   06E6 2E                 3923 	.db #0x2e	; 46
   06E7 2E                 3924 	.db #0x2e	; 46
   06E8 2E                 3925 	.db #0x2e	; 46
   06E9 2E                 3926 	.db #0x2e	; 46
   06EA 2E                 3927 	.db #0x2e	; 46
   06EB 2E                 3928 	.db #0x2e	; 46
   06EC 2E                 3929 	.db #0x2e	; 46
   06ED 2E                 3930 	.db #0x2e	; 46
   06EE 2E                 3931 	.db #0x2e	; 46
   06EF 2E                 3932 	.db #0x2e	; 46
   06F0 2E                 3933 	.db #0x2e	; 46
   06F1 48                 3934 	.db #0x48	; 72	'H'
   06F2 2E                 3935 	.db #0x2e	; 46
   06F3 2E                 3936 	.db #0x2e	; 46
   06F4 2E                 3937 	.db #0x2e	; 46
   06F5 2E                 3938 	.db #0x2e	; 46
   06F6 2E                 3939 	.db #0x2e	; 46
   06F7 2E                 3940 	.db #0x2e	; 46
   06F8 2E                 3941 	.db #0x2e	; 46
   06F9 2E                 3942 	.db #0x2e	; 46
   06FA 2E                 3943 	.db #0x2e	; 46
   06FB 2E                 3944 	.db #0x2e	; 46
   06FC 2E                 3945 	.db #0x2e	; 46
   06FD 2E                 3946 	.db #0x2e	; 46
   06FE 2E                 3947 	.db #0x2e	; 46
   06FF 2E                 3948 	.db #0x2e	; 46
   0700 2E                 3949 	.db #0x2e	; 46
   0701 2E                 3950 	.db #0x2e	; 46
   0702 3A                 3951 	.db #0x3a	; 58
   0703 37                 3952 	.db #0x37	; 55	'7'
   0704 37                 3953 	.db #0x37	; 55	'7'
   0705 37                 3954 	.db #0x37	; 55	'7'
   0706 2E                 3955 	.db #0x2e	; 46
   0707 2E                 3956 	.db #0x2e	; 46
   0708 2E                 3957 	.db #0x2e	; 46
   0709 33                 3958 	.db #0x33	; 51	'3'
   070A 33                 3959 	.db #0x33	; 51	'3'
   070B 33                 3960 	.db #0x33	; 51	'3'
   070C 33                 3961 	.db #0x33	; 51	'3'
   070D 33                 3962 	.db #0x33	; 51	'3'
   070E 33                 3963 	.db #0x33	; 51	'3'
   070F 33                 3964 	.db #0x33	; 51	'3'
   0710 2E                 3965 	.db #0x2e	; 46
   0711 2E                 3966 	.db #0x2e	; 46
   0712 2E                 3967 	.db #0x2e	; 46
   0713 2E                 3968 	.db #0x2e	; 46
   0714 2E                 3969 	.db #0x2e	; 46
   0715 2E                 3970 	.db #0x2e	; 46
   0716 2E                 3971 	.db #0x2e	; 46
   0717 2E                 3972 	.db #0x2e	; 46
   0718 2E                 3973 	.db #0x2e	; 46
   0719 2E                 3974 	.db #0x2e	; 46
   071A 2E                 3975 	.db #0x2e	; 46
   071B 2E                 3976 	.db #0x2e	; 46
   071C 2E                 3977 	.db #0x2e	; 46
   071D 2E                 3978 	.db #0x2e	; 46
   071E 2E                 3979 	.db #0x2e	; 46
   071F 2E                 3980 	.db #0x2e	; 46
   0720 2E                 3981 	.db #0x2e	; 46
   0721 2E                 3982 	.db #0x2e	; 46
   0722 2E                 3983 	.db #0x2e	; 46
   0723 2E                 3984 	.db #0x2e	; 46
   0724 2F                 3985 	.db #0x2f	; 47
   0725 31                 3986 	.db #0x31	; 49	'1'
   0726 37                 3987 	.db #0x37	; 55	'7'
   0727 2E                 3988 	.db #0x2e	; 46
   0728 2E                 3989 	.db #0x2e	; 46
   0729 2E                 3990 	.db #0x2e	; 46
   072A 36                 3991 	.db #0x36	; 54	'6'
   072B 37                 3992 	.db #0x37	; 55	'7'
   072C 37                 3993 	.db #0x37	; 55	'7'
   072D 37                 3994 	.db #0x37	; 55	'7'
   072E 37                 3995 	.db #0x37	; 55	'7'
   072F 37                 3996 	.db #0x37	; 55	'7'
   0730 34                 3997 	.db #0x34	; 52	'4'
   0731 2E                 3998 	.db #0x2e	; 46
   0732 2E                 3999 	.db #0x2e	; 46
   0733 2E                 4000 	.db #0x2e	; 46
   0734 2E                 4001 	.db #0x2e	; 46
   0735 2E                 4002 	.db #0x2e	; 46
   0736 2E                 4003 	.db #0x2e	; 46
   0737 33                 4004 	.db #0x33	; 51	'3'
   0738 2E                 4005 	.db #0x2e	; 46
   0739 2E                 4006 	.db #0x2e	; 46
   073A 2E                 4007 	.db #0x2e	; 46
   073B 2E                 4008 	.db #0x2e	; 46
   073C 2E                 4009 	.db #0x2e	; 46
   073D 2E                 4010 	.db #0x2e	; 46
   073E 2E                 4011 	.db #0x2e	; 46
   073F 2E                 4012 	.db #0x2e	; 46
   0740 2E                 4013 	.db #0x2e	; 46
   0741 2E                 4014 	.db #0x2e	; 46
   0742 2E                 4015 	.db #0x2e	; 46
   0743 2E                 4016 	.db #0x2e	; 46
   0744 2E                 4017 	.db #0x2e	; 46
   0745 2E                 4018 	.db #0x2e	; 46
   0746 2E                 4019 	.db #0x2e	; 46
   0747 46                 4020 	.db #0x46	; 70	'F'
   0748 2E                 4021 	.db #0x2e	; 46
   0749 2E                 4022 	.db #0x2e	; 46
   074A 2E                 4023 	.db #0x2e	; 46
   074B 38                 4024 	.db #0x38	; 56	'8'
   074C 37                 4025 	.db #0x37	; 55	'7'
   074D 37                 4026 	.db #0x37	; 55	'7'
   074E 37                 4027 	.db #0x37	; 55	'7'
   074F 37                 4028 	.db #0x37	; 55	'7'
   0750 37                 4029 	.db #0x37	; 55	'7'
   0751 34                 4030 	.db #0x34	; 52	'4'
   0752 2E                 4031 	.db #0x2e	; 46
   0753 2E                 4032 	.db #0x2e	; 46
   0754 2E                 4033 	.db #0x2e	; 46
   0755 2E                 4034 	.db #0x2e	; 46
   0756 2E                 4035 	.db #0x2e	; 46
   0757 2E                 4036 	.db #0x2e	; 46
   0758 37                 4037 	.db #0x37	; 55	'7'
   0759 2E                 4038 	.db #0x2e	; 46
   075A 48                 4039 	.db #0x48	; 72	'H'
   075B 2E                 4040 	.db #0x2e	; 46
   075C 2E                 4041 	.db #0x2e	; 46
   075D 2E                 4042 	.db #0x2e	; 46
   075E 2E                 4043 	.db #0x2e	; 46
   075F 2E                 4044 	.db #0x2e	; 46
   0760 2E                 4045 	.db #0x2e	; 46
   0761 2E                 4046 	.db #0x2e	; 46
   0762 2E                 4047 	.db #0x2e	; 46
   0763 2E                 4048 	.db #0x2e	; 46
   0764 2E                 4049 	.db #0x2e	; 46
   0765 2E                 4050 	.db #0x2e	; 46
   0766 2E                 4051 	.db #0x2e	; 46
   0767 2E                 4052 	.db #0x2e	; 46
   0768 47                 4053 	.db #0x47	; 71	'G'
   0769 2E                 4054 	.db #0x2e	; 46
   076A 2E                 4055 	.db #0x2e	; 46
   076B 2E                 4056 	.db #0x2e	; 46
   076C 3B                 4057 	.db #0x3b	; 59
   076D 37                 4058 	.db #0x37	; 55	'7'
   076E 37                 4059 	.db #0x37	; 55	'7'
   076F 37                 4060 	.db #0x37	; 55	'7'
   0770 37                 4061 	.db #0x37	; 55	'7'
   0771 37                 4062 	.db #0x37	; 55	'7'
   0772 3C                 4063 	.db #0x3c	; 60
   0773 2E                 4064 	.db #0x2e	; 46
   0774 2E                 4065 	.db #0x2e	; 46
   0775 2E                 4066 	.db #0x2e	; 46
   0776 2E                 4067 	.db #0x2e	; 46
   0777 2E                 4068 	.db #0x2e	; 46
   0778 2E                 4069 	.db #0x2e	; 46
   0779 37                 4070 	.db #0x37	; 55	'7'
   077A 2E                 4071 	.db #0x2e	; 46
   077B 2E                 4072 	.db #0x2e	; 46
   077C 2E                 4073 	.db #0x2e	; 46
   077D 2E                 4074 	.db #0x2e	; 46
   077E 2E                 4075 	.db #0x2e	; 46
   077F 2E                 4076 	.db #0x2e	; 46
   0780 2E                 4077 	.db #0x2e	; 46
   0781 2E                 4078 	.db #0x2e	; 46
   0782 2E                 4079 	.db #0x2e	; 46
   0783 2E                 4080 	.db #0x2e	; 46
   0784 2E                 4081 	.db #0x2e	; 46
   0785 2E                 4082 	.db #0x2e	; 46
   0786 2E                 4083 	.db #0x2e	; 46
   0787 2E                 4084 	.db #0x2e	; 46
   0788 2E                 4085 	.db #0x2e	; 46
   0789 47                 4086 	.db #0x47	; 71	'G'
   078A 2E                 4087 	.db #0x2e	; 46
   078B 2E                 4088 	.db #0x2e	; 46
   078C 2E                 4089 	.db #0x2e	; 46
   078D 38                 4090 	.db #0x38	; 56	'8'
   078E 37                 4091 	.db #0x37	; 55	'7'
   078F 37                 4092 	.db #0x37	; 55	'7'
   0790 37                 4093 	.db #0x37	; 55	'7'
   0791 37                 4094 	.db #0x37	; 55	'7'
   0792 37                 4095 	.db #0x37	; 55	'7'
   0793 3E                 4096 	.db #0x3e	; 62
   0794 2E                 4097 	.db #0x2e	; 46
   0795 2E                 4098 	.db #0x2e	; 46
   0796 2E                 4099 	.db #0x2e	; 46
   0797 2E                 4100 	.db #0x2e	; 46
   0798 2E                 4101 	.db #0x2e	; 46
   0799 2E                 4102 	.db #0x2e	; 46
   079A 2F                 4103 	.db #0x2f	; 47
   079B 2E                 4104 	.db #0x2e	; 46
   079C 2E                 4105 	.db #0x2e	; 46
   079D 33                 4106 	.db #0x33	; 51	'3'
   079E 33                 4107 	.db #0x33	; 51	'3'
   079F 33                 4108 	.db #0x33	; 51	'3'
   07A0 33                 4109 	.db #0x33	; 51	'3'
   07A1 33                 4110 	.db #0x33	; 51	'3'
   07A2 33                 4111 	.db #0x33	; 51	'3'
   07A3 33                 4112 	.db #0x33	; 51	'3'
   07A4 33                 4113 	.db #0x33	; 51	'3'
   07A5 33                 4114 	.db #0x33	; 51	'3'
   07A6 33                 4115 	.db #0x33	; 51	'3'
   07A7 33                 4116 	.db #0x33	; 51	'3'
   07A8 33                 4117 	.db #0x33	; 51	'3'
   07A9 33                 4118 	.db #0x33	; 51	'3'
   07AA 45                 4119 	.db #0x45	; 69	'E'
   07AB 2E                 4120 	.db #0x2e	; 46
   07AC 2E                 4121 	.db #0x2e	; 46
   07AD 2E                 4122 	.db #0x2e	; 46
   07AE 3A                 4123 	.db #0x3a	; 58
   07AF 37                 4124 	.db #0x37	; 55	'7'
   07B0 37                 4125 	.db #0x37	; 55	'7'
   07B1 37                 4126 	.db #0x37	; 55	'7'
   07B2 37                 4127 	.db #0x37	; 55	'7'
   07B3 37                 4128 	.db #0x37	; 55	'7'
   07B4 3D                 4129 	.db #0x3d	; 61
   07B5 2E                 4130 	.db #0x2e	; 46
   07B6 2E                 4131 	.db #0x2e	; 46
   07B7 2E                 4132 	.db #0x2e	; 46
   07B8 2E                 4133 	.db #0x2e	; 46
   07B9 2E                 4134 	.db #0x2e	; 46
   07BA 2E                 4135 	.db #0x2e	; 46
   07BB 2E                 4136 	.db #0x2e	; 46
   07BC 2E                 4137 	.db #0x2e	; 46
   07BD 2E                 4138 	.db #0x2e	; 46
   07BE 38                 4139 	.db #0x38	; 56	'8'
   07BF 37                 4140 	.db #0x37	; 55	'7'
   07C0 37                 4141 	.db #0x37	; 55	'7'
   07C1 37                 4142 	.db #0x37	; 55	'7'
   07C2 37                 4143 	.db #0x37	; 55	'7'
   07C3 37                 4144 	.db #0x37	; 55	'7'
   07C4 37                 4145 	.db #0x37	; 55	'7'
   07C5 37                 4146 	.db #0x37	; 55	'7'
   07C6 37                 4147 	.db #0x37	; 55	'7'
   07C7 37                 4148 	.db #0x37	; 55	'7'
   07C8 37                 4149 	.db #0x37	; 55	'7'
   07C9 37                 4150 	.db #0x37	; 55	'7'
   07CA 37                 4151 	.db #0x37	; 55	'7'
   07CB 37                 4152 	.db #0x37	; 55	'7'
   07CC 2E                 4153 	.db #0x2e	; 46
   07CD 2E                 4154 	.db #0x2e	; 46
   07CE 2E                 4155 	.db #0x2e	; 46
   07CF 2E                 4156 	.db #0x2e	; 46
   07D0 2F                 4157 	.db #0x2f	; 47
   07D1 31                 4158 	.db #0x31	; 49	'1'
   07D2 32                 4159 	.db #0x32	; 50	'2'
   07D3 32                 4160 	.db #0x32	; 50	'2'
   07D4 30                 4161 	.db #0x30	; 48	'0'
   07D5 2F                 4162 	.db #0x2f	; 47
   07D6 2E                 4163 	.db #0x2e	; 46
   07D7 2E                 4164 	.db #0x2e	; 46
   07D8 2E                 4165 	.db #0x2e	; 46
   07D9 2E                 4166 	.db #0x2e	; 46
   07DA 2E                 4167 	.db #0x2e	; 46
   07DB 2E                 4168 	.db #0x2e	; 46
   07DC 2E                 4169 	.db #0x2e	; 46
   07DD 2E                 4170 	.db #0x2e	; 46
   07DE 2E                 4171 	.db #0x2e	; 46
   07DF 39                 4172 	.db #0x39	; 57	'9'
   07E0 37                 4173 	.db #0x37	; 55	'7'
   07E1 37                 4174 	.db #0x37	; 55	'7'
   07E2 37                 4175 	.db #0x37	; 55	'7'
   07E3 37                 4176 	.db #0x37	; 55	'7'
   07E4 37                 4177 	.db #0x37	; 55	'7'
   07E5 37                 4178 	.db #0x37	; 55	'7'
   07E6 37                 4179 	.db #0x37	; 55	'7'
   07E7 37                 4180 	.db #0x37	; 55	'7'
   07E8 37                 4181 	.db #0x37	; 55	'7'
   07E9 37                 4182 	.db #0x37	; 55	'7'
   07EA 37                 4183 	.db #0x37	; 55	'7'
   07EB 37                 4184 	.db #0x37	; 55	'7'
   07EC 37                 4185 	.db #0x37	; 55	'7'
   07ED 40                 4186 	.db #0x40	; 64
   07EE 41                 4187 	.db #0x41	; 65	'A'
   07EF 40                 4188 	.db #0x40	; 64
   07F0 41                 4189 	.db #0x41	; 65	'A'
   07F1 40                 4190 	.db #0x40	; 64
   07F2 41                 4191 	.db #0x41	; 65	'A'
   07F3 40                 4192 	.db #0x40	; 64
   07F4 41                 4193 	.db #0x41	; 65	'A'
   07F5 40                 4194 	.db #0x40	; 64
   07F6 41                 4195 	.db #0x41	; 65	'A'
   07F7 40                 4196 	.db #0x40	; 64
   07F8 41                 4197 	.db #0x41	; 65	'A'
   07F9 40                 4198 	.db #0x40	; 64
   07FA 41                 4199 	.db #0x41	; 65	'A'
   07FB 40                 4200 	.db #0x40	; 64
   07FC 41                 4201 	.db #0x41	; 65	'A'
   07FD 40                 4202 	.db #0x40	; 64
   07FE 41                 4203 	.db #0x41	; 65	'A'
   07FF 40                 4204 	.db #0x40	; 64
   0800 44                 4205 	.db #0x44	; 68	'D'
   0801 43                 4206 	.db #0x43	; 67	'C'
   0802 44                 4207 	.db #0x44	; 68	'D'
   0803 43                 4208 	.db #0x43	; 67	'C'
   0804 44                 4209 	.db #0x44	; 68	'D'
   0805 43                 4210 	.db #0x43	; 67	'C'
   0806 44                 4211 	.db #0x44	; 68	'D'
   0807 43                 4212 	.db #0x43	; 67	'C'
   0808 44                 4213 	.db #0x44	; 68	'D'
   0809 43                 4214 	.db #0x43	; 67	'C'
   080A 44                 4215 	.db #0x44	; 68	'D'
   080B 43                 4216 	.db #0x43	; 67	'C'
   080C 44                 4217 	.db #0x44	; 68	'D'
   080D 43                 4218 	.db #0x43	; 67	'C'
   080E                    4219 _test_level:
   080E 37                 4220 	.db #0x37	; 55	'7'
   080F 31                 4221 	.db #0x31	; 49	'1'
   0810 2F                 4222 	.db #0x2f	; 47
   0811 32                 4223 	.db #0x32	; 50	'2'
   0812 32                 4224 	.db #0x32	; 50	'2'
   0813 2F                 4225 	.db #0x2f	; 47
   0814 30                 4226 	.db #0x30	; 48	'0'
   0815 31                 4227 	.db #0x31	; 49	'1'
   0816 32                 4228 	.db #0x32	; 50	'2'
   0817 2F                 4229 	.db #0x2f	; 47
   0818 32                 4230 	.db #0x32	; 50	'2'
   0819 2F                 4231 	.db #0x2f	; 47
   081A 31                 4232 	.db #0x31	; 49	'1'
   081B 30                 4233 	.db #0x30	; 48	'0'
   081C 2F                 4234 	.db #0x2f	; 47
   081D 32                 4235 	.db #0x32	; 50	'2'
   081E 32                 4236 	.db #0x32	; 50	'2'
   081F 31                 4237 	.db #0x31	; 49	'1'
   0820 37                 4238 	.db #0x37	; 55	'7'
   0821 37                 4239 	.db #0x37	; 55	'7'
   0822 3C                 4240 	.db #0x3c	; 60
   0823 2E                 4241 	.db #0x2e	; 46
   0824 2E                 4242 	.db #0x2e	; 46
   0825 2E                 4243 	.db #0x2e	; 46
   0826 2E                 4244 	.db #0x2e	; 46
   0827 2E                 4245 	.db #0x2e	; 46
   0828 2E                 4246 	.db #0x2e	; 46
   0829 2E                 4247 	.db #0x2e	; 46
   082A 2E                 4248 	.db #0x2e	; 46
   082B 2E                 4249 	.db #0x2e	; 46
   082C 2E                 4250 	.db #0x2e	; 46
   082D 2E                 4251 	.db #0x2e	; 46
   082E 2E                 4252 	.db #0x2e	; 46
   082F 2E                 4253 	.db #0x2e	; 46
   0830 2E                 4254 	.db #0x2e	; 46
   0831 2E                 4255 	.db #0x2e	; 46
   0832 2E                 4256 	.db #0x2e	; 46
   0833 2E                 4257 	.db #0x2e	; 46
   0834 38                 4258 	.db #0x38	; 56	'8'
   0835 37                 4259 	.db #0x37	; 55	'7'
   0836 3D                 4260 	.db #0x3d	; 61
   0837 2E                 4261 	.db #0x2e	; 46
   0838 2E                 4262 	.db #0x2e	; 46
   0839 48                 4263 	.db #0x48	; 72	'H'
   083A 2E                 4264 	.db #0x2e	; 46
   083B 2E                 4265 	.db #0x2e	; 46
   083C 2E                 4266 	.db #0x2e	; 46
   083D 2E                 4267 	.db #0x2e	; 46
   083E 2E                 4268 	.db #0x2e	; 46
   083F 48                 4269 	.db #0x48	; 72	'H'
   0840 2E                 4270 	.db #0x2e	; 46
   0841 2E                 4271 	.db #0x2e	; 46
   0842 2E                 4272 	.db #0x2e	; 46
   0843 2E                 4273 	.db #0x2e	; 46
   0844 2E                 4274 	.db #0x2e	; 46
   0845 48                 4275 	.db #0x48	; 72	'H'
   0846 2E                 4276 	.db #0x2e	; 46
   0847 2E                 4277 	.db #0x2e	; 46
   0848 39                 4278 	.db #0x39	; 57	'9'
   0849 37                 4279 	.db #0x37	; 55	'7'
   084A 3C                 4280 	.db #0x3c	; 60
   084B 2E                 4281 	.db #0x2e	; 46
   084C 2E                 4282 	.db #0x2e	; 46
   084D 2E                 4283 	.db #0x2e	; 46
   084E 2E                 4284 	.db #0x2e	; 46
   084F 2E                 4285 	.db #0x2e	; 46
   0850 48                 4286 	.db #0x48	; 72	'H'
   0851 2E                 4287 	.db #0x2e	; 46
   0852 2E                 4288 	.db #0x2e	; 46
   0853 2E                 4289 	.db #0x2e	; 46
   0854 2E                 4290 	.db #0x2e	; 46
   0855 2E                 4291 	.db #0x2e	; 46
   0856 48                 4292 	.db #0x48	; 72	'H'
   0857 2E                 4293 	.db #0x2e	; 46
   0858 2E                 4294 	.db #0x2e	; 46
   0859 2E                 4295 	.db #0x2e	; 46
   085A 2E                 4296 	.db #0x2e	; 46
   085B 2E                 4297 	.db #0x2e	; 46
   085C 38                 4298 	.db #0x38	; 56	'8'
   085D 37                 4299 	.db #0x37	; 55	'7'
   085E 3F                 4300 	.db #0x3f	; 63
   085F 2E                 4301 	.db #0x2e	; 46
   0860 2E                 4302 	.db #0x2e	; 46
   0861 2E                 4303 	.db #0x2e	; 46
   0862 2E                 4304 	.db #0x2e	; 46
   0863 2E                 4305 	.db #0x2e	; 46
   0864 2E                 4306 	.db #0x2e	; 46
   0865 2E                 4307 	.db #0x2e	; 46
   0866 2E                 4308 	.db #0x2e	; 46
   0867 2E                 4309 	.db #0x2e	; 46
   0868 2E                 4310 	.db #0x2e	; 46
   0869 2E                 4311 	.db #0x2e	; 46
   086A 2E                 4312 	.db #0x2e	; 46
   086B 2E                 4313 	.db #0x2e	; 46
   086C 2E                 4314 	.db #0x2e	; 46
   086D 2E                 4315 	.db #0x2e	; 46
   086E 2E                 4316 	.db #0x2e	; 46
   086F 2E                 4317 	.db #0x2e	; 46
   0870 3A                 4318 	.db #0x3a	; 58
   0871 37                 4319 	.db #0x37	; 55	'7'
   0872 3D                 4320 	.db #0x3d	; 61
   0873 2E                 4321 	.db #0x2e	; 46
   0874 2E                 4322 	.db #0x2e	; 46
   0875 2E                 4323 	.db #0x2e	; 46
   0876 2E                 4324 	.db #0x2e	; 46
   0877 2E                 4325 	.db #0x2e	; 46
   0878 2E                 4326 	.db #0x2e	; 46
   0879 2E                 4327 	.db #0x2e	; 46
   087A 2E                 4328 	.db #0x2e	; 46
   087B 2E                 4329 	.db #0x2e	; 46
   087C 2E                 4330 	.db #0x2e	; 46
   087D 2E                 4331 	.db #0x2e	; 46
   087E 2E                 4332 	.db #0x2e	; 46
   087F 2E                 4333 	.db #0x2e	; 46
   0880 2E                 4334 	.db #0x2e	; 46
   0881 2E                 4335 	.db #0x2e	; 46
   0882 2E                 4336 	.db #0x2e	; 46
   0883 2E                 4337 	.db #0x2e	; 46
   0884 39                 4338 	.db #0x39	; 57	'9'
   0885 37                 4339 	.db #0x37	; 55	'7'
   0886 3C                 4340 	.db #0x3c	; 60
   0887 2E                 4341 	.db #0x2e	; 46
   0888 2E                 4342 	.db #0x2e	; 46
   0889 2E                 4343 	.db #0x2e	; 46
   088A 2E                 4344 	.db #0x2e	; 46
   088B 2E                 4345 	.db #0x2e	; 46
   088C 2E                 4346 	.db #0x2e	; 46
   088D 2E                 4347 	.db #0x2e	; 46
   088E 2E                 4348 	.db #0x2e	; 46
   088F 2E                 4349 	.db #0x2e	; 46
   0890 2E                 4350 	.db #0x2e	; 46
   0891 2E                 4351 	.db #0x2e	; 46
   0892 2E                 4352 	.db #0x2e	; 46
   0893 2E                 4353 	.db #0x2e	; 46
   0894 2E                 4354 	.db #0x2e	; 46
   0895 2E                 4355 	.db #0x2e	; 46
   0896 2E                 4356 	.db #0x2e	; 46
   0897 2E                 4357 	.db #0x2e	; 46
   0898 36                 4358 	.db #0x36	; 54	'6'
   0899 37                 4359 	.db #0x37	; 55	'7'
   089A 3C                 4360 	.db #0x3c	; 60
   089B 2E                 4361 	.db #0x2e	; 46
   089C 2E                 4362 	.db #0x2e	; 46
   089D 2E                 4363 	.db #0x2e	; 46
   089E 2E                 4364 	.db #0x2e	; 46
   089F 2E                 4365 	.db #0x2e	; 46
   08A0 2E                 4366 	.db #0x2e	; 46
   08A1 2E                 4367 	.db #0x2e	; 46
   08A2 2E                 4368 	.db #0x2e	; 46
   08A3 2E                 4369 	.db #0x2e	; 46
   08A4 2E                 4370 	.db #0x2e	; 46
   08A5 2E                 4371 	.db #0x2e	; 46
   08A6 2E                 4372 	.db #0x2e	; 46
   08A7 2E                 4373 	.db #0x2e	; 46
   08A8 2E                 4374 	.db #0x2e	; 46
   08A9 2E                 4375 	.db #0x2e	; 46
   08AA 2E                 4376 	.db #0x2e	; 46
   08AB 2E                 4377 	.db #0x2e	; 46
   08AC 36                 4378 	.db #0x36	; 54	'6'
   08AD 37                 4379 	.db #0x37	; 55	'7'
   08AE 3D                 4380 	.db #0x3d	; 61
   08AF 2E                 4381 	.db #0x2e	; 46
   08B0 2E                 4382 	.db #0x2e	; 46
   08B1 2E                 4383 	.db #0x2e	; 46
   08B2 2E                 4384 	.db #0x2e	; 46
   08B3 2E                 4385 	.db #0x2e	; 46
   08B4 2E                 4386 	.db #0x2e	; 46
   08B5 2E                 4387 	.db #0x2e	; 46
   08B6 2E                 4388 	.db #0x2e	; 46
   08B7 2E                 4389 	.db #0x2e	; 46
   08B8 2E                 4390 	.db #0x2e	; 46
   08B9 2E                 4391 	.db #0x2e	; 46
   08BA 2E                 4392 	.db #0x2e	; 46
   08BB 2E                 4393 	.db #0x2e	; 46
   08BC 2E                 4394 	.db #0x2e	; 46
   08BD 2E                 4395 	.db #0x2e	; 46
   08BE 2E                 4396 	.db #0x2e	; 46
   08BF 2E                 4397 	.db #0x2e	; 46
   08C0 36                 4398 	.db #0x36	; 54	'6'
   08C1 37                 4399 	.db #0x37	; 55	'7'
   08C2 3F                 4400 	.db #0x3f	; 63
   08C3 2E                 4401 	.db #0x2e	; 46
   08C4 2E                 4402 	.db #0x2e	; 46
   08C5 2E                 4403 	.db #0x2e	; 46
   08C6 2E                 4404 	.db #0x2e	; 46
   08C7 2E                 4405 	.db #0x2e	; 46
   08C8 2E                 4406 	.db #0x2e	; 46
   08C9 2E                 4407 	.db #0x2e	; 46
   08CA 2E                 4408 	.db #0x2e	; 46
   08CB 2E                 4409 	.db #0x2e	; 46
   08CC 2E                 4410 	.db #0x2e	; 46
   08CD 2E                 4411 	.db #0x2e	; 46
   08CE 2E                 4412 	.db #0x2e	; 46
   08CF 2E                 4413 	.db #0x2e	; 46
   08D0 2E                 4414 	.db #0x2e	; 46
   08D1 2E                 4415 	.db #0x2e	; 46
   08D2 2E                 4416 	.db #0x2e	; 46
   08D3 2E                 4417 	.db #0x2e	; 46
   08D4 36                 4418 	.db #0x36	; 54	'6'
   08D5 37                 4419 	.db #0x37	; 55	'7'
   08D6 34                 4420 	.db #0x34	; 52	'4'
   08D7 2E                 4421 	.db #0x2e	; 46
   08D8 2E                 4422 	.db #0x2e	; 46
   08D9 2E                 4423 	.db #0x2e	; 46
   08DA 2E                 4424 	.db #0x2e	; 46
   08DB 2E                 4425 	.db #0x2e	; 46
   08DC 2E                 4426 	.db #0x2e	; 46
   08DD 2E                 4427 	.db #0x2e	; 46
   08DE 2E                 4428 	.db #0x2e	; 46
   08DF 2E                 4429 	.db #0x2e	; 46
   08E0 2E                 4430 	.db #0x2e	; 46
   08E1 2E                 4431 	.db #0x2e	; 46
   08E2 2E                 4432 	.db #0x2e	; 46
   08E3 2E                 4433 	.db #0x2e	; 46
   08E4 2E                 4434 	.db #0x2e	; 46
   08E5 2E                 4435 	.db #0x2e	; 46
   08E6 2E                 4436 	.db #0x2e	; 46
   08E7 2E                 4437 	.db #0x2e	; 46
   08E8 36                 4438 	.db #0x36	; 54	'6'
   08E9 37                 4439 	.db #0x37	; 55	'7'
   08EA 34                 4440 	.db #0x34	; 52	'4'
   08EB 2E                 4441 	.db #0x2e	; 46
   08EC 2E                 4442 	.db #0x2e	; 46
   08ED 2E                 4443 	.db #0x2e	; 46
   08EE 49                 4444 	.db #0x49	; 73	'I'
   08EF 2E                 4445 	.db #0x2e	; 46
   08F0 2E                 4446 	.db #0x2e	; 46
   08F1 2E                 4447 	.db #0x2e	; 46
   08F2 2E                 4448 	.db #0x2e	; 46
   08F3 2E                 4449 	.db #0x2e	; 46
   08F4 2E                 4450 	.db #0x2e	; 46
   08F5 2E                 4451 	.db #0x2e	; 46
   08F6 2E                 4452 	.db #0x2e	; 46
   08F7 2E                 4453 	.db #0x2e	; 46
   08F8 2E                 4454 	.db #0x2e	; 46
   08F9 2E                 4455 	.db #0x2e	; 46
   08FA 2E                 4456 	.db #0x2e	; 46
   08FB 2E                 4457 	.db #0x2e	; 46
   08FC 36                 4458 	.db #0x36	; 54	'6'
   08FD 37                 4459 	.db #0x37	; 55	'7'
   08FE 37                 4460 	.db #0x37	; 55	'7'
   08FF 33                 4461 	.db #0x33	; 51	'3'
   0900 33                 4462 	.db #0x33	; 51	'3'
   0901 33                 4463 	.db #0x33	; 51	'3'
   0902 33                 4464 	.db #0x33	; 51	'3'
   0903 2E                 4465 	.db #0x2e	; 46
   0904 2E                 4466 	.db #0x2e	; 46
   0905 2E                 4467 	.db #0x2e	; 46
   0906 2E                 4468 	.db #0x2e	; 46
   0907 2E                 4469 	.db #0x2e	; 46
   0908 2E                 4470 	.db #0x2e	; 46
   0909 2E                 4471 	.db #0x2e	; 46
   090A 2E                 4472 	.db #0x2e	; 46
   090B 2E                 4473 	.db #0x2e	; 46
   090C 2E                 4474 	.db #0x2e	; 46
   090D 2E                 4475 	.db #0x2e	; 46
   090E 33                 4476 	.db #0x33	; 51	'3'
   090F 33                 4477 	.db #0x33	; 51	'3'
   0910 37                 4478 	.db #0x37	; 55	'7'
   0911 37                 4479 	.db #0x37	; 55	'7'
   0912 37                 4480 	.db #0x37	; 55	'7'
   0913 37                 4481 	.db #0x37	; 55	'7'
   0914 37                 4482 	.db #0x37	; 55	'7'
   0915 37                 4483 	.db #0x37	; 55	'7'
   0916 37                 4484 	.db #0x37	; 55	'7'
   0917 2E                 4485 	.db #0x2e	; 46
   0918 2E                 4486 	.db #0x2e	; 46
   0919 2E                 4487 	.db #0x2e	; 46
   091A 2E                 4488 	.db #0x2e	; 46
   091B 2E                 4489 	.db #0x2e	; 46
   091C 2E                 4490 	.db #0x2e	; 46
   091D 2E                 4491 	.db #0x2e	; 46
   091E 2E                 4492 	.db #0x2e	; 46
   091F 2E                 4493 	.db #0x2e	; 46
   0920 2E                 4494 	.db #0x2e	; 46
   0921 2E                 4495 	.db #0x2e	; 46
   0922 37                 4496 	.db #0x37	; 55	'7'
   0923 37                 4497 	.db #0x37	; 55	'7'
   0924 37                 4498 	.db #0x37	; 55	'7'
   0925 37                 4499 	.db #0x37	; 55	'7'
   0926 37                 4500 	.db #0x37	; 55	'7'
   0927 37                 4501 	.db #0x37	; 55	'7'
   0928 37                 4502 	.db #0x37	; 55	'7'
   0929 37                 4503 	.db #0x37	; 55	'7'
   092A 37                 4504 	.db #0x37	; 55	'7'
   092B 2E                 4505 	.db #0x2e	; 46
   092C 2E                 4506 	.db #0x2e	; 46
   092D 2E                 4507 	.db #0x2e	; 46
   092E 2E                 4508 	.db #0x2e	; 46
   092F 2E                 4509 	.db #0x2e	; 46
   0930 2E                 4510 	.db #0x2e	; 46
   0931 2E                 4511 	.db #0x2e	; 46
   0932 2E                 4512 	.db #0x2e	; 46
   0933 2E                 4513 	.db #0x2e	; 46
   0934 2E                 4514 	.db #0x2e	; 46
   0935 2E                 4515 	.db #0x2e	; 46
   0936 37                 4516 	.db #0x37	; 55	'7'
   0937 37                 4517 	.db #0x37	; 55	'7'
   0938 37                 4518 	.db #0x37	; 55	'7'
   0939 37                 4519 	.db #0x37	; 55	'7'
   093A 37                 4520 	.db #0x37	; 55	'7'
   093B 37                 4521 	.db #0x37	; 55	'7'
   093C 37                 4522 	.db #0x37	; 55	'7'
   093D 37                 4523 	.db #0x37	; 55	'7'
   093E 37                 4524 	.db #0x37	; 55	'7'
   093F 2E                 4525 	.db #0x2e	; 46
   0940 2E                 4526 	.db #0x2e	; 46
   0941 2E                 4527 	.db #0x2e	; 46
   0942 2E                 4528 	.db #0x2e	; 46
   0943 2E                 4529 	.db #0x2e	; 46
   0944 2E                 4530 	.db #0x2e	; 46
   0945 2E                 4531 	.db #0x2e	; 46
   0946 2E                 4532 	.db #0x2e	; 46
   0947 2E                 4533 	.db #0x2e	; 46
   0948 2E                 4534 	.db #0x2e	; 46
   0949 2E                 4535 	.db #0x2e	; 46
   094A 37                 4536 	.db #0x37	; 55	'7'
   094B 37                 4537 	.db #0x37	; 55	'7'
   094C 37                 4538 	.db #0x37	; 55	'7'
   094D 37                 4539 	.db #0x37	; 55	'7'
   094E 44                 4540 	.db #0x44	; 68	'D'
   094F 43                 4541 	.db #0x43	; 67	'C'
   0950 44                 4542 	.db #0x44	; 68	'D'
   0951 43                 4543 	.db #0x43	; 67	'C'
   0952 44                 4544 	.db #0x44	; 68	'D'
   0953 40                 4545 	.db #0x40	; 64
   0954 41                 4546 	.db #0x41	; 65	'A'
   0955 40                 4547 	.db #0x40	; 64
   0956 41                 4548 	.db #0x41	; 65	'A'
   0957 40                 4549 	.db #0x40	; 64
   0958 41                 4550 	.db #0x41	; 65	'A'
   0959 40                 4551 	.db #0x40	; 64
   095A 41                 4552 	.db #0x41	; 65	'A'
   095B 40                 4553 	.db #0x40	; 64
   095C 41                 4554 	.db #0x41	; 65	'A'
   095D 40                 4555 	.db #0x40	; 64
   095E 44                 4556 	.db #0x44	; 68	'D'
   095F 43                 4557 	.db #0x43	; 67	'C'
   0960 44                 4558 	.db #0x44	; 68	'D'
   0961 43                 4559 	.db #0x43	; 67	'C'
   0962 42                 4560 	.db #0x42	; 66	'B'
   0963 42                 4561 	.db #0x42	; 66	'B'
   0964 42                 4562 	.db #0x42	; 66	'B'
   0965 42                 4563 	.db #0x42	; 66	'B'
   0966 42                 4564 	.db #0x42	; 66	'B'
   0967 42                 4565 	.db #0x42	; 66	'B'
   0968 42                 4566 	.db #0x42	; 66	'B'
   0969 42                 4567 	.db #0x42	; 66	'B'
   096A 42                 4568 	.db #0x42	; 66	'B'
   096B 42                 4569 	.db #0x42	; 66	'B'
   096C 42                 4570 	.db #0x42	; 66	'B'
   096D 42                 4571 	.db #0x42	; 66	'B'
   096E 42                 4572 	.db #0x42	; 66	'B'
   096F 42                 4573 	.db #0x42	; 66	'B'
   0970 42                 4574 	.db #0x42	; 66	'B'
   0971 42                 4575 	.db #0x42	; 66	'B'
   0972 42                 4576 	.db #0x42	; 66	'B'
   0973 42                 4577 	.db #0x42	; 66	'B'
   0974 42                 4578 	.db #0x42	; 66	'B'
   0975 42                 4579 	.db #0x42	; 66	'B'
   0976                    4580 _levels_width:
   0976 14                 4581 	.db #0x14	; 20
   0977 21                 4582 	.db #0x21	; 33
   0978 14                 4583 	.db #0x14	; 20
   0979                    4584 _levels_height:
   0979 12                 4585 	.db #0x12	; 18
   097A 12                 4586 	.db #0x12	; 18
   097B 12                 4587 	.db #0x12	; 18
   097C                    4588 _gems_required:
   097C 01                 4589 	.db #0x01	; 1
   097D 02                 4590 	.db #0x02	; 2
   097E 02                 4591 	.db #0x02	; 2
   097F                    4592 _spawns_x:
   097F 0C                 4593 	.db #0x0c	; 12
   0980 14                 4594 	.db #0x14	; 20
   0981 14                 4595 	.db #0x14	; 20
   0982                    4596 _spawns_y:
   0982 50                 4597 	.db #0x50	; 80	'P'
   0983 3C                 4598 	.db #0x3c	; 60
   0984 3C                 4599 	.db #0x3c	; 60
                           4600 ;..\/game.c:79: void game_VBL()
                           4601 ;	---------------------------------
                           4602 ; Function game_VBL
                           4603 ; ---------------------------------
   0985                    4604 _game_VBL::
                           4605 ;..\/game.c:81: HIDE_SPRITES; //hiding sprites to not overlap the HUD
   0985 F0r00              4606 	ldh	a, (_LCDC_REG+0)
   0987 E6 FD              4607 	and	a, #0xfd
   0989 E0r00              4608 	ldh	(_LCDC_REG+0),a
                           4609 ;..\/game.c:82: }
   098B C9                 4610 	ret
                           4611 ;..\/game.c:85: void window_LCD()
                           4612 ;	---------------------------------
                           4613 ; Function window_LCD
                           4614 ; ---------------------------------
   098C                    4615 _window_LCD::
                           4616 ;..\/game.c:87: if(LYC_REG == 143)
   098C F0r00              4617 	ldh	a, (_LYC_REG+0)
   098E D6 8F              4618 	sub	a, #0x8f
   0990 3E 01              4619 	ld	a, #0x01
   0992 28 01              4620 	jr	Z,00112$
   0994 AF                 4621 	xor	a, a
   0995                    4622 00112$:
   0995 4F                 4623 	ld	c, a
                           4624 ;..\/game.c:89: SHOW_WIN;
   0996 F0r00              4625 	ldh	a, (_LCDC_REG+0)
   0998 47                 4626 	ld	b, a
                           4627 ;..\/game.c:87: if(LYC_REG == 143)
   0999 79                 4628 	ld	a, c
   099A B7                 4629 	or	a, a
   099B 28 0A              4630 	jr	Z,00102$
                           4631 ;..\/game.c:89: SHOW_WIN;
   099D 78                 4632 	ld	a, b
   099E F6 20              4633 	or	a, #0x20
   09A0 E0r00              4634 	ldh	(_LCDC_REG+0),a
                           4635 ;..\/game.c:90: LYC_REG = 99;
   09A2 3E 63              4636 	ld	a, #0x63
   09A4 E0r00              4637 	ldh	(_LYC_REG+0),a
   09A6 C9                 4638 	ret
   09A7                    4639 00102$:
                           4640 ;..\/game.c:94: HIDE_WIN;
   09A7 78                 4641 	ld	a, b
   09A8 E6 DF              4642 	and	a, #0xdf
   09AA E0r00              4643 	ldh	(_LCDC_REG+0),a
                           4644 ;..\/game.c:95: SHOW_SPRITES;
   09AC F0r00              4645 	ldh	a, (_LCDC_REG+0)
   09AE F6 02              4646 	or	a, #0x02
   09B0 E0r00              4647 	ldh	(_LCDC_REG+0),a
                           4648 ;..\/game.c:96: LYC_REG = 143; //show window on the last H-Blank, if it's only done in the V-Blank some artifacts appear on screen
   09B2 3E 8F              4649 	ld	a, #0x8f
   09B4 E0r00              4650 	ldh	(_LYC_REG+0),a
                           4651 ;..\/game.c:98: }
   09B6 C9                 4652 	ret
                           4653 ;..\/game.c:100: void window_VBL()
                           4654 ;	---------------------------------
                           4655 ; Function window_VBL
                           4656 ; ---------------------------------
   09B7                    4657 _window_VBL::
                           4658 ;..\/game.c:102: HIDE_SPRITES; //hiding sprites to not overlap the window
   09B7 F0r00              4659 	ldh	a, (_LCDC_REG+0)
   09B9 E6 FD              4660 	and	a, #0xfd
   09BB E0r00              4661 	ldh	(_LCDC_REG+0),a
                           4662 ;..\/game.c:103: }
   09BD C9                 4663 	ret
                           4664 ;..\/game.c:106: void update_gems()
                           4665 ;	---------------------------------
                           4666 ; Function update_gems
                           4667 ; ---------------------------------
   09BE                    4668 _update_gems::
                           4669 ;..\/game.c:108: game_win[1] = 0x04 + (gems / 10) % 10;
   09BE 21r01r09           4670 	ld	hl, #_gems
   09C1 4E                 4671 	ld	c, (hl)
   09C2 06 00              4672 	ld	b, #0x00
   09C4 21 0A 00           4673 	ld	hl, #0x000a
   09C7 E5                 4674 	push	hl
   09C8 C5                 4675 	push	bc
   09C9 CDr00r00           4676 	call	__divsint
   09CC E8 04              4677 	add	sp, #4
   09CE 21 0A 00           4678 	ld	hl, #0x000a
   09D1 E5                 4679 	push	hl
   09D2 D5                 4680 	push	de
   09D3 CDr00r00           4681 	call	__modsint
   09D6 E8 04              4682 	add	sp, #4
   09D8 7B                 4683 	ld	a, e
   09D9 C6 04              4684 	add	a, #0x04
   09DB 21r6Er01           4685 	ld	hl, #(_game_win + 0x0001)
   09DE 77                 4686 	ld	(hl), a
                           4687 ;..\/game.c:109: game_win[2] = 0x04 + gems % 10;
   09DF 21r01r09           4688 	ld	hl, #_gems
   09E2 4E                 4689 	ld	c, (hl)
   09E3 06 00              4690 	ld	b, #0x00
   09E5 21 0A 00           4691 	ld	hl, #0x000a
   09E8 E5                 4692 	push	hl
   09E9 C5                 4693 	push	bc
   09EA CDr00r00           4694 	call	__modsint
   09ED E8 04              4695 	add	sp, #4
   09EF 7B                 4696 	ld	a, e
   09F0 C6 04              4697 	add	a, #0x04
   09F2 21r6Fr01           4698 	ld	hl, #(_game_win + 0x0002)
   09F5 77                 4699 	ld	(hl), a
                           4700 ;..\/game.c:110: set_win_tiles(1, 0, 2, 1, game_win + 1);
   09F6 21r6Er01           4701 	ld	hl, #(_game_win + 0x0001)
   09F9 E5                 4702 	push	hl
   09FA 3E 01              4703 	ld	a, #0x01
   09FC F5                 4704 	push	af
   09FD 33                 4705 	inc	sp
   09FE 3E 02              4706 	ld	a, #0x02
   0A00 F5                 4707 	push	af
   0A01 33                 4708 	inc	sp
   0A02 AF                 4709 	xor	a, a
   0A03 F5                 4710 	push	af
   0A04 33                 4711 	inc	sp
   0A05 3E 01              4712 	ld	a, #0x01
   0A07 F5                 4713 	push	af
   0A08 33                 4714 	inc	sp
   0A09 CDr00r00           4715 	call	_set_win_tiles
   0A0C E8 06              4716 	add	sp, #6
                           4717 ;..\/game.c:111: }
   0A0E C9                 4718 	ret
                           4719 ;..\/game.c:113: void update_chutes()
                           4720 ;	---------------------------------
                           4721 ; Function update_chutes
                           4722 ; ---------------------------------
   0A0F                    4723 _update_chutes::
                           4724 ;..\/game.c:115: game_win[5] = 0x04 + chutes;
   0A0F 01r72r01           4725 	ld	bc, #_game_win+5
   0A12 21r03r09           4726 	ld	hl, #_chutes
   0A15 7E                 4727 	ld	a, (hl)
   0A16 C6 04              4728 	add	a, #0x04
   0A18 02                 4729 	ld	(bc), a
                           4730 ;..\/game.c:116: set_win_tiles(5, 0, 2, 1, game_win + 5);
   0A19 C5                 4731 	push	bc
   0A1A 3E 01              4732 	ld	a, #0x01
   0A1C F5                 4733 	push	af
   0A1D 33                 4734 	inc	sp
   0A1E 3E 02              4735 	ld	a, #0x02
   0A20 F5                 4736 	push	af
   0A21 33                 4737 	inc	sp
   0A22 AF                 4738 	xor	a, a
   0A23 F5                 4739 	push	af
   0A24 33                 4740 	inc	sp
   0A25 3E 05              4741 	ld	a, #0x05
   0A27 F5                 4742 	push	af
   0A28 33                 4743 	inc	sp
   0A29 CDr00r00           4744 	call	_set_win_tiles
   0A2C E8 06              4745 	add	sp, #6
                           4746 ;..\/game.c:117: }
   0A2E C9                 4747 	ret
                           4748 ;..\/game.c:119: void update_score()
                           4749 ;	---------------------------------
                           4750 ; Function update_score
                           4751 ; ---------------------------------
   0A2F                    4752 _update_score::
                           4753 ;..\/game.c:121: game_win[8] = 0x04 + (score / 1000) % 10;
   0A2F 21r02r09           4754 	ld	hl, #_score
   0A32 4E                 4755 	ld	c, (hl)
   0A33 06 00              4756 	ld	b, #0x00
   0A35 21 E8 03           4757 	ld	hl, #0x03e8
   0A38 E5                 4758 	push	hl
   0A39 C5                 4759 	push	bc
   0A3A CDr00r00           4760 	call	__divsint
   0A3D E8 04              4761 	add	sp, #4
   0A3F 21 0A 00           4762 	ld	hl, #0x000a
   0A42 E5                 4763 	push	hl
   0A43 D5                 4764 	push	de
   0A44 CDr00r00           4765 	call	__modsint
   0A47 E8 04              4766 	add	sp, #4
   0A49 7B                 4767 	ld	a, e
   0A4A C6 04              4768 	add	a, #0x04
   0A4C 21r75r01           4769 	ld	hl, #(_game_win + 0x0008)
   0A4F 77                 4770 	ld	(hl), a
                           4771 ;..\/game.c:122: game_win[9] = 0x04 + (score / 100) % 10;
   0A50 21r02r09           4772 	ld	hl, #_score
   0A53 4E                 4773 	ld	c, (hl)
   0A54 06 00              4774 	ld	b, #0x00
   0A56 21 64 00           4775 	ld	hl, #0x0064
   0A59 E5                 4776 	push	hl
   0A5A C5                 4777 	push	bc
   0A5B CDr00r00           4778 	call	__divsint
   0A5E E8 04              4779 	add	sp, #4
   0A60 21 0A 00           4780 	ld	hl, #0x000a
   0A63 E5                 4781 	push	hl
   0A64 D5                 4782 	push	de
   0A65 CDr00r00           4783 	call	__modsint
   0A68 E8 04              4784 	add	sp, #4
   0A6A 7B                 4785 	ld	a, e
   0A6B C6 04              4786 	add	a, #0x04
   0A6D 21r76r01           4787 	ld	hl, #(_game_win + 0x0009)
   0A70 77                 4788 	ld	(hl), a
                           4789 ;..\/game.c:123: game_win[10] = 0x04 + (score / 10) % 10;
   0A71 21r02r09           4790 	ld	hl, #_score
   0A74 4E                 4791 	ld	c, (hl)
   0A75 06 00              4792 	ld	b, #0x00
   0A77 21 0A 00           4793 	ld	hl, #0x000a
   0A7A E5                 4794 	push	hl
   0A7B C5                 4795 	push	bc
   0A7C CDr00r00           4796 	call	__divsint
   0A7F E8 04              4797 	add	sp, #4
   0A81 21 0A 00           4798 	ld	hl, #0x000a
   0A84 E5                 4799 	push	hl
   0A85 D5                 4800 	push	de
   0A86 CDr00r00           4801 	call	__modsint
   0A89 E8 04              4802 	add	sp, #4
   0A8B 7B                 4803 	ld	a, e
   0A8C C6 04              4804 	add	a, #0x04
   0A8E 21r77r01           4805 	ld	hl, #(_game_win + 0x000a)
   0A91 77                 4806 	ld	(hl), a
                           4807 ;..\/game.c:124: game_win[11] = 0x04 + score % 10;
   0A92 21r02r09           4808 	ld	hl, #_score
   0A95 4E                 4809 	ld	c, (hl)
   0A96 06 00              4810 	ld	b, #0x00
   0A98 21 0A 00           4811 	ld	hl, #0x000a
   0A9B E5                 4812 	push	hl
   0A9C C5                 4813 	push	bc
   0A9D CDr00r00           4814 	call	__modsint
   0AA0 E8 04              4815 	add	sp, #4
   0AA2 7B                 4816 	ld	a, e
   0AA3 C6 04              4817 	add	a, #0x04
   0AA5 21r78r01           4818 	ld	hl, #(_game_win + 0x000b)
   0AA8 77                 4819 	ld	(hl), a
                           4820 ;..\/game.c:125: set_win_tiles(8, 0, 4, 1, game_win + 8);
   0AA9 21r75r01           4821 	ld	hl, #(_game_win + 0x0008)
   0AAC E5                 4822 	push	hl
   0AAD 3E 01              4823 	ld	a, #0x01
   0AAF F5                 4824 	push	af
   0AB0 33                 4825 	inc	sp
   0AB1 3E 04              4826 	ld	a, #0x04
   0AB3 F5                 4827 	push	af
   0AB4 33                 4828 	inc	sp
   0AB5 AF                 4829 	xor	a, a
   0AB6 F5                 4830 	push	af
   0AB7 33                 4831 	inc	sp
   0AB8 3E 08              4832 	ld	a, #0x08
   0ABA F5                 4833 	push	af
   0ABB 33                 4834 	inc	sp
   0ABC CDr00r00           4835 	call	_set_win_tiles
   0ABF E8 06              4836 	add	sp, #6
                           4837 ;..\/game.c:126: }
   0AC1 C9                 4838 	ret
                           4839 ;..\/game.c:128: void update_lives()
                           4840 ;	---------------------------------
                           4841 ; Function update_lives
                           4842 ; ---------------------------------
   0AC2                    4843 _update_lives::
                           4844 ;..\/game.c:130: game_win[19] = 0x04 + lives;
   0AC2 01r80r01           4845 	ld	bc, #_game_win+19
   0AC5 21r00r09           4846 	ld	hl, #_lives
   0AC8 7E                 4847 	ld	a, (hl)
   0AC9 C6 04              4848 	add	a, #0x04
   0ACB 02                 4849 	ld	(bc), a
                           4850 ;..\/game.c:131: set_win_tiles(19, 0, 1, 1, game_win + 19);
   0ACC C5                 4851 	push	bc
   0ACD 3E 01              4852 	ld	a, #0x01
   0ACF F5                 4853 	push	af
   0AD0 33                 4854 	inc	sp
   0AD1 3E 01              4855 	ld	a, #0x01
   0AD3 F5                 4856 	push	af
   0AD4 33                 4857 	inc	sp
   0AD5 AF                 4858 	xor	a, a
   0AD6 F5                 4859 	push	af
   0AD7 33                 4860 	inc	sp
   0AD8 3E 13              4861 	ld	a, #0x13
   0ADA F5                 4862 	push	af
   0ADB 33                 4863 	inc	sp
   0ADC CDr00r00           4864 	call	_set_win_tiles
   0ADF E8 06              4865 	add	sp, #6
                           4866 ;..\/game.c:132: }
   0AE1 C9                 4867 	ret
                           4868 ;..\/game.c:134: char getTileAt(int x, int y)
                           4869 ;	---------------------------------
                           4870 ; Function getTileAt
                           4871 ; ---------------------------------
   0AE2                    4872 _getTileAt::
   0AE2 E8 FE              4873 	add	sp, #-2
                           4874 ;..\/game.c:136: return(*(level + (x / 8) + (y / 8) * level_width));
   0AE4 F8 04              4875 	ldhl	sp,#(5 - 1)
   0AE6 4E                 4876 	ld	c, (hl)
   0AE7 23                 4877 	inc	hl
   0AE8 46                 4878 	ld	b, (hl)
   0AE9 CB 78              4879 	bit	7, b
   0AEB 28 06              4880 	jr	Z,00103$
   0AED 21 07 00           4881 	ld	hl, #0x0007
   0AF0 09                 4882 	add	hl, bc
   0AF1 4D                 4883 	ld	c, l
   0AF2 44                 4884 	ld	b, h
   0AF3                    4885 00103$:
   0AF3 CB 28              4886 	sra	b
   0AF5 CB 19              4887 	rr	c
   0AF7 CB 28              4888 	sra	b
   0AF9 CB 19              4889 	rr	c
   0AFB CB 28              4890 	sra	b
   0AFD CB 19              4891 	rr	c
   0AFF 21rB3r02           4892 	ld	hl, #_level
   0B02 09                 4893 	add	hl, bc
   0B03 33                 4894 	inc	sp
   0B04 33                 4895 	inc	sp
   0B05 E5                 4896 	push	hl
   0B06 F8 06              4897 	ldhl	sp,#(7 - 1)
   0B08 4E                 4898 	ld	c, (hl)
   0B09 23                 4899 	inc	hl
   0B0A 46                 4900 	ld	b, (hl)
   0B0B CB 78              4901 	bit	7, b
   0B0D 28 06              4902 	jr	Z,00104$
   0B0F 21 07 00           4903 	ld	hl, #0x0007
   0B12 09                 4904 	add	hl, bc
   0B13 4D                 4905 	ld	c, l
   0B14 44                 4906 	ld	b, h
   0B15                    4907 00104$:
   0B15 CB 28              4908 	sra	b
   0B17 CB 19              4909 	rr	c
   0B19 CB 28              4910 	sra	b
   0B1B CB 19              4911 	rr	c
   0B1D CB 28              4912 	sra	b
   0B1F CB 19              4913 	rr	c
   0B21 21rF3r08           4914 	ld	hl, #_level_width
   0B24 5E                 4915 	ld	e, (hl)
   0B25 16 00              4916 	ld	d, #0x00
   0B27 D5                 4917 	push	de
   0B28 C5                 4918 	push	bc
   0B29 CDr00r00           4919 	call	__mulint
   0B2C E8 04              4920 	add	sp, #4
   0B2E 4B                 4921 	ld	c, e
   0B2F 42                 4922 	ld	b, d
   0B30 E1                 4923 	pop	hl
   0B31 E5                 4924 	push	hl
   0B32 09                 4925 	add	hl, bc
   0B33 4D                 4926 	ld	c, l
   0B34 44                 4927 	ld	b, h
   0B35 0A                 4928 	ld	a, (bc)
   0B36 5F                 4929 	ld	e, a
                           4930 ;..\/game.c:137: }
   0B37 E8 02              4931 	add	sp, #2
   0B39 C9                 4932 	ret
                           4933 ;..\/game.c:140: char get_tile_at(int x, int y)
                           4934 ;	---------------------------------
                           4935 ; Function get_tile_at
                           4936 ; ---------------------------------
   0B3A                    4937 _get_tile_at::
   0B3A E8 F7              4938 	add	sp, #-9
                           4939 ;..\/game.c:144: return(*(level + (x / 8) + (y / 8) * level_width));
   0B3C F8 0D              4940 	ldhl	sp,	#13
   0B3E 2A                 4941 	ld	a, (hl+)
   0B3F 5E                 4942 	ld	e, (hl)
   0B40 F8 00              4943 	ldhl	sp,	#0
   0B42 22                 4944 	ld	(hl+), a
   0B43 73                 4945 	ld	(hl), e
   0B44 21rF3r08           4946 	ld	hl, #_level_width
   0B47 7E                 4947 	ld	a, (hl)
   0B48 F8 02              4948 	ldhl	sp,	#2
   0B4A 77                 4949 	ld	(hl), a
   0B4B AF                 4950 	xor	a, a
   0B4C 23                 4951 	inc	hl
   0B4D 77                 4952 	ld	(hl), a
   0B4E F8 00              4953 	ldhl	sp,	#0
   0B50 7E                 4954 	ld	a, (hl)
   0B51 D6 00              4955 	sub	a, #0x00
   0B53 23                 4956 	inc	hl
   0B54 7E                 4957 	ld	a, (hl)
   0B55 DE 00              4958 	sbc	a, #0x00
   0B57 56                 4959 	ld	d, (hl)
   0B58 3E 00              4960 	ld	a, #0x00
   0B5A 5F                 4961 	ld	e, a
   0B5B CB 7B              4962 	bit	7, e
   0B5D 28 07              4963 	jr	Z,00135$
   0B5F CB 7A              4964 	bit	7, d
   0B61 20 08              4965 	jr	NZ,00136$
   0B63 BF                 4966 	cp	a, a
   0B64 18 05              4967 	jr	00136$
   0B66                    4968 00135$:
   0B66 CB 7A              4969 	bit	7, d
   0B68 28 01              4970 	jr	Z,00136$
   0B6A 37                 4971 	scf
   0B6B                    4972 00136$:
   0B6B 3E 00              4973 	ld	a, #0x00
   0B6D 17                 4974 	rla
   0B6E F8 04              4975 	ldhl	sp,	#4
   0B70 77                 4976 	ld	(hl), a
   0B71 D1                 4977 	pop	de
   0B72 D5                 4978 	push	de
   0B73 21 07 00           4979 	ld	hl, #0x0007
   0B76 19                 4980 	add	hl, de
   0B77 7D                 4981 	ld	a, l
   0B78 54                 4982 	ld	d, h
   0B79 F8 05              4983 	ldhl	sp,	#5
   0B7B 22                 4984 	ld	(hl+), a
   0B7C 72                 4985 	ld	(hl), d
                           4986 ;..\/game.c:142: if(x < 256)
   0B7D F8 0B              4987 	ldhl	sp,	#11
   0B7F 7E                 4988 	ld	a, (hl)
   0B80 D6 00              4989 	sub	a, #0x00
   0B82 23                 4990 	inc	hl
   0B83 7E                 4991 	ld	a, (hl)
   0B84 DE 01              4992 	sbc	a, #0x01
   0B86 56                 4993 	ld	d, (hl)
   0B87 3E 01              4994 	ld	a, #0x01
   0B89 5F                 4995 	ld	e, a
   0B8A CB 7B              4996 	bit	7, e
   0B8C 28 07              4997 	jr	Z,00137$
   0B8E CB 7A              4998 	bit	7, d
   0B90 20 08              4999 	jr	NZ,00138$
   0B92 BF                 5000 	cp	a, a
   0B93 18 05              5001 	jr	00138$
   0B95                    5002 00137$:
   0B95 CB 7A              5003 	bit	7, d
   0B97 28 01              5004 	jr	Z,00138$
   0B99 37                 5005 	scf
   0B9A                    5006 00138$:
   0B9A D2rF6r0B           5007 	jp	NC, 00102$
                           5008 ;..\/game.c:144: return(*(level + (x / 8) + (y / 8) * level_width));
   0B9D F8 0B              5009 	ldhl	sp,#(12 - 1)
   0B9F 4E                 5010 	ld	c, (hl)
   0BA0 23                 5011 	inc	hl
   0BA1 46                 5012 	ld	b, (hl)
   0BA2 CB 78              5013 	bit	7, b
   0BA4 28 06              5014 	jr	Z,00106$
   0BA6 21 07 00           5015 	ld	hl, #0x0007
   0BA9 09                 5016 	add	hl, bc
   0BAA 4D                 5017 	ld	c, l
   0BAB 44                 5018 	ld	b, h
   0BAC                    5019 00106$:
   0BAC CB 28              5020 	sra	b
   0BAE CB 19              5021 	rr	c
   0BB0 CB 28              5022 	sra	b
   0BB2 CB 19              5023 	rr	c
   0BB4 CB 28              5024 	sra	b
   0BB6 CB 19              5025 	rr	c
   0BB8 21rB3r02           5026 	ld	hl, #_level
   0BBB 09                 5027 	add	hl, bc
   0BBC 4D                 5028 	ld	c, l
   0BBD 44                 5029 	ld	b, h
   0BBE D1                 5030 	pop	de
   0BBF D5                 5031 	push	de
   0BC0 F8 04              5032 	ldhl	sp,	#4
   0BC2 7E                 5033 	ld	a, (hl)
   0BC3 B7                 5034 	or	a, a
   0BC4 28 04              5035 	jr	Z,00107$
   0BC6 23                 5036 	inc	hl
   0BC7 5E                 5037 	ld	e, (hl)
   0BC8 23                 5038 	inc	hl
   0BC9 56                 5039 	ld	d, (hl)
   0BCA                    5040 00107$:
   0BCA CB 2A              5041 	sra	d
   0BCC CB 1B              5042 	rr	e
   0BCE CB 2A              5043 	sra	d
   0BD0 CB 1B              5044 	rr	e
   0BD2 CB 2A              5045 	sra	d
   0BD4 CB 1B              5046 	rr	e
   0BD6 C5                 5047 	push	bc
   0BD7 F8 04              5048 	ldhl	sp,	#4
   0BD9 2A                 5049 	ld	a, (hl+)
   0BDA 66                 5050 	ld	h, (hl)
   0BDB 6F                 5051 	ld	l, a
   0BDC E5                 5052 	push	hl
   0BDD D5                 5053 	push	de
   0BDE CDr00r00           5054 	call	__mulint
   0BE1 E8 04              5055 	add	sp, #4
   0BE3 F8 09              5056 	ldhl	sp,	#9
   0BE5 73                 5057 	ld	(hl), e
   0BE6 23                 5058 	inc	hl
   0BE7 72                 5059 	ld	(hl), d
   0BE8 C1                 5060 	pop	bc
   0BE9 F8 07              5061 	ldhl	sp,	#7
   0BEB 2A                 5062 	ld	a, (hl+)
   0BEC 66                 5063 	ld	h, (hl)
   0BED 6F                 5064 	ld	l, a
   0BEE 09                 5065 	add	hl, bc
   0BEF 4D                 5066 	ld	c, l
   0BF0 44                 5067 	ld	b, h
   0BF1 0A                 5068 	ld	a, (bc)
   0BF2 5F                 5069 	ld	e, a
   0BF3 C3r63r0C           5070 	jp	00104$
   0BF6                    5071 00102$:
                           5072 ;..\/game.c:148: return(*(level + ((x - 255) / 8) + (y / 8) * level_width));
   0BF6 F8 0B              5073 	ldhl	sp,#(12 - 1)
   0BF8 5E                 5074 	ld	e, (hl)
   0BF9 23                 5075 	inc	hl
   0BFA 56                 5076 	ld	d, (hl)
   0BFB 21 FF 00           5077 	ld	hl, #0x00ff
   0BFE 7B                 5078 	ld	a, e
   0BFF 95                 5079 	sub	a, l
   0C00 5F                 5080 	ld	e, a
   0C01 7A                 5081 	ld	a, d
   0C02 9C                 5082 	sbc	a, h
   0C03 47                 5083 	ld	b, a
   0C04 4B                 5084 	ld	c, e
   0C05 F8 07              5085 	ldhl	sp,	#7
   0C07 71                 5086 	ld	(hl), c
   0C08 23                 5087 	inc	hl
   0C09 70                 5088 	ld	(hl), b
   0C0A CB 78              5089 	bit	7, b
   0C0C 28 0A              5090 	jr	Z,00108$
   0C0E 21 07 00           5091 	ld	hl, #0x0007
   0C11 09                 5092 	add	hl, bc
   0C12 7D                 5093 	ld	a, l
   0C13 54                 5094 	ld	d, h
   0C14 F8 07              5095 	ldhl	sp,	#7
   0C16 22                 5096 	ld	(hl+), a
   0C17 72                 5097 	ld	(hl), d
   0C18                    5098 00108$:
   0C18 F8 07              5099 	ldhl	sp,#(8 - 1)
   0C1A 4E                 5100 	ld	c, (hl)
   0C1B 23                 5101 	inc	hl
   0C1C 46                 5102 	ld	b, (hl)
   0C1D CB 28              5103 	sra	b
   0C1F CB 19              5104 	rr	c
   0C21 CB 28              5105 	sra	b
   0C23 CB 19              5106 	rr	c
   0C25 CB 28              5107 	sra	b
   0C27 CB 19              5108 	rr	c
   0C29 21rB3r02           5109 	ld	hl, #_level
   0C2C 09                 5110 	add	hl, bc
   0C2D 7D                 5111 	ld	a, l
   0C2E 54                 5112 	ld	d, h
   0C2F F8 07              5113 	ldhl	sp,	#7
   0C31 22                 5114 	ld	(hl+), a
   0C32 72                 5115 	ld	(hl), d
   0C33 C1                 5116 	pop	bc
   0C34 C5                 5117 	push	bc
   0C35 F8 04              5118 	ldhl	sp,	#4
   0C37 7E                 5119 	ld	a, (hl)
   0C38 B7                 5120 	or	a, a
   0C39 28 04              5121 	jr	Z,00109$
   0C3B 23                 5122 	inc	hl
   0C3C 4E                 5123 	ld	c, (hl)
   0C3D 23                 5124 	inc	hl
   0C3E 46                 5125 	ld	b, (hl)
   0C3F                    5126 00109$:
   0C3F CB 28              5127 	sra	b
   0C41 CB 19              5128 	rr	c
   0C43 CB 28              5129 	sra	b
   0C45 CB 19              5130 	rr	c
   0C47 CB 28              5131 	sra	b
   0C49 CB 19              5132 	rr	c
   0C4B F8 02              5133 	ldhl	sp,	#2
   0C4D 2A                 5134 	ld	a, (hl+)
   0C4E 66                 5135 	ld	h, (hl)
   0C4F 6F                 5136 	ld	l, a
   0C50 E5                 5137 	push	hl
   0C51 C5                 5138 	push	bc
   0C52 CDr00r00           5139 	call	__mulint
   0C55 E8 04              5140 	add	sp, #4
   0C57 4B                 5141 	ld	c, e
   0C58 42                 5142 	ld	b, d
   0C59 F8 07              5143 	ldhl	sp,	#7
   0C5B 2A                 5144 	ld	a, (hl+)
   0C5C 66                 5145 	ld	h, (hl)
   0C5D 6F                 5146 	ld	l, a
   0C5E 09                 5147 	add	hl, bc
   0C5F 4D                 5148 	ld	c, l
   0C60 44                 5149 	ld	b, h
   0C61 0A                 5150 	ld	a, (bc)
   0C62 5F                 5151 	ld	e, a
   0C63                    5152 00104$:
                           5153 ;..\/game.c:150: }
   0C63 E8 09              5154 	add	sp, #9
   0C65 C9                 5155 	ret
                           5156 ;..\/game.c:153: void set_tile_at(int x, int y, int tile_id)
                           5157 ;	---------------------------------
                           5158 ; Function set_tile_at
                           5159 ; ---------------------------------
   0C66                    5160 _set_tile_at::
   0C66 E8 FE              5161 	add	sp, #-2
                           5162 ;..\/game.c:155: *(level + (x / 8) + (y / 8) * level_width) = tile_id;
   0C68 F8 04              5163 	ldhl	sp,#(5 - 1)
   0C6A 4E                 5164 	ld	c, (hl)
   0C6B 23                 5165 	inc	hl
   0C6C 46                 5166 	ld	b, (hl)
   0C6D CB 78              5167 	bit	7, b
   0C6F 28 06              5168 	jr	Z,00103$
   0C71 21 07 00           5169 	ld	hl, #0x0007
   0C74 09                 5170 	add	hl, bc
   0C75 4D                 5171 	ld	c, l
   0C76 44                 5172 	ld	b, h
   0C77                    5173 00103$:
   0C77 CB 28              5174 	sra	b
   0C79 CB 19              5175 	rr	c
   0C7B CB 28              5176 	sra	b
   0C7D CB 19              5177 	rr	c
   0C7F CB 28              5178 	sra	b
   0C81 CB 19              5179 	rr	c
   0C83 21rB3r02           5180 	ld	hl, #_level
   0C86 09                 5181 	add	hl, bc
   0C87 33                 5182 	inc	sp
   0C88 33                 5183 	inc	sp
   0C89 E5                 5184 	push	hl
   0C8A F8 06              5185 	ldhl	sp,#(7 - 1)
   0C8C 4E                 5186 	ld	c, (hl)
   0C8D 23                 5187 	inc	hl
   0C8E 46                 5188 	ld	b, (hl)
   0C8F CB 78              5189 	bit	7, b
   0C91 28 06              5190 	jr	Z,00104$
   0C93 21 07 00           5191 	ld	hl, #0x0007
   0C96 09                 5192 	add	hl, bc
   0C97 4D                 5193 	ld	c, l
   0C98 44                 5194 	ld	b, h
   0C99                    5195 00104$:
   0C99 CB 28              5196 	sra	b
   0C9B CB 19              5197 	rr	c
   0C9D CB 28              5198 	sra	b
   0C9F CB 19              5199 	rr	c
   0CA1 CB 28              5200 	sra	b
   0CA3 CB 19              5201 	rr	c
   0CA5 21rF3r08           5202 	ld	hl, #_level_width
   0CA8 5E                 5203 	ld	e, (hl)
   0CA9 16 00              5204 	ld	d, #0x00
   0CAB D5                 5205 	push	de
   0CAC C5                 5206 	push	bc
   0CAD CDr00r00           5207 	call	__mulint
   0CB0 E8 04              5208 	add	sp, #4
   0CB2 4B                 5209 	ld	c, e
   0CB3 42                 5210 	ld	b, d
   0CB4 E1                 5211 	pop	hl
   0CB5 E5                 5212 	push	hl
   0CB6 09                 5213 	add	hl, bc
   0CB7 4D                 5214 	ld	c, l
   0CB8 44                 5215 	ld	b, h
   0CB9 F8 08              5216 	ldhl	sp,	#8
   0CBB 7E                 5217 	ld	a, (hl)
   0CBC 02                 5218 	ld	(bc), a
                           5219 ;..\/game.c:156: }
   0CBD E8 02              5220 	add	sp, #2
   0CBF C9                 5221 	ret
                           5222 ;..\/game.c:159: void move_metasprite(metasprite *ms, UINT8 x, UINT8 y)
                           5223 ;	---------------------------------
                           5224 ; Function move_metasprite
                           5225 ; ---------------------------------
   0CC0                    5226 _move_metasprite::
   0CC0 E8 FB              5227 	add	sp, #-5
                           5228 ;..\/game.c:161: move_sprite(ms->tile_ids[0], x + 6, y);
   0CC2 F8 09              5229 	ldhl	sp,	#9
   0CC4 4E                 5230 	ld	c, (hl)
   0CC5 79                 5231 	ld	a, c
   0CC6 C6 06              5232 	add	a, #0x06
   0CC8 F8 00              5233 	ldhl	sp,	#0
   0CCA 77                 5234 	ld	(hl), a
   0CCB F8 07              5235 	ldhl	sp,	#7
   0CCD 2A                 5236 	ld	a, (hl+)
   0CCE 5E                 5237 	ld	e, (hl)
   0CCF F8 01              5238 	ldhl	sp,	#1
   0CD1 22                 5239 	ld	(hl+), a
   0CD2 73                 5240 	ld	(hl), e
   0CD3 2B                 5241 	dec	hl
   0CD4 5E                 5242 	ld	e, (hl)
   0CD5 23                 5243 	inc	hl
   0CD6 56                 5244 	ld	d, (hl)
   0CD7 1A                 5245 	ld	a,(de)
   0CD8 47                 5246 	ld	b, a
   0CD9 C5                 5247 	push	bc
   0CDA F8 0C              5248 	ldhl	sp,	#12
   0CDC 7E                 5249 	ld	a, (hl)
   0CDD F5                 5250 	push	af
   0CDE 33                 5251 	inc	sp
   0CDF F8 03              5252 	ldhl	sp,	#3
   0CE1 7E                 5253 	ld	a, (hl)
   0CE2 F5                 5254 	push	af
   0CE3 33                 5255 	inc	sp
   0CE4 C5                 5256 	push	bc
   0CE5 33                 5257 	inc	sp
   0CE6 CDr00r00           5258 	call	_move_sprite
   0CE9 E8 03              5259 	add	sp, #3
   0CEB C1                 5260 	pop	bc
                           5261 ;..\/game.c:162: move_sprite(ms->tile_ids[1], x + SPRITE_SIZE + 6, y);
   0CEC 79                 5262 	ld	a, c
   0CED C6 0E              5263 	add	a, #0x0e
   0CEF F8 03              5264 	ldhl	sp,	#3
   0CF1 32                 5265 	ld	(hl-), a
   0CF2 2B                 5266 	dec	hl
   0CF3 4E                 5267 	ld	c, (hl)
   0CF4 23                 5268 	inc	hl
   0CF5 46                 5269 	ld	b, (hl)
   0CF6 03                 5270 	inc	bc
   0CF7 0A                 5271 	ld	a, (bc)
   0CF8 47                 5272 	ld	b, a
   0CF9 F8 0A              5273 	ldhl	sp,	#10
   0CFB 7E                 5274 	ld	a, (hl)
   0CFC F5                 5275 	push	af
   0CFD 33                 5276 	inc	sp
   0CFE F8 04              5277 	ldhl	sp,	#4
   0D00 7E                 5278 	ld	a, (hl)
   0D01 F5                 5279 	push	af
   0D02 33                 5280 	inc	sp
   0D03 C5                 5281 	push	bc
   0D04 33                 5282 	inc	sp
   0D05 CDr00r00           5283 	call	_move_sprite
   0D08 E8 03              5284 	add	sp, #3
                           5285 ;..\/game.c:163: move_sprite(ms->tile_ids[2], x + 6, y + SPRITE_SIZE);
   0D0A F8 0A              5286 	ldhl	sp,	#10
   0D0C 7E                 5287 	ld	a, (hl)
   0D0D C6 08              5288 	add	a, #0x08
   0D0F F8 04              5289 	ldhl	sp,	#4
   0D11 32                 5290 	ld	(hl-), a
   0D12 2B                 5291 	dec	hl
   0D13 2B                 5292 	dec	hl
   0D14 4E                 5293 	ld	c, (hl)
   0D15 23                 5294 	inc	hl
   0D16 46                 5295 	ld	b, (hl)
   0D17 03                 5296 	inc	bc
   0D18 03                 5297 	inc	bc
   0D19 0A                 5298 	ld	a, (bc)
   0D1A 47                 5299 	ld	b, a
   0D1B 23                 5300 	inc	hl
   0D1C 23                 5301 	inc	hl
   0D1D 7E                 5302 	ld	a, (hl)
   0D1E F5                 5303 	push	af
   0D1F 33                 5304 	inc	sp
   0D20 F8 01              5305 	ldhl	sp,	#1
   0D22 7E                 5306 	ld	a, (hl)
   0D23 F5                 5307 	push	af
   0D24 33                 5308 	inc	sp
   0D25 C5                 5309 	push	bc
   0D26 33                 5310 	inc	sp
   0D27 CDr00r00           5311 	call	_move_sprite
   0D2A E8 03              5312 	add	sp, #3
                           5313 ;..\/game.c:164: move_sprite(ms->tile_ids[3], x + SPRITE_SIZE + 6, y + SPRITE_SIZE);
   0D2C F8 01              5314 	ldhl	sp,#(2 - 1)
   0D2E 4E                 5315 	ld	c, (hl)
   0D2F 23                 5316 	inc	hl
   0D30 46                 5317 	ld	b, (hl)
   0D31 03                 5318 	inc	bc
   0D32 03                 5319 	inc	bc
   0D33 03                 5320 	inc	bc
   0D34 0A                 5321 	ld	a, (bc)
   0D35 47                 5322 	ld	b, a
   0D36 23                 5323 	inc	hl
   0D37 23                 5324 	inc	hl
   0D38 7E                 5325 	ld	a, (hl)
   0D39 F5                 5326 	push	af
   0D3A 33                 5327 	inc	sp
   0D3B 2B                 5328 	dec	hl
   0D3C 7E                 5329 	ld	a, (hl)
   0D3D F5                 5330 	push	af
   0D3E 33                 5331 	inc	sp
   0D3F C5                 5332 	push	bc
   0D40 33                 5333 	inc	sp
   0D41 CDr00r00           5334 	call	_move_sprite
   0D44 E8 03              5335 	add	sp, #3
                           5336 ;..\/game.c:165: }
   0D46 E8 05              5337 	add	sp, #5
   0D48 C9                 5338 	ret
                           5339 ;..\/game.c:168: void setup(UINT8 spawn_x, UINT8 spawn_y)
                           5340 ;	---------------------------------
                           5341 ; Function setup
                           5342 ; ---------------------------------
   0D49                    5343 _setup::
                           5344 ;..\/game.c:171: if(spawn_x > 176)
   0D49 3E B0              5345 	ld	a, #0xb0
   0D4B F8 02              5346 	ldhl	sp,	#2
   0D4D 96                 5347 	sub	a, (hl)
   0D4E 30 0C              5348 	jr	NC,00102$
                           5349 ;..\/game.c:173: h_swapped = TRUE;
   0D50 21rFBr08           5350 	ld	hl, #_h_swapped
   0D53 36 01              5351 	ld	(hl), #0x01
                           5352 ;..\/game.c:174: movement = MOVING_VERTICALLY;
   0D55 21rF6r08           5353 	ld	hl, #_movement
   0D58 36 08              5354 	ld	(hl), #0x08
   0D5A 18 0A              5355 	jr	00103$
   0D5C                    5356 00102$:
                           5357 ;..\/game.c:178: h_swapped = FALSE;
   0D5C 21rFBr08           5358 	ld	hl, #_h_swapped
   0D5F 36 00              5359 	ld	(hl), #0x00
                           5360 ;..\/game.c:179: movement = MOVING_VERTICALLY | FACING_RIGHT;
   0D61 21rF6r08           5361 	ld	hl, #_movement
   0D64 36 09              5362 	ld	(hl), #0x09
   0D66                    5363 00103$:
                           5364 ;..\/game.c:182: gravity = 4;
   0D66 21rF5r08           5365 	ld	hl, #_gravity
   0D69 36 04              5366 	ld	(hl), #0x04
                           5367 ;..\/game.c:183: walking_refresh = 6;
   0D6B 21rF8r08           5368 	ld	hl, #_walking_refresh
   0D6E 36 06              5369 	ld	(hl), #0x06
                           5370 ;..\/game.c:184: jumping_refresh = 0;
   0D70 21rF9r08           5371 	ld	hl, #_jumping_refresh
   0D73 36 00              5372 	ld	(hl), #0x00
                           5373 ;..\/game.c:185: falling_refresh = 0;
   0D75 21rFAr08           5374 	ld	hl, #_falling_refresh
   0D78 36 00              5375 	ld	(hl), #0x00
                           5376 ;..\/game.c:186: requirement_met = FALSE;
   0D7A 21rFFr08           5377 	ld	hl, #_requirement_met
   0D7D 36 00              5378 	ld	(hl), #0x00
                           5379 ;..\/game.c:189: hero.world_x = spawn_x;
   0D7F 11r14r09           5380 	ld	de, #(_hero + 0x0010)
   0D82 F8 02              5381 	ldhl	sp,	#2
   0D84 7E                 5382 	ld	a, (hl)
   0D85 12                 5383 	ld	(de), a
                           5384 ;..\/game.c:190: hero.world_y = spawn_y;
   0D86 11r15r09           5385 	ld	de, #(_hero + 0x0011)
   0D89 23                 5386 	inc	hl
   0D8A 7E                 5387 	ld	a, (hl)
   0D8B 12                 5388 	ld	(de), a
                           5389 ;..\/game.c:191: hero.x = spawn_x;
   0D8C 11r16r09           5390 	ld	de, #(_hero + 0x0012)
   0D8F 2B                 5391 	dec	hl
   0D90 7E                 5392 	ld	a, (hl)
   0D91 12                 5393 	ld	(de), a
                           5394 ;..\/game.c:192: hero.y = spawn_y;
   0D92 11r17r09           5395 	ld	de, #(_hero + 0x0013)
   0D95 23                 5396 	inc	hl
   0D96 7E                 5397 	ld	a, (hl)
   0D97 12                 5398 	ld	(de), a
                           5399 ;..\/game.c:194: set_sprite_tile(0, 0);
   0D98 AF                 5400 	xor	a, a
   0D99 F5                 5401 	push	af
   0D9A 33                 5402 	inc	sp
   0D9B AF                 5403 	xor	a, a
   0D9C F5                 5404 	push	af
   0D9D 33                 5405 	inc	sp
   0D9E CDr00r00           5406 	call	_set_sprite_tile
   0DA1 E8 02              5407 	add	sp, #2
                           5408 ;..\/game.c:195: set_sprite_tile(1, 1);
   0DA3 3E 01              5409 	ld	a, #0x01
   0DA5 F5                 5410 	push	af
   0DA6 33                 5411 	inc	sp
   0DA7 3E 01              5412 	ld	a, #0x01
   0DA9 F5                 5413 	push	af
   0DAA 33                 5414 	inc	sp
   0DAB CDr00r00           5415 	call	_set_sprite_tile
   0DAE E8 02              5416 	add	sp, #2
                           5417 ;..\/game.c:196: set_sprite_tile(2, 2);
   0DB0 3E 02              5418 	ld	a, #0x02
   0DB2 F5                 5419 	push	af
   0DB3 33                 5420 	inc	sp
   0DB4 3E 02              5421 	ld	a, #0x02
   0DB6 F5                 5422 	push	af
   0DB7 33                 5423 	inc	sp
   0DB8 CDr00r00           5424 	call	_set_sprite_tile
   0DBB E8 02              5425 	add	sp, #2
                           5426 ;..\/game.c:197: set_sprite_tile(3, 3);
   0DBD 3E 03              5427 	ld	a, #0x03
   0DBF F5                 5428 	push	af
   0DC0 33                 5429 	inc	sp
   0DC1 3E 03              5430 	ld	a, #0x03
   0DC3 F5                 5431 	push	af
   0DC4 33                 5432 	inc	sp
   0DC5 CDr00r00           5433 	call	_set_sprite_tile
   0DC8 E8 02              5434 	add	sp, #2
                           5435 ;..\/game.c:199: hero.tile_ids[0] = 0;
   0DCA 21r04r09           5436 	ld	hl, #_hero
   0DCD 36 00              5437 	ld	(hl), #0x00
                           5438 ;..\/game.c:200: hero.tile_ids[1] = 1;
   0DCF 21r05r09           5439 	ld	hl, #(_hero + 0x0001)
   0DD2 36 01              5440 	ld	(hl), #0x01
                           5441 ;..\/game.c:201: hero.tile_ids[2] = 2;
   0DD4 21r06r09           5442 	ld	hl, #(_hero + 0x0002)
   0DD7 36 02              5443 	ld	(hl), #0x02
                           5444 ;..\/game.c:202: hero.tile_ids[3] = 3;
   0DD9 21r07r09           5445 	ld	hl, #(_hero + 0x0003)
   0DDC 36 03              5446 	ld	(hl), #0x03
                           5447 ;..\/game.c:203: move_metasprite(&hero, hero.x, hero.y);
   0DDE 21r17r09           5448 	ld	hl, #(_hero + 0x0013) + 0
   0DE1 46                 5449 	ld	b, (hl)
   0DE2 21r16r09           5450 	ld	hl, #(_hero + 0x0012) + 0
   0DE5 4E                 5451 	ld	c, (hl)
   0DE6 C5                 5452 	push	bc
   0DE7 33                 5453 	inc	sp
   0DE8 79                 5454 	ld	a, c
   0DE9 F5                 5455 	push	af
   0DEA 33                 5456 	inc	sp
   0DEB 21r04r09           5457 	ld	hl, #_hero
   0DEE E5                 5458 	push	hl
   0DEF CDrC0r0C           5459 	call	_move_metasprite
   0DF2 E8 04              5460 	add	sp, #4
                           5461 ;..\/game.c:206: bubble.world_x = 12;
   0DF4 21r28r09           5462 	ld	hl, #(_bubble + 0x0010)
   0DF7 36 0C              5463 	ld	(hl), #0x0c
                           5464 ;..\/game.c:207: bubble.world_y = 60;
   0DF9 21r29r09           5465 	ld	hl, #(_bubble + 0x0011)
   0DFC 36 3C              5466 	ld	(hl), #0x3c
                           5467 ;..\/game.c:208: bubble.x = 12;
   0DFE 21r2Ar09           5468 	ld	hl, #(_bubble + 0x0012)
   0E01 36 0C              5469 	ld	(hl), #0x0c
                           5470 ;..\/game.c:209: bubble.y = 60;
   0E03 21r2Br09           5471 	ld	hl, #(_bubble + 0x0013)
   0E06 36 3C              5472 	ld	(hl), #0x3c
                           5473 ;..\/game.c:210: set_sprite_tile(4, 16);
   0E08 3E 10              5474 	ld	a, #0x10
   0E0A F5                 5475 	push	af
   0E0B 33                 5476 	inc	sp
   0E0C 3E 04              5477 	ld	a, #0x04
   0E0E F5                 5478 	push	af
   0E0F 33                 5479 	inc	sp
   0E10 CDr00r00           5480 	call	_set_sprite_tile
   0E13 E8 02              5481 	add	sp, #2
                           5482 ;..\/game.c:211: set_sprite_tile(5, 17);
   0E15 3E 11              5483 	ld	a, #0x11
   0E17 F5                 5484 	push	af
   0E18 33                 5485 	inc	sp
   0E19 3E 05              5486 	ld	a, #0x05
   0E1B F5                 5487 	push	af
   0E1C 33                 5488 	inc	sp
   0E1D CDr00r00           5489 	call	_set_sprite_tile
   0E20 E8 02              5490 	add	sp, #2
                           5491 ;..\/game.c:212: set_sprite_tile(6, 18);
   0E22 3E 12              5492 	ld	a, #0x12
   0E24 F5                 5493 	push	af
   0E25 33                 5494 	inc	sp
   0E26 3E 06              5495 	ld	a, #0x06
   0E28 F5                 5496 	push	af
   0E29 33                 5497 	inc	sp
   0E2A CDr00r00           5498 	call	_set_sprite_tile
   0E2D E8 02              5499 	add	sp, #2
                           5500 ;..\/game.c:213: set_sprite_tile(7, 19);
   0E2F 3E 13              5501 	ld	a, #0x13
   0E31 F5                 5502 	push	af
   0E32 33                 5503 	inc	sp
   0E33 3E 07              5504 	ld	a, #0x07
   0E35 F5                 5505 	push	af
   0E36 33                 5506 	inc	sp
   0E37 CDr00r00           5507 	call	_set_sprite_tile
   0E3A E8 02              5508 	add	sp, #2
                           5509 ;..\/game.c:214: bubble.tile_ids[0] = 4;
   0E3C 21r18r09           5510 	ld	hl, #_bubble
   0E3F 36 04              5511 	ld	(hl), #0x04
                           5512 ;..\/game.c:215: bubble.tile_ids[1] = 5;
   0E41 21r19r09           5513 	ld	hl, #(_bubble + 0x0001)
   0E44 36 05              5514 	ld	(hl), #0x05
                           5515 ;..\/game.c:216: bubble.tile_ids[2] = 6;
   0E46 21r1Ar09           5516 	ld	hl, #(_bubble + 0x0002)
   0E49 36 06              5517 	ld	(hl), #0x06
                           5518 ;..\/game.c:217: bubble.tile_ids[3] = 7;
   0E4B 21r1Br09           5519 	ld	hl, #(_bubble + 0x0003)
   0E4E 36 07              5520 	ld	(hl), #0x07
                           5521 ;..\/game.c:218: move_metasprite(&bubble, bubble.x, bubble.y);
   0E50 21r2Br09           5522 	ld	hl, #(_bubble + 0x0013) + 0
   0E53 46                 5523 	ld	b, (hl)
   0E54 21r2Ar09           5524 	ld	hl, #(_bubble + 0x0012) + 0
   0E57 4E                 5525 	ld	c, (hl)
   0E58 C5                 5526 	push	bc
   0E59 33                 5527 	inc	sp
   0E5A 79                 5528 	ld	a, c
   0E5B F5                 5529 	push	af
   0E5C 33                 5530 	inc	sp
   0E5D 21r18r09           5531 	ld	hl, #_bubble
   0E60 E5                 5532 	push	hl
   0E61 CDrC0r0C           5533 	call	_move_metasprite
   0E64 E8 04              5534 	add	sp, #4
                           5535 ;..\/game.c:220: update_gems();
   0E66 CDrBEr09           5536 	call	_update_gems
                           5537 ;..\/game.c:221: update_chutes();
   0E69 CDr0Fr0A           5538 	call	_update_chutes
                           5539 ;..\/game.c:222: update_score();
   0E6C CDr2Fr0A           5540 	call	_update_score
                           5541 ;..\/game.c:223: update_lives();
                           5542 ;..\/game.c:224: }
   0E6F C3rC2r0A           5543 	jp	_update_lives
                           5544 ;..\/game.c:227: void move_bubbles()
                           5545 ;	---------------------------------
                           5546 ; Function move_bubbles
                           5547 ; ---------------------------------
   0E72                    5548 _move_bubbles::
                           5549 ;..\/game.c:229: bubble.world_y--;
   0E72 01r29r09           5550 	ld	bc, #_bubble + 17
   0E75 0A                 5551 	ld	a, (bc)
   0E76 3D                 5552 	dec	a
   0E77 02                 5553 	ld	(bc), a
                           5554 ;..\/game.c:230: bubble.y--;
   0E78 FAr2Br09           5555 	ld	a, (#(_bubble + 0x0013) + 0)
   0E7B 47                 5556 	ld	b, a
   0E7C 05                 5557 	dec	b
   0E7D 21r2Br09           5558 	ld	hl, #(_bubble + 0x0013)
   0E80 70                 5559 	ld	(hl), b
                           5560 ;..\/game.c:231: move_metasprite(&bubble, bubble.x, bubble.y);
   0E81 21r2Ar09           5561 	ld	hl, #(_bubble + 0x0012) + 0
   0E84 4E                 5562 	ld	c, (hl)
   0E85 C5                 5563 	push	bc
   0E86 33                 5564 	inc	sp
   0E87 79                 5565 	ld	a, c
   0E88 F5                 5566 	push	af
   0E89 33                 5567 	inc	sp
   0E8A 21r18r09           5568 	ld	hl, #_bubble
   0E8D E5                 5569 	push	hl
   0E8E CDrC0r0C           5570 	call	_move_metasprite
   0E91 E8 04              5571 	add	sp, #4
                           5572 ;..\/game.c:232: }
   0E93 C9                 5573 	ret
                           5574 ;..\/game.c:234: void walk_left()
                           5575 ;	---------------------------------
                           5576 ; Function walk_left
                           5577 ; ---------------------------------
   0E94                    5578 _walk_left::
   0E94 E8 FD              5579 	add	sp, #-3
                           5580 ;..\/game.c:237: if(walking_refresh > 29)
   0E96 3E 1D              5581 	ld	a, #0x1d
   0E98 21rF8r08           5582 	ld	hl, #_walking_refresh
   0E9B 96                 5583 	sub	a, (hl)
   0E9C 30 02              5584 	jr	NC,00102$
                           5585 ;..\/game.c:239: walking_refresh = 6;
   0E9E 36 06              5586 	ld	(hl), #0x06
   0EA0                    5587 00102$:
                           5588 ;..\/game.c:242: if(!(movement & MOVING_VERTICALLY))
   0EA0 21rF6r08           5589 	ld	hl, #_movement
   0EA3 7E                 5590 	ld	a, (hl)
   0EA4 CB 5F              5591 	bit	3, a
   0EA6 C2rFFr0E           5592 	jp	NZ,00104$
                           5593 ;..\/game.c:244: set_sprite_tile(0, 1);
   0EA9 3E 01              5594 	ld	a, #0x01
   0EAB F5                 5595 	push	af
   0EAC 33                 5596 	inc	sp
   0EAD AF                 5597 	xor	a, a
   0EAE F5                 5598 	push	af
   0EAF 33                 5599 	inc	sp
   0EB0 CDr00r00           5600 	call	_set_sprite_tile
   0EB3 E8 02              5601 	add	sp, #2
                           5602 ;..\/game.c:245: set_sprite_tile(1, 0);
   0EB5 AF                 5603 	xor	a, a
   0EB6 F5                 5604 	push	af
   0EB7 33                 5605 	inc	sp
   0EB8 3E 01              5606 	ld	a, #0x01
   0EBA F5                 5607 	push	af
   0EBB 33                 5608 	inc	sp
   0EBC CDr00r00           5609 	call	_set_sprite_tile
   0EBF E8 02              5610 	add	sp, #2
                           5611 ;..\/game.c:248: set_sprite_tile(2, 3 + walking_refresh / 6 * 2);
   0EC1 21rF8r08           5612 	ld	hl, #_walking_refresh
   0EC4 4E                 5613 	ld	c, (hl)
   0EC5 06 00              5614 	ld	b, #0x00
   0EC7 21 06 00           5615 	ld	hl, #0x0006
   0ECA E5                 5616 	push	hl
   0ECB C5                 5617 	push	bc
   0ECC CDr00r00           5618 	call	__divsint
   0ECF E8 04              5619 	add	sp, #4
   0ED1 7B                 5620 	ld	a, e
   0ED2 87                 5621 	add	a, a
   0ED3 C6 03              5622 	add	a, #0x03
   0ED5 F5                 5623 	push	af
   0ED6 33                 5624 	inc	sp
   0ED7 3E 02              5625 	ld	a, #0x02
   0ED9 F5                 5626 	push	af
   0EDA 33                 5627 	inc	sp
   0EDB CDr00r00           5628 	call	_set_sprite_tile
   0EDE E8 02              5629 	add	sp, #2
                           5630 ;..\/game.c:249: set_sprite_tile(3, 2 + walking_refresh / 6 * 2);
   0EE0 21rF8r08           5631 	ld	hl, #_walking_refresh
   0EE3 4E                 5632 	ld	c, (hl)
   0EE4 06 00              5633 	ld	b, #0x00
   0EE6 21 06 00           5634 	ld	hl, #0x0006
   0EE9 E5                 5635 	push	hl
   0EEA C5                 5636 	push	bc
   0EEB CDr00r00           5637 	call	__divsint
   0EEE E8 04              5638 	add	sp, #4
   0EF0 7B                 5639 	ld	a, e
   0EF1 87                 5640 	add	a, a
   0EF2 C6 02              5641 	add	a, #0x02
   0EF4 F5                 5642 	push	af
   0EF5 33                 5643 	inc	sp
   0EF6 3E 03              5644 	ld	a, #0x03
   0EF8 F5                 5645 	push	af
   0EF9 33                 5646 	inc	sp
   0EFA CDr00r00           5647 	call	_set_sprite_tile
   0EFD E8 02              5648 	add	sp, #2
   0EFF                    5649 00104$:
                           5650 ;..\/game.c:251: if((movement & FACING_RIGHT))
   0EFF 21rF6r08           5651 	ld	hl, #_movement
   0F02 7E                 5652 	ld	a, (hl)
   0F03 0F                 5653 	rrca
   0F04 D2r41r0F           5654 	jp	NC,00106$
                           5655 ;..\/game.c:254: set_sprite_prop(0, S_FLIPX);
   0F07 3E 20              5656 	ld	a, #0x20
   0F09 F5                 5657 	push	af
   0F0A 33                 5658 	inc	sp
   0F0B AF                 5659 	xor	a, a
   0F0C F5                 5660 	push	af
   0F0D 33                 5661 	inc	sp
   0F0E CDr00r00           5662 	call	_set_sprite_prop
   0F11 E8 02              5663 	add	sp, #2
                           5664 ;..\/game.c:255: set_sprite_prop(1, S_FLIPX);
   0F13 3E 20              5665 	ld	a, #0x20
   0F15 F5                 5666 	push	af
   0F16 33                 5667 	inc	sp
   0F17 3E 01              5668 	ld	a, #0x01
   0F19 F5                 5669 	push	af
   0F1A 33                 5670 	inc	sp
   0F1B CDr00r00           5671 	call	_set_sprite_prop
   0F1E E8 02              5672 	add	sp, #2
                           5673 ;..\/game.c:256: set_sprite_prop(2, S_FLIPX);
   0F20 3E 20              5674 	ld	a, #0x20
   0F22 F5                 5675 	push	af
   0F23 33                 5676 	inc	sp
   0F24 3E 02              5677 	ld	a, #0x02
   0F26 F5                 5678 	push	af
   0F27 33                 5679 	inc	sp
   0F28 CDr00r00           5680 	call	_set_sprite_prop
   0F2B E8 02              5681 	add	sp, #2
                           5682 ;..\/game.c:257: set_sprite_prop(3, S_FLIPX);
   0F2D 3E 20              5683 	ld	a, #0x20
   0F2F F5                 5684 	push	af
   0F30 33                 5685 	inc	sp
   0F31 3E 03              5686 	ld	a, #0x03
   0F33 F5                 5687 	push	af
   0F34 33                 5688 	inc	sp
   0F35 CDr00r00           5689 	call	_set_sprite_prop
   0F38 E8 02              5690 	add	sp, #2
                           5691 ;..\/game.c:259: movement = movement & ~FACING_RIGHT;
   0F3A 21rF6r08           5692 	ld	hl, #_movement
   0F3D 7E                 5693 	ld	a, (hl)
   0F3E E6 FE              5694 	and	a, #0xfe
   0F40 77                 5695 	ld	(hl), a
   0F41                    5696 00106$:
                           5697 ;..\/game.c:262: movement = movement | MOVING_HORIZONTALLY;
   0F41 21rF6r08           5698 	ld	hl, #_movement
   0F44 7E                 5699 	ld	a, (hl)
   0F45 F6 04              5700 	or	a, #0x04
   0F47 77                 5701 	ld	(hl), a
                           5702 ;..\/game.c:264: if(!blocked_left)
   0F48 21rFDr08           5703 	ld	hl, #_blocked_left
   0F4B 7E                 5704 	ld	a, (hl)
   0F4C B7                 5705 	or	a, a
   0F4D C2rA1r10           5706 	jp	NZ, 00118$
                           5707 ;..\/game.c:266: hero.world_x--;
   0F50 FAr14r09           5708 	ld	a, (#(_hero + 0x0010) + 0)
   0F53 4F                 5709 	ld	c, a
   0F54 0D                 5710 	dec	c
   0F55 21r14r09           5711 	ld	hl, #(_hero + 0x0010)
   0F58 71                 5712 	ld	(hl), c
                           5713 ;..\/game.c:269: if(hero.world_x < 80)
   0F59 21r14r09           5714 	ld	hl, #(_hero + 0x0010) + 0
   0F5C 7E                 5715 	ld	a, (hl)
   0F5D F8 00              5716 	ldhl	sp,	#0
   0F5F 77                 5717 	ld	(hl), a
                           5718 ;..\/game.c:271: hero.x = hero.world_x;
                           5719 ;..\/game.c:272: move_metasprite(&hero, hero.x, hero.y);
                           5720 ;..\/game.c:269: if(hero.world_x < 80)
   0F60 79                 5721 	ld	a, c
   0F61 D6 50              5722 	sub	a, #0x50
   0F63 30 1E              5723 	jr	NC,00111$
                           5724 ;..\/game.c:271: hero.x = hero.world_x;
   0F65 11r16r09           5725 	ld	de, #(_hero + 0x0012)
   0F68 F8 00              5726 	ldhl	sp,	#0
   0F6A 7E                 5727 	ld	a, (hl)
   0F6B 12                 5728 	ld	(de), a
                           5729 ;..\/game.c:272: move_metasprite(&hero, hero.x, hero.y);
   0F6C 21r17r09           5730 	ld	hl, #(_hero + 0x0013) + 0
   0F6F 46                 5731 	ld	b, (hl)
   0F70 C5                 5732 	push	bc
   0F71 33                 5733 	inc	sp
   0F72 F8 01              5734 	ldhl	sp,	#1
   0F74 7E                 5735 	ld	a, (hl)
   0F75 F5                 5736 	push	af
   0F76 33                 5737 	inc	sp
   0F77 21r04r09           5738 	ld	hl, #_hero
   0F7A E5                 5739 	push	hl
   0F7B CDrC0r0C           5740 	call	_move_metasprite
   0F7E E8 04              5741 	add	sp, #4
   0F80 C3rFBr0F           5742 	jp	00112$
   0F83                    5743 00111$:
                           5744 ;..\/game.c:274: else if(hero.world_x > level_width * 8 - 81)
   0F83 21rF3r08           5745 	ld	hl, #_level_width
   0F86 4E                 5746 	ld	c, (hl)
   0F87 06 00              5747 	ld	b, #0x00
   0F89 CB 21              5748 	sla	c
   0F8B CB 10              5749 	rl	b
   0F8D CB 21              5750 	sla	c
   0F8F CB 10              5751 	rl	b
   0F91 CB 21              5752 	sla	c
   0F93 CB 10              5753 	rl	b
   0F95 79                 5754 	ld	a, c
   0F96 C6 AF              5755 	add	a, #0xaf
   0F98 4F                 5756 	ld	c, a
   0F99 78                 5757 	ld	a, b
   0F9A CE FF              5758 	adc	a, #0xff
   0F9C 47                 5759 	ld	b, a
   0F9D F8 00              5760 	ldhl	sp,	#0
   0F9F 2A                 5761 	ld	a, (hl+)
   0FA0 77                 5762 	ld	(hl), a
   0FA1 AF                 5763 	xor	a, a
   0FA2 23                 5764 	inc	hl
   0FA3 32                 5765 	ld	(hl-), a
   0FA4 79                 5766 	ld	a, c
   0FA5 96                 5767 	sub	a, (hl)
   0FA6 23                 5768 	inc	hl
   0FA7 78                 5769 	ld	a, b
   0FA8 9E                 5770 	sbc	a, (hl)
   0FA9 78                 5771 	ld	a, b
   0FAA 57                 5772 	ld	d, a
   0FAB 5E                 5773 	ld	e, (hl)
   0FAC CB 7B              5774 	bit	7, e
   0FAE 28 07              5775 	jr	Z,00180$
   0FB0 CB 7A              5776 	bit	7, d
   0FB2 20 08              5777 	jr	NZ,00181$
   0FB4 BF                 5778 	cp	a, a
   0FB5 18 05              5779 	jr	00181$
   0FB7                    5780 00180$:
   0FB7 CB 7A              5781 	bit	7, d
   0FB9 28 01              5782 	jr	Z,00181$
   0FBB 37                 5783 	scf
   0FBC                    5784 00181$:
   0FBC 30 2B              5785 	jr	NC,00108$
                           5786 ;..\/game.c:276: hero.x = 160 - (level_width * 8 - hero.world_x);
   0FBE 21rF3r08           5787 	ld	hl, #_level_width
   0FC1 7E                 5788 	ld	a, (hl)
   0FC2 87                 5789 	add	a, a
   0FC3 87                 5790 	add	a, a
   0FC4 87                 5791 	add	a, a
   0FC5 F8 00              5792 	ldhl	sp,	#0
   0FC7 4E                 5793 	ld	c, (hl)
   0FC8 91                 5794 	sub	a, c
   0FC9 4F                 5795 	ld	c, a
   0FCA 3E A0              5796 	ld	a, #0xa0
   0FCC 91                 5797 	sub	a, c
   0FCD 21r16r09           5798 	ld	hl, #(_hero + 0x0012)
   0FD0 77                 5799 	ld	(hl), a
                           5800 ;..\/game.c:277: move_metasprite(&hero, hero.x, hero.y);
   0FD1 21r17r09           5801 	ld	hl, #(_hero + 0x0013) + 0
   0FD4 4E                 5802 	ld	c, (hl)
   0FD5 21r16r09           5803 	ld	hl, #(_hero + 0x0012) + 0
   0FD8 46                 5804 	ld	b, (hl)
   0FD9 79                 5805 	ld	a, c
   0FDA F5                 5806 	push	af
   0FDB 33                 5807 	inc	sp
   0FDC C5                 5808 	push	bc
   0FDD 33                 5809 	inc	sp
   0FDE 21r04r09           5810 	ld	hl, #_hero
   0FE1 E5                 5811 	push	hl
   0FE2 CDrC0r0C           5812 	call	_move_metasprite
   0FE5 E8 04              5813 	add	sp, #4
   0FE7 18 12              5814 	jr	00112$
   0FE9                    5815 00108$:
                           5816 ;..\/game.c:282: scroll_bkg(-1, 0);
   0FE9 AF                 5817 	xor	a, a
   0FEA F5                 5818 	push	af
   0FEB 33                 5819 	inc	sp
   0FEC 3E FF              5820 	ld	a, #0xff
   0FEE F5                 5821 	push	af
   0FEF 33                 5822 	inc	sp
   0FF0 CDr00r00           5823 	call	_scroll_bkg
   0FF3 E8 02              5824 	add	sp, #2
                           5825 ;..\/game.c:283: bubble.x++;
   0FF5 01r2Ar09           5826 	ld	bc, #_bubble+18
   0FF8 0A                 5827 	ld	a, (bc)
   0FF9 3C                 5828 	inc	a
   0FFA 02                 5829 	ld	(bc), a
   0FFB                    5830 00112$:
                           5831 ;..\/game.c:287: if(h_swapped && hero.world_x < 89)
   0FFB 21rFBr08           5832 	ld	hl, #_h_swapped
   0FFE 7E                 5833 	ld	a, (hl)
   0FFF B7                 5834 	or	a, a
   1000 CArA1r10           5835 	jp	Z, 00118$
   1003 FAr14r09           5836 	ld	a, (#(_hero + 0x0010) + 0)
   1006 D6 59              5837 	sub	a, #0x59
   1008 D2rA1r10           5838 	jp	NC, 00118$
                           5839 ;..\/game.c:289: for(int y = 0; y < 18; y++)
   100B 01 00 00           5840 	ld	bc, #0x0000
   100E                    5841 00120$:
   100E 79                 5842 	ld	a, c
   100F D6 12              5843 	sub	a, #0x12
   1011 78                 5844 	ld	a, b
   1012 17                 5845 	rla
   1013 3F                 5846 	ccf
   1014 1F                 5847 	rra
   1015 DE 80              5848 	sbc	a, #0x80
   1017 D2r81r10           5849 	jp	NC, 00113$
                           5850 ;..\/game.c:291: unsigned char tile = getTileAt(0, y * 8);
   101A F8 00              5851 	ldhl	sp,	#0
   101C 71                 5852 	ld	(hl), c
   101D 23                 5853 	inc	hl
   101E 70                 5854 	ld	(hl), b
   101F 3E 04              5855 	ld	a, #0x03+1
   1021 18 06              5856 	jr	00183$
   1023                    5857 00182$:
   1023 2B                 5858 	dec	hl
   1024 CB 26              5859 	sla	(hl)
   1026 23                 5860 	inc	hl
   1027 CB 16              5861 	rl	(hl)
   1029                    5862 00183$:
   1029 3D                 5863 	dec	a
   102A 20 F7              5864 	jr	NZ,00182$
   102C C5                 5865 	push	bc
   102D 2B                 5866 	dec	hl
   102E 2A                 5867 	ld	a, (hl+)
   102F 66                 5868 	ld	h, (hl)
   1030 6F                 5869 	ld	l, a
   1031 E5                 5870 	push	hl
   1032 21 00 00           5871 	ld	hl, #0x0000
   1035 E5                 5872 	push	hl
   1036 CDrE2r0A           5873 	call	_getTileAt
   1039 E8 04              5874 	add	sp, #4
   103B C1                 5875 	pop	bc
   103C F8 02              5876 	ldhl	sp,	#2
   103E 73                 5877 	ld	(hl), e
                           5878 ;..\/game.c:292: set_tile_at(0, y * 8, getTileAt(32 * 8, y * 8));
   103F C5                 5879 	push	bc
   1040 2B                 5880 	dec	hl
   1041 2B                 5881 	dec	hl
   1042 2A                 5882 	ld	a, (hl+)
   1043 66                 5883 	ld	h, (hl)
   1044 6F                 5884 	ld	l, a
   1045 E5                 5885 	push	hl
   1046 21 00 01           5886 	ld	hl, #0x0100
   1049 E5                 5887 	push	hl
   104A CDrE2r0A           5888 	call	_getTileAt
   104D E8 04              5889 	add	sp, #4
   104F C1                 5890 	pop	bc
   1050 7B                 5891 	ld	a, e
   1051 17                 5892 	rla
   1052 9F                 5893 	sbc	a, a
   1053 57                 5894 	ld	d, a
   1054 C5                 5895 	push	bc
   1055 D5                 5896 	push	de
   1056 F8 04              5897 	ldhl	sp,	#4
   1058 2A                 5898 	ld	a, (hl+)
   1059 66                 5899 	ld	h, (hl)
   105A 6F                 5900 	ld	l, a
   105B E5                 5901 	push	hl
   105C 21 00 00           5902 	ld	hl, #0x0000
   105F E5                 5903 	push	hl
   1060 CDr66r0C           5904 	call	_set_tile_at
   1063 E8 06              5905 	add	sp, #6
   1065 C1                 5906 	pop	bc
                           5907 ;..\/game.c:293: set_tile_at(32 * 8, y * 8, tile);
   1066 F8 02              5908 	ldhl	sp,	#2
   1068 5E                 5909 	ld	e, (hl)
   1069 16 00              5910 	ld	d, #0x00
   106B C5                 5911 	push	bc
   106C D5                 5912 	push	de
   106D 2B                 5913 	dec	hl
   106E 2B                 5914 	dec	hl
   106F 2A                 5915 	ld	a, (hl+)
   1070 66                 5916 	ld	h, (hl)
   1071 6F                 5917 	ld	l, a
   1072 E5                 5918 	push	hl
   1073 21 00 01           5919 	ld	hl, #0x0100
   1076 E5                 5920 	push	hl
   1077 CDr66r0C           5921 	call	_set_tile_at
   107A E8 06              5922 	add	sp, #6
   107C C1                 5923 	pop	bc
                           5924 ;..\/game.c:289: for(int y = 0; y < 18; y++)
   107D 03                 5925 	inc	bc
   107E C3r0Er10           5926 	jp	00120$
   1081                    5927 00113$:
                           5928 ;..\/game.c:295: set_bkg_tiles(0, 0, level_width, level_height, level);
   1081 21rB3r02           5929 	ld	hl, #_level
   1084 E5                 5930 	push	hl
   1085 21rF4r08           5931 	ld	hl, #_level_height
   1088 7E                 5932 	ld	a, (hl)
   1089 F5                 5933 	push	af
   108A 33                 5934 	inc	sp
   108B 21rF3r08           5935 	ld	hl, #_level_width
   108E 7E                 5936 	ld	a, (hl)
   108F F5                 5937 	push	af
   1090 33                 5938 	inc	sp
   1091 AF                 5939 	xor	a, a
   1092 F5                 5940 	push	af
   1093 33                 5941 	inc	sp
   1094 AF                 5942 	xor	a, a
   1095 F5                 5943 	push	af
   1096 33                 5944 	inc	sp
   1097 CDr00r00           5945 	call	_set_bkg_tiles
   109A E8 06              5946 	add	sp, #6
                           5947 ;..\/game.c:296: h_swapped = FALSE;
   109C 21rFBr08           5948 	ld	hl, #_h_swapped
   109F 36 00              5949 	ld	(hl), #0x00
   10A1                    5950 00118$:
                           5951 ;..\/game.c:299: walking_refresh++;
   10A1 21rF8r08           5952 	ld	hl, #_walking_refresh
   10A4 34                 5953 	inc	(hl)
                           5954 ;..\/game.c:300: }
   10A5 E8 03              5955 	add	sp, #3
   10A7 C9                 5956 	ret
                           5957 ;..\/game.c:302: void walk_right() {
                           5958 ;	---------------------------------
                           5959 ; Function walk_right
                           5960 ; ---------------------------------
   10A8                    5961 _walk_right::
   10A8 E8 FD              5962 	add	sp, #-3
                           5963 ;..\/game.c:304: if(walking_refresh > 29)
   10AA 3E 1D              5964 	ld	a, #0x1d
   10AC 21rF8r08           5965 	ld	hl, #_walking_refresh
   10AF 96                 5966 	sub	a, (hl)
   10B0 30 02              5967 	jr	NC,00102$
                           5968 ;..\/game.c:306: walking_refresh = 6;
   10B2 36 06              5969 	ld	(hl), #0x06
   10B4                    5970 00102$:
                           5971 ;..\/game.c:309: if(!(movement & MOVING_VERTICALLY))
   10B4 21rF6r08           5972 	ld	hl, #_movement
   10B7 7E                 5973 	ld	a, (hl)
   10B8 CB 5F              5974 	bit	3, a
   10BA C2r13r11           5975 	jp	NZ,00104$
                           5976 ;..\/game.c:311: set_sprite_tile(0, 0);
   10BD AF                 5977 	xor	a, a
   10BE F5                 5978 	push	af
   10BF 33                 5979 	inc	sp
   10C0 AF                 5980 	xor	a, a
   10C1 F5                 5981 	push	af
   10C2 33                 5982 	inc	sp
   10C3 CDr00r00           5983 	call	_set_sprite_tile
   10C6 E8 02              5984 	add	sp, #2
                           5985 ;..\/game.c:312: set_sprite_tile(1, 1);
   10C8 3E 01              5986 	ld	a, #0x01
   10CA F5                 5987 	push	af
   10CB 33                 5988 	inc	sp
   10CC 3E 01              5989 	ld	a, #0x01
   10CE F5                 5990 	push	af
   10CF 33                 5991 	inc	sp
   10D0 CDr00r00           5992 	call	_set_sprite_tile
   10D3 E8 02              5993 	add	sp, #2
                           5994 ;..\/game.c:315: set_sprite_tile(2, 2 + walking_refresh / 6 * 2);
   10D5 21rF8r08           5995 	ld	hl, #_walking_refresh
   10D8 4E                 5996 	ld	c, (hl)
   10D9 06 00              5997 	ld	b, #0x00
   10DB 21 06 00           5998 	ld	hl, #0x0006
   10DE E5                 5999 	push	hl
   10DF C5                 6000 	push	bc
   10E0 CDr00r00           6001 	call	__divsint
   10E3 E8 04              6002 	add	sp, #4
   10E5 7B                 6003 	ld	a, e
   10E6 87                 6004 	add	a, a
   10E7 C6 02              6005 	add	a, #0x02
   10E9 F5                 6006 	push	af
   10EA 33                 6007 	inc	sp
   10EB 3E 02              6008 	ld	a, #0x02
   10ED F5                 6009 	push	af
   10EE 33                 6010 	inc	sp
   10EF CDr00r00           6011 	call	_set_sprite_tile
   10F2 E8 02              6012 	add	sp, #2
                           6013 ;..\/game.c:316: set_sprite_tile(3, 3 + walking_refresh / 6 * 2);
   10F4 21rF8r08           6014 	ld	hl, #_walking_refresh
   10F7 4E                 6015 	ld	c, (hl)
   10F8 06 00              6016 	ld	b, #0x00
   10FA 21 06 00           6017 	ld	hl, #0x0006
   10FD E5                 6018 	push	hl
   10FE C5                 6019 	push	bc
   10FF CDr00r00           6020 	call	__divsint
   1102 E8 04              6021 	add	sp, #4
   1104 7B                 6022 	ld	a, e
   1105 87                 6023 	add	a, a
   1106 C6 03              6024 	add	a, #0x03
   1108 F5                 6025 	push	af
   1109 33                 6026 	inc	sp
   110A 3E 03              6027 	ld	a, #0x03
   110C F5                 6028 	push	af
   110D 33                 6029 	inc	sp
   110E CDr00r00           6030 	call	_set_sprite_tile
   1111 E8 02              6031 	add	sp, #2
   1113                    6032 00104$:
                           6033 ;..\/game.c:318: if(!(movement & FACING_RIGHT))
   1113 21rF6r08           6034 	ld	hl, #_movement
   1116 7E                 6035 	ld	a, (hl)
   1117 0F                 6036 	rrca
   1118 DAr78r11           6037 	jp	C,00106$
                           6038 ;..\/game.c:320: set_sprite_prop(0, get_sprite_prop(0) & ~S_FLIPX);
   111B AF                 6039 	xor	a, a
   111C F5                 6040 	push	af
   111D 33                 6041 	inc	sp
   111E CDr00r00           6042 	call	_get_sprite_prop
   1121 33                 6043 	inc	sp
   1122 7B                 6044 	ld	a, e
   1123 CB AF              6045 	res	5, a
   1125 F5                 6046 	push	af
   1126 33                 6047 	inc	sp
   1127 AF                 6048 	xor	a, a
   1128 F5                 6049 	push	af
   1129 33                 6050 	inc	sp
   112A CDr00r00           6051 	call	_set_sprite_prop
   112D E8 02              6052 	add	sp, #2
                           6053 ;..\/game.c:321: set_sprite_prop(1, get_sprite_prop(1) & ~S_FLIPX);
   112F 3E 01              6054 	ld	a, #0x01
   1131 F5                 6055 	push	af
   1132 33                 6056 	inc	sp
   1133 CDr00r00           6057 	call	_get_sprite_prop
   1136 33                 6058 	inc	sp
   1137 7B                 6059 	ld	a, e
   1138 CB AF              6060 	res	5, a
   113A F5                 6061 	push	af
   113B 33                 6062 	inc	sp
   113C 3E 01              6063 	ld	a, #0x01
   113E F5                 6064 	push	af
   113F 33                 6065 	inc	sp
   1140 CDr00r00           6066 	call	_set_sprite_prop
   1143 E8 02              6067 	add	sp, #2
                           6068 ;..\/game.c:322: set_sprite_prop(2, get_sprite_prop(2) & ~S_FLIPX);
   1145 3E 02              6069 	ld	a, #0x02
   1147 F5                 6070 	push	af
   1148 33                 6071 	inc	sp
   1149 CDr00r00           6072 	call	_get_sprite_prop
   114C 33                 6073 	inc	sp
   114D 7B                 6074 	ld	a, e
   114E CB AF              6075 	res	5, a
   1150 F5                 6076 	push	af
   1151 33                 6077 	inc	sp
   1152 3E 02              6078 	ld	a, #0x02
   1154 F5                 6079 	push	af
   1155 33                 6080 	inc	sp
   1156 CDr00r00           6081 	call	_set_sprite_prop
   1159 E8 02              6082 	add	sp, #2
                           6083 ;..\/game.c:323: set_sprite_prop(3, get_sprite_prop(3) & ~S_FLIPX);
   115B 3E 03              6084 	ld	a, #0x03
   115D F5                 6085 	push	af
   115E 33                 6086 	inc	sp
   115F CDr00r00           6087 	call	_get_sprite_prop
   1162 33                 6088 	inc	sp
   1163 7B                 6089 	ld	a, e
   1164 CB AF              6090 	res	5, a
   1166 F5                 6091 	push	af
   1167 33                 6092 	inc	sp
   1168 3E 03              6093 	ld	a, #0x03
   116A F5                 6094 	push	af
   116B 33                 6095 	inc	sp
   116C CDr00r00           6096 	call	_set_sprite_prop
   116F E8 02              6097 	add	sp, #2
                           6098 ;..\/game.c:324: movement = movement | FACING_RIGHT;
   1171 21rF6r08           6099 	ld	hl, #_movement
   1174 7E                 6100 	ld	a, (hl)
   1175 F6 01              6101 	or	a, #0x01
   1177 77                 6102 	ld	(hl), a
   1178                    6103 00106$:
                           6104 ;..\/game.c:327: movement = movement | MOVING_HORIZONTALLY;
   1178 21rF6r08           6105 	ld	hl, #_movement
   117B 7E                 6106 	ld	a, (hl)
   117C F6 04              6107 	or	a, #0x04
   117E 77                 6108 	ld	(hl), a
                           6109 ;..\/game.c:329: if(!blocked_right)
   117F 21rFEr08           6110 	ld	hl, #_blocked_right
   1182 7E                 6111 	ld	a, (hl)
   1183 B7                 6112 	or	a, a
   1184 C2rDAr12           6113 	jp	NZ, 00118$
                           6114 ;..\/game.c:331: hero.world_x++;
   1187 FAr14r09           6115 	ld	a, (#(_hero + 0x0010) + 0)
   118A 4F                 6116 	ld	c, a
   118B 0C                 6117 	inc	c
   118C 21r14r09           6118 	ld	hl, #(_hero + 0x0010)
   118F 71                 6119 	ld	(hl), c
                           6120 ;..\/game.c:334: if(hero.world_x < 81)
   1190 21r14r09           6121 	ld	hl, #(_hero + 0x0010) + 0
   1193 7E                 6122 	ld	a, (hl)
   1194 F8 00              6123 	ldhl	sp,	#0
   1196 77                 6124 	ld	(hl), a
                           6125 ;..\/game.c:336: hero.x = hero.world_x;
                           6126 ;..\/game.c:337: move_metasprite(&hero, hero.x, hero.y);
                           6127 ;..\/game.c:334: if(hero.world_x < 81)
   1197 79                 6128 	ld	a, c
   1198 D6 51              6129 	sub	a, #0x51
   119A 30 1E              6130 	jr	NC,00111$
                           6131 ;..\/game.c:336: hero.x = hero.world_x;
   119C 11r16r09           6132 	ld	de, #(_hero + 0x0012)
   119F F8 00              6133 	ldhl	sp,	#0
   11A1 7E                 6134 	ld	a, (hl)
   11A2 12                 6135 	ld	(de), a
                           6136 ;..\/game.c:337: move_metasprite(&hero, hero.x, hero.y);
   11A3 21r17r09           6137 	ld	hl, #(_hero + 0x0013) + 0
   11A6 46                 6138 	ld	b, (hl)
   11A7 C5                 6139 	push	bc
   11A8 33                 6140 	inc	sp
   11A9 F8 01              6141 	ldhl	sp,	#1
   11AB 7E                 6142 	ld	a, (hl)
   11AC F5                 6143 	push	af
   11AD 33                 6144 	inc	sp
   11AE 21r04r09           6145 	ld	hl, #_hero
   11B1 E5                 6146 	push	hl
   11B2 CDrC0r0C           6147 	call	_move_metasprite
   11B5 E8 04              6148 	add	sp, #4
   11B7 C3r32r12           6149 	jp	00112$
   11BA                    6150 00111$:
                           6151 ;..\/game.c:339: else if(hero.world_x > level_width * 8 - 80)
   11BA 21rF3r08           6152 	ld	hl, #_level_width
   11BD 4E                 6153 	ld	c, (hl)
   11BE 06 00              6154 	ld	b, #0x00
   11C0 CB 21              6155 	sla	c
   11C2 CB 10              6156 	rl	b
   11C4 CB 21              6157 	sla	c
   11C6 CB 10              6158 	rl	b
   11C8 CB 21              6159 	sla	c
   11CA CB 10              6160 	rl	b
   11CC 79                 6161 	ld	a, c
   11CD C6 B0              6162 	add	a, #0xb0
   11CF 4F                 6163 	ld	c, a
   11D0 78                 6164 	ld	a, b
   11D1 CE FF              6165 	adc	a, #0xff
   11D3 47                 6166 	ld	b, a
   11D4 F8 00              6167 	ldhl	sp,	#0
   11D6 2A                 6168 	ld	a, (hl+)
   11D7 77                 6169 	ld	(hl), a
   11D8 AF                 6170 	xor	a, a
   11D9 23                 6171 	inc	hl
   11DA 32                 6172 	ld	(hl-), a
   11DB 79                 6173 	ld	a, c
   11DC 96                 6174 	sub	a, (hl)
   11DD 23                 6175 	inc	hl
   11DE 78                 6176 	ld	a, b
   11DF 9E                 6177 	sbc	a, (hl)
   11E0 78                 6178 	ld	a, b
   11E1 57                 6179 	ld	d, a
   11E2 5E                 6180 	ld	e, (hl)
   11E3 CB 7B              6181 	bit	7, e
   11E5 28 07              6182 	jr	Z,00181$
   11E7 CB 7A              6183 	bit	7, d
   11E9 20 08              6184 	jr	NZ,00182$
   11EB BF                 6185 	cp	a, a
   11EC 18 05              6186 	jr	00182$
   11EE                    6187 00181$:
   11EE CB 7A              6188 	bit	7, d
   11F0 28 01              6189 	jr	Z,00182$
   11F2 37                 6190 	scf
   11F3                    6191 00182$:
   11F3 30 2B              6192 	jr	NC,00108$
                           6193 ;..\/game.c:341: hero.x = 160 - (level_width * 8 - hero.world_x);
   11F5 21rF3r08           6194 	ld	hl, #_level_width
   11F8 7E                 6195 	ld	a, (hl)
   11F9 87                 6196 	add	a, a
   11FA 87                 6197 	add	a, a
   11FB 87                 6198 	add	a, a
   11FC F8 00              6199 	ldhl	sp,	#0
   11FE 4E                 6200 	ld	c, (hl)
   11FF 91                 6201 	sub	a, c
   1200 4F                 6202 	ld	c, a
   1201 3E A0              6203 	ld	a, #0xa0
   1203 91                 6204 	sub	a, c
   1204 21r16r09           6205 	ld	hl, #(_hero + 0x0012)
   1207 77                 6206 	ld	(hl), a
                           6207 ;..\/game.c:342: move_metasprite(&hero, hero.x, hero.y);
   1208 21r17r09           6208 	ld	hl, #(_hero + 0x0013) + 0
   120B 4E                 6209 	ld	c, (hl)
   120C 21r16r09           6210 	ld	hl, #(_hero + 0x0012) + 0
   120F 46                 6211 	ld	b, (hl)
   1210 79                 6212 	ld	a, c
   1211 F5                 6213 	push	af
   1212 33                 6214 	inc	sp
   1213 C5                 6215 	push	bc
   1214 33                 6216 	inc	sp
   1215 21r04r09           6217 	ld	hl, #_hero
   1218 E5                 6218 	push	hl
   1219 CDrC0r0C           6219 	call	_move_metasprite
   121C E8 04              6220 	add	sp, #4
   121E 18 12              6221 	jr	00112$
   1220                    6222 00108$:
                           6223 ;..\/game.c:346: scroll_bkg(1, 0);
   1220 AF                 6224 	xor	a, a
   1221 F5                 6225 	push	af
   1222 33                 6226 	inc	sp
   1223 3E 01              6227 	ld	a, #0x01
   1225 F5                 6228 	push	af
   1226 33                 6229 	inc	sp
   1227 CDr00r00           6230 	call	_scroll_bkg
   122A E8 02              6231 	add	sp, #2
                           6232 ;..\/game.c:347: bubble.x--;
   122C 01r2Ar09           6233 	ld	bc, #_bubble+18
   122F 0A                 6234 	ld	a, (bc)
   1230 3D                 6235 	dec	a
   1231 02                 6236 	ld	(bc), a
   1232                    6237 00112$:
                           6238 ;..\/game.c:351: if(!h_swapped && hero.world_x > 176)
   1232 21rFBr08           6239 	ld	hl, #_h_swapped
   1235 7E                 6240 	ld	a, (hl)
   1236 B7                 6241 	or	a, a
   1237 C2rDAr12           6242 	jp	NZ, 00118$
   123A 21r14r09           6243 	ld	hl, #(_hero + 0x0010) + 0
   123D 4E                 6244 	ld	c, (hl)
   123E 3E B0              6245 	ld	a, #0xb0
   1240 91                 6246 	sub	a, c
   1241 D2rDAr12           6247 	jp	NC, 00118$
                           6248 ;..\/game.c:353: for(int y = 0; y < 18; y++)
   1244 01 00 00           6249 	ld	bc, #0x0000
   1247                    6250 00120$:
   1247 79                 6251 	ld	a, c
   1248 D6 12              6252 	sub	a, #0x12
   124A 78                 6253 	ld	a, b
   124B 17                 6254 	rla
   124C 3F                 6255 	ccf
   124D 1F                 6256 	rra
   124E DE 80              6257 	sbc	a, #0x80
   1250 D2rBAr12           6258 	jp	NC, 00113$
                           6259 ;..\/game.c:355: unsigned char tile = getTileAt(0, y * 8);
   1253 F8 00              6260 	ldhl	sp,	#0
   1255 71                 6261 	ld	(hl), c
   1256 23                 6262 	inc	hl
   1257 70                 6263 	ld	(hl), b
   1258 3E 04              6264 	ld	a, #0x03+1
   125A 18 06              6265 	jr	00184$
   125C                    6266 00183$:
   125C 2B                 6267 	dec	hl
   125D CB 26              6268 	sla	(hl)
   125F 23                 6269 	inc	hl
   1260 CB 16              6270 	rl	(hl)
   1262                    6271 00184$:
   1262 3D                 6272 	dec	a
   1263 20 F7              6273 	jr	NZ,00183$
   1265 C5                 6274 	push	bc
   1266 2B                 6275 	dec	hl
   1267 2A                 6276 	ld	a, (hl+)
   1268 66                 6277 	ld	h, (hl)
   1269 6F                 6278 	ld	l, a
   126A E5                 6279 	push	hl
   126B 21 00 00           6280 	ld	hl, #0x0000
   126E E5                 6281 	push	hl
   126F CDrE2r0A           6282 	call	_getTileAt
   1272 E8 04              6283 	add	sp, #4
   1274 C1                 6284 	pop	bc
   1275 F8 02              6285 	ldhl	sp,	#2
   1277 73                 6286 	ld	(hl), e
                           6287 ;..\/game.c:356: set_tile_at(0, y * 8, getTileAt(32 * 8, y * 8));
   1278 C5                 6288 	push	bc
   1279 2B                 6289 	dec	hl
   127A 2B                 6290 	dec	hl
   127B 2A                 6291 	ld	a, (hl+)
   127C 66                 6292 	ld	h, (hl)
   127D 6F                 6293 	ld	l, a
   127E E5                 6294 	push	hl
   127F 21 00 01           6295 	ld	hl, #0x0100
   1282 E5                 6296 	push	hl
   1283 CDrE2r0A           6297 	call	_getTileAt
   1286 E8 04              6298 	add	sp, #4
   1288 C1                 6299 	pop	bc
   1289 7B                 6300 	ld	a, e
   128A 17                 6301 	rla
   128B 9F                 6302 	sbc	a, a
   128C 57                 6303 	ld	d, a
   128D C5                 6304 	push	bc
   128E D5                 6305 	push	de
   128F F8 04              6306 	ldhl	sp,	#4
   1291 2A                 6307 	ld	a, (hl+)
   1292 66                 6308 	ld	h, (hl)
   1293 6F                 6309 	ld	l, a
   1294 E5                 6310 	push	hl
   1295 21 00 00           6311 	ld	hl, #0x0000
   1298 E5                 6312 	push	hl
   1299 CDr66r0C           6313 	call	_set_tile_at
   129C E8 06              6314 	add	sp, #6
   129E C1                 6315 	pop	bc
                           6316 ;..\/game.c:357: set_tile_at(32 * 8, y * 8, tile);
   129F F8 02              6317 	ldhl	sp,	#2
   12A1 5E                 6318 	ld	e, (hl)
   12A2 16 00              6319 	ld	d, #0x00
   12A4 C5                 6320 	push	bc
   12A5 D5                 6321 	push	de
   12A6 2B                 6322 	dec	hl
   12A7 2B                 6323 	dec	hl
   12A8 2A                 6324 	ld	a, (hl+)
   12A9 66                 6325 	ld	h, (hl)
   12AA 6F                 6326 	ld	l, a
   12AB E5                 6327 	push	hl
   12AC 21 00 01           6328 	ld	hl, #0x0100
   12AF E5                 6329 	push	hl
   12B0 CDr66r0C           6330 	call	_set_tile_at
   12B3 E8 06              6331 	add	sp, #6
   12B5 C1                 6332 	pop	bc
                           6333 ;..\/game.c:353: for(int y = 0; y < 18; y++)
   12B6 03                 6334 	inc	bc
   12B7 C3r47r12           6335 	jp	00120$
   12BA                    6336 00113$:
                           6337 ;..\/game.c:359: set_bkg_tiles(0, 0, level_width, level_height, level);
   12BA 21rB3r02           6338 	ld	hl, #_level
   12BD E5                 6339 	push	hl
   12BE 21rF4r08           6340 	ld	hl, #_level_height
   12C1 7E                 6341 	ld	a, (hl)
   12C2 F5                 6342 	push	af
   12C3 33                 6343 	inc	sp
   12C4 21rF3r08           6344 	ld	hl, #_level_width
   12C7 7E                 6345 	ld	a, (hl)
   12C8 F5                 6346 	push	af
   12C9 33                 6347 	inc	sp
   12CA AF                 6348 	xor	a, a
   12CB F5                 6349 	push	af
   12CC 33                 6350 	inc	sp
   12CD AF                 6351 	xor	a, a
   12CE F5                 6352 	push	af
   12CF 33                 6353 	inc	sp
   12D0 CDr00r00           6354 	call	_set_bkg_tiles
   12D3 E8 06              6355 	add	sp, #6
                           6356 ;..\/game.c:360: h_swapped = TRUE;
   12D5 21rFBr08           6357 	ld	hl, #_h_swapped
   12D8 36 01              6358 	ld	(hl), #0x01
   12DA                    6359 00118$:
                           6360 ;..\/game.c:363: walking_refresh++;
   12DA 21rF8r08           6361 	ld	hl, #_walking_refresh
   12DD 34                 6362 	inc	(hl)
                           6363 ;..\/game.c:364: }
   12DE E8 03              6364 	add	sp, #3
   12E0 C9                 6365 	ret
                           6366 ;..\/game.c:366: void jump()
                           6367 ;	---------------------------------
                           6368 ; Function jump
                           6369 ; ---------------------------------
   12E1                    6370 _jump::
                           6371 ;..\/game.c:369: switch(jumping_refresh)
   12E1 21rF9r08           6372 	ld	hl, #_jumping_refresh
   12E4 7E                 6373 	ld	a, (hl)
   12E5 3D                 6374 	dec	a
   12E6 CAr34r13           6375 	jp	Z,00101$
   12E9 21rF9r08           6376 	ld	hl, #_jumping_refresh
   12EC 7E                 6377 	ld	a, (hl)
   12ED D6 04              6378 	sub	a, #0x04
   12EF CAr45r13           6379 	jp	Z,00102$
   12F2 21rF9r08           6380 	ld	hl, #_jumping_refresh
   12F5 7E                 6381 	ld	a, (hl)
   12F6 D6 07              6382 	sub	a, #0x07
   12F8 CAr56r13           6383 	jp	Z,00103$
   12FB 21rF9r08           6384 	ld	hl, #_jumping_refresh
   12FE 7E                 6385 	ld	a, (hl)
   12FF D6 09              6386 	sub	a, #0x09
   1301 CAr67r13           6387 	jp	Z,00104$
   1304 21rF9r08           6388 	ld	hl, #_jumping_refresh
   1307 7E                 6389 	ld	a, (hl)
   1308 D6 0C              6390 	sub	a, #0x0c
   130A CAr78r13           6391 	jp	Z,00105$
   130D 21rF9r08           6392 	ld	hl, #_jumping_refresh
   1310 7E                 6393 	ld	a, (hl)
   1311 D6 0F              6394 	sub	a, #0x0f
   1313 CAr89r13           6395 	jp	Z,00106$
   1316 21rF9r08           6396 	ld	hl, #_jumping_refresh
   1319 7E                 6397 	ld	a, (hl)
   131A D6 12              6398 	sub	a, #0x12
   131C CAr97r13           6399 	jp	Z,00107$
   131F 21rF9r08           6400 	ld	hl, #_jumping_refresh
   1322 7E                 6401 	ld	a, (hl)
   1323 D6 15              6402 	sub	a, #0x15
   1325 CArA5r13           6403 	jp	Z,00108$
   1328 21rF9r08           6404 	ld	hl, #_jumping_refresh
   132B 7E                 6405 	ld	a, (hl)
   132C D6 1A              6406 	sub	a, #0x1a
   132E CArB5r13           6407 	jp	Z,00109$
   1331 C3rC1r13           6408 	jp	00110$
                           6409 ;..\/game.c:371: case 1:
   1334                    6410 00101$:
                           6411 ;..\/game.c:372: hero.world_y = hero.world_y - 7;
   1334 01r15r09           6412 	ld	bc, #_hero + 17
   1337 0A                 6413 	ld	a, (bc)
   1338 C6 F9              6414 	add	a, #0xf9
   133A 02                 6415 	ld	(bc), a
                           6416 ;..\/game.c:373: hero.y = hero.y - 7;
   133B 01r17r09           6417 	ld	bc, #_hero + 19
   133E 0A                 6418 	ld	a, (bc)
   133F C6 F9              6419 	add	a, #0xf9
   1341 02                 6420 	ld	(bc), a
                           6421 ;..\/game.c:374: break;
   1342 C3rC1r13           6422 	jp	00110$
                           6423 ;..\/game.c:375: case 4:
   1345                    6424 00102$:
                           6425 ;..\/game.c:376: hero.world_y = hero.world_y - 6;
   1345 01r15r09           6426 	ld	bc, #_hero + 17
   1348 0A                 6427 	ld	a, (bc)
   1349 C6 FA              6428 	add	a, #0xfa
   134B 02                 6429 	ld	(bc), a
                           6430 ;..\/game.c:377: hero.y = hero.y - 6;
   134C 01r17r09           6431 	ld	bc, #_hero + 19
   134F 0A                 6432 	ld	a, (bc)
   1350 C6 FA              6433 	add	a, #0xfa
   1352 02                 6434 	ld	(bc), a
                           6435 ;..\/game.c:378: break;
   1353 C3rC1r13           6436 	jp	00110$
                           6437 ;..\/game.c:379: case 7:
   1356                    6438 00103$:
                           6439 ;..\/game.c:380: hero.world_y = hero.world_y - 2;
   1356 01r15r09           6440 	ld	bc, #_hero + 17
   1359 0A                 6441 	ld	a, (bc)
   135A 3D                 6442 	dec	a
   135B 3D                 6443 	dec	a
   135C 02                 6444 	ld	(bc), a
                           6445 ;..\/game.c:381: hero.y = hero.y - 2;
   135D 01r17r09           6446 	ld	bc, #_hero + 19
   1360 0A                 6447 	ld	a, (bc)
   1361 3D                 6448 	dec	a
   1362 3D                 6449 	dec	a
   1363 02                 6450 	ld	(bc), a
                           6451 ;..\/game.c:382: break;
   1364 C3rC1r13           6452 	jp	00110$
                           6453 ;..\/game.c:383: case 9:
   1367                    6454 00104$:
                           6455 ;..\/game.c:384: hero.world_y = hero.world_y - 4;
   1367 01r15r09           6456 	ld	bc, #_hero + 17
   136A 0A                 6457 	ld	a, (bc)
   136B C6 FC              6458 	add	a, #0xfc
   136D 02                 6459 	ld	(bc), a
                           6460 ;..\/game.c:385: hero.y = hero.y - 4;
   136E 01r17r09           6461 	ld	bc, #_hero + 19
   1371 0A                 6462 	ld	a, (bc)
   1372 C6 FC              6463 	add	a, #0xfc
   1374 02                 6464 	ld	(bc), a
                           6465 ;..\/game.c:386: break;
   1375 C3rC1r13           6466 	jp	00110$
                           6467 ;..\/game.c:387: case 12:
   1378                    6468 00105$:
                           6469 ;..\/game.c:388: hero.world_y = hero.world_y - 2;
   1378 01r15r09           6470 	ld	bc, #_hero + 17
   137B 0A                 6471 	ld	a, (bc)
   137C 3D                 6472 	dec	a
   137D 3D                 6473 	dec	a
   137E 02                 6474 	ld	(bc), a
                           6475 ;..\/game.c:389: hero.y = hero.y - 2;
   137F 01r17r09           6476 	ld	bc, #_hero + 19
   1382 0A                 6477 	ld	a, (bc)
   1383 3D                 6478 	dec	a
   1384 3D                 6479 	dec	a
   1385 02                 6480 	ld	(bc), a
                           6481 ;..\/game.c:390: break;
   1386 C3rC1r13           6482 	jp	00110$
                           6483 ;..\/game.c:391: case 15:
   1389                    6484 00106$:
                           6485 ;..\/game.c:392: hero.world_y = hero.world_y - 1;
   1389 01r15r09           6486 	ld	bc, #_hero + 17
   138C 0A                 6487 	ld	a, (bc)
   138D 3D                 6488 	dec	a
   138E 02                 6489 	ld	(bc), a
                           6490 ;..\/game.c:393: hero.y = hero.y - 1;
   138F 01r17r09           6491 	ld	bc, #_hero + 19
   1392 0A                 6492 	ld	a, (bc)
   1393 3D                 6493 	dec	a
   1394 02                 6494 	ld	(bc), a
                           6495 ;..\/game.c:394: break;
   1395 18 2A              6496 	jr	00110$
                           6497 ;..\/game.c:395: case 18:
   1397                    6498 00107$:
                           6499 ;..\/game.c:396: hero.world_y = hero.world_y - 1;
   1397 01r15r09           6500 	ld	bc, #_hero + 17
   139A 0A                 6501 	ld	a, (bc)
   139B 3D                 6502 	dec	a
   139C 02                 6503 	ld	(bc), a
                           6504 ;..\/game.c:397: hero.y = hero.y - 1;
   139D 01r17r09           6505 	ld	bc, #_hero + 19
   13A0 0A                 6506 	ld	a, (bc)
   13A1 3D                 6507 	dec	a
   13A2 02                 6508 	ld	(bc), a
                           6509 ;..\/game.c:398: break;
   13A3 18 1C              6510 	jr	00110$
                           6511 ;..\/game.c:400: case 21:
   13A5                    6512 00108$:
                           6513 ;..\/game.c:401: hero.world_y = hero.world_y - 2;
   13A5 01r15r09           6514 	ld	bc, #_hero + 17
   13A8 0A                 6515 	ld	a, (bc)
   13A9 3D                 6516 	dec	a
   13AA 3D                 6517 	dec	a
   13AB 02                 6518 	ld	(bc), a
                           6519 ;..\/game.c:402: hero.y = hero.y - 2;
   13AC 01r17r09           6520 	ld	bc, #_hero + 19
   13AF 0A                 6521 	ld	a, (bc)
   13B0 3D                 6522 	dec	a
   13B1 3D                 6523 	dec	a
   13B2 02                 6524 	ld	(bc), a
                           6525 ;..\/game.c:403: break;
   13B3 18 0C              6526 	jr	00110$
                           6527 ;..\/game.c:405: case 26:
   13B5                    6528 00109$:
                           6529 ;..\/game.c:406: jumping_refresh = 0;
   13B5 21rF9r08           6530 	ld	hl, #_jumping_refresh
   13B8 36 00              6531 	ld	(hl), #0x00
                           6532 ;..\/game.c:407: movement = movement & ~JUMPING;
   13BA 21rF6r08           6533 	ld	hl, #_movement
   13BD 7E                 6534 	ld	a, (hl)
   13BE E6 FD              6535 	and	a, #0xfd
   13C0 77                 6536 	ld	(hl), a
                           6537 ;..\/game.c:409: }
   13C1                    6538 00110$:
                           6539 ;..\/game.c:412: if(movement & FACING_RIGHT)
   13C1 21rF6r08           6540 	ld	hl, #_movement
   13C4 7E                 6541 	ld	a, (hl)
   13C5 0F                 6542 	rrca
   13C6 D2rFFr13           6543 	jp	NC,00112$
                           6544 ;..\/game.c:414: set_sprite_tile(0, 12);
   13C9 3E 0C              6545 	ld	a, #0x0c
   13CB F5                 6546 	push	af
   13CC 33                 6547 	inc	sp
   13CD AF                 6548 	xor	a, a
   13CE F5                 6549 	push	af
   13CF 33                 6550 	inc	sp
   13D0 CDr00r00           6551 	call	_set_sprite_tile
   13D3 E8 02              6552 	add	sp, #2
                           6553 ;..\/game.c:415: set_sprite_tile(1, 13);
   13D5 3E 0D              6554 	ld	a, #0x0d
   13D7 F5                 6555 	push	af
   13D8 33                 6556 	inc	sp
   13D9 3E 01              6557 	ld	a, #0x01
   13DB F5                 6558 	push	af
   13DC 33                 6559 	inc	sp
   13DD CDr00r00           6560 	call	_set_sprite_tile
   13E0 E8 02              6561 	add	sp, #2
                           6562 ;..\/game.c:416: set_sprite_tile(2, 14);
   13E2 3E 0E              6563 	ld	a, #0x0e
   13E4 F5                 6564 	push	af
   13E5 33                 6565 	inc	sp
   13E6 3E 02              6566 	ld	a, #0x02
   13E8 F5                 6567 	push	af
   13E9 33                 6568 	inc	sp
   13EA CDr00r00           6569 	call	_set_sprite_tile
   13ED E8 02              6570 	add	sp, #2
                           6571 ;..\/game.c:417: set_sprite_tile(3, 15);
   13EF 3E 0F              6572 	ld	a, #0x0f
   13F1 F5                 6573 	push	af
   13F2 33                 6574 	inc	sp
   13F3 3E 03              6575 	ld	a, #0x03
   13F5 F5                 6576 	push	af
   13F6 33                 6577 	inc	sp
   13F7 CDr00r00           6578 	call	_set_sprite_tile
   13FA E8 02              6579 	add	sp, #2
   13FC C3r32r14           6580 	jp	00113$
   13FF                    6581 00112$:
                           6582 ;..\/game.c:421: set_sprite_tile(0, 13);
   13FF 3E 0D              6583 	ld	a, #0x0d
   1401 F5                 6584 	push	af
   1402 33                 6585 	inc	sp
   1403 AF                 6586 	xor	a, a
   1404 F5                 6587 	push	af
   1405 33                 6588 	inc	sp
   1406 CDr00r00           6589 	call	_set_sprite_tile
   1409 E8 02              6590 	add	sp, #2
                           6591 ;..\/game.c:422: set_sprite_tile(1, 12);
   140B 3E 0C              6592 	ld	a, #0x0c
   140D F5                 6593 	push	af
   140E 33                 6594 	inc	sp
   140F 3E 01              6595 	ld	a, #0x01
   1411 F5                 6596 	push	af
   1412 33                 6597 	inc	sp
   1413 CDr00r00           6598 	call	_set_sprite_tile
   1416 E8 02              6599 	add	sp, #2
                           6600 ;..\/game.c:423: set_sprite_tile(2, 15);
   1418 3E 0F              6601 	ld	a, #0x0f
   141A F5                 6602 	push	af
   141B 33                 6603 	inc	sp
   141C 3E 02              6604 	ld	a, #0x02
   141E F5                 6605 	push	af
   141F 33                 6606 	inc	sp
   1420 CDr00r00           6607 	call	_set_sprite_tile
   1423 E8 02              6608 	add	sp, #2
                           6609 ;..\/game.c:424: set_sprite_tile(3, 14);
   1425 3E 0E              6610 	ld	a, #0x0e
   1427 F5                 6611 	push	af
   1428 33                 6612 	inc	sp
   1429 3E 03              6613 	ld	a, #0x03
   142B F5                 6614 	push	af
   142C 33                 6615 	inc	sp
   142D CDr00r00           6616 	call	_set_sprite_tile
   1430 E8 02              6617 	add	sp, #2
   1432                    6618 00113$:
                           6619 ;..\/game.c:427: move_metasprite(&hero, hero.x, hero.y);
   1432 21r17r09           6620 	ld	hl, #(_hero + 0x0013) + 0
   1435 46                 6621 	ld	b, (hl)
   1436 21r16r09           6622 	ld	hl, #(_hero + 0x0012) + 0
   1439 4E                 6623 	ld	c, (hl)
   143A C5                 6624 	push	bc
   143B 33                 6625 	inc	sp
   143C 79                 6626 	ld	a, c
   143D F5                 6627 	push	af
   143E 33                 6628 	inc	sp
   143F 21r04r09           6629 	ld	hl, #_hero
   1442 E5                 6630 	push	hl
   1443 CDrC0r0C           6631 	call	_move_metasprite
   1446 E8 04              6632 	add	sp, #4
                           6633 ;..\/game.c:428: jumping_refresh++;
   1448 21rF9r08           6634 	ld	hl, #_jumping_refresh
   144B 34                 6635 	inc	(hl)
                           6636 ;..\/game.c:429: }
   144C C9                 6637 	ret
                           6638 ;..\/game.c:431: void fall()
                           6639 ;	---------------------------------
                           6640 ; Function fall
                           6641 ; ---------------------------------
   144D                    6642 _fall::
                           6643 ;..\/game.c:434: if(key_up(J_B))
   144D 3E 20              6644 	ld	a, #0x20
   144F F5                 6645 	push	af
   1450 33                 6646 	inc	sp
   1451 CDr16r00           6647 	call	_key_up
   1454 33                 6648 	inc	sp
   1455 7B                 6649 	ld	a, e
   1456 B7                 6650 	or	a, a
   1457 28 05              6651 	jr	Z,00102$
                           6652 ;..\/game.c:436: gravity = 4;
   1459 21rF5r08           6653 	ld	hl, #_gravity
   145C 36 04              6654 	ld	(hl), #0x04
   145E                    6655 00102$:
                           6656 ;..\/game.c:439: if((falling_refresh * gravity) % 4 == 0)
   145E 21rF5r08           6657 	ld	hl, #_gravity
   1461 7E                 6658 	ld	a, (hl)
   1462 F5                 6659 	push	af
   1463 33                 6660 	inc	sp
   1464 21rFAr08           6661 	ld	hl, #_falling_refresh
   1467 7E                 6662 	ld	a, (hl)
   1468 F5                 6663 	push	af
   1469 33                 6664 	inc	sp
   146A CDr00r00           6665 	call	__muluchar
   146D E8 02              6666 	add	sp, #2
   146F 21 04 00           6667 	ld	hl, #0x0004
   1472 E5                 6668 	push	hl
   1473 D5                 6669 	push	de
   1474 CDr00r00           6670 	call	__modsint
   1477 E8 04              6671 	add	sp, #4
   1479 7A                 6672 	ld	a, d
   147A B3                 6673 	or	a, e
   147B 20 0C              6674 	jr	NZ,00104$
                           6675 ;..\/game.c:441: hero.world_y = hero.world_y + 1;
   147D 01r15r09           6676 	ld	bc, #_hero + 17
   1480 0A                 6677 	ld	a, (bc)
   1481 3C                 6678 	inc	a
   1482 02                 6679 	ld	(bc), a
                           6680 ;..\/game.c:442: hero.y = hero.y + 1;
   1483 01r17r09           6681 	ld	bc, #_hero + 19
   1486 0A                 6682 	ld	a, (bc)
   1487 3C                 6683 	inc	a
   1488 02                 6684 	ld	(bc), a
   1489                    6685 00104$:
                           6686 ;..\/game.c:446: if(movement & FACING_RIGHT)
   1489 21rF6r08           6687 	ld	hl, #_movement
   148C 7E                 6688 	ld	a, (hl)
   148D 0F                 6689 	rrca
   148E D2rC7r14           6690 	jp	NC,00106$
                           6691 ;..\/game.c:448: set_sprite_tile(0, 12);
   1491 3E 0C              6692 	ld	a, #0x0c
   1493 F5                 6693 	push	af
   1494 33                 6694 	inc	sp
   1495 AF                 6695 	xor	a, a
   1496 F5                 6696 	push	af
   1497 33                 6697 	inc	sp
   1498 CDr00r00           6698 	call	_set_sprite_tile
   149B E8 02              6699 	add	sp, #2
                           6700 ;..\/game.c:449: set_sprite_tile(1, 13);
   149D 3E 0D              6701 	ld	a, #0x0d
   149F F5                 6702 	push	af
   14A0 33                 6703 	inc	sp
   14A1 3E 01              6704 	ld	a, #0x01
   14A3 F5                 6705 	push	af
   14A4 33                 6706 	inc	sp
   14A5 CDr00r00           6707 	call	_set_sprite_tile
   14A8 E8 02              6708 	add	sp, #2
                           6709 ;..\/game.c:450: set_sprite_tile(2, 14);
   14AA 3E 0E              6710 	ld	a, #0x0e
   14AC F5                 6711 	push	af
   14AD 33                 6712 	inc	sp
   14AE 3E 02              6713 	ld	a, #0x02
   14B0 F5                 6714 	push	af
   14B1 33                 6715 	inc	sp
   14B2 CDr00r00           6716 	call	_set_sprite_tile
   14B5 E8 02              6717 	add	sp, #2
                           6718 ;..\/game.c:451: set_sprite_tile(3, 15);
   14B7 3E 0F              6719 	ld	a, #0x0f
   14B9 F5                 6720 	push	af
   14BA 33                 6721 	inc	sp
   14BB 3E 03              6722 	ld	a, #0x03
   14BD F5                 6723 	push	af
   14BE 33                 6724 	inc	sp
   14BF CDr00r00           6725 	call	_set_sprite_tile
   14C2 E8 02              6726 	add	sp, #2
   14C4 C3rFAr14           6727 	jp	00107$
   14C7                    6728 00106$:
                           6729 ;..\/game.c:455: set_sprite_tile(0, 13);
   14C7 3E 0D              6730 	ld	a, #0x0d
   14C9 F5                 6731 	push	af
   14CA 33                 6732 	inc	sp
   14CB AF                 6733 	xor	a, a
   14CC F5                 6734 	push	af
   14CD 33                 6735 	inc	sp
   14CE CDr00r00           6736 	call	_set_sprite_tile
   14D1 E8 02              6737 	add	sp, #2
                           6738 ;..\/game.c:456: set_sprite_tile(1, 12);
   14D3 3E 0C              6739 	ld	a, #0x0c
   14D5 F5                 6740 	push	af
   14D6 33                 6741 	inc	sp
   14D7 3E 01              6742 	ld	a, #0x01
   14D9 F5                 6743 	push	af
   14DA 33                 6744 	inc	sp
   14DB CDr00r00           6745 	call	_set_sprite_tile
   14DE E8 02              6746 	add	sp, #2
                           6747 ;..\/game.c:457: set_sprite_tile(2, 15);
   14E0 3E 0F              6748 	ld	a, #0x0f
   14E2 F5                 6749 	push	af
   14E3 33                 6750 	inc	sp
   14E4 3E 02              6751 	ld	a, #0x02
   14E6 F5                 6752 	push	af
   14E7 33                 6753 	inc	sp
   14E8 CDr00r00           6754 	call	_set_sprite_tile
   14EB E8 02              6755 	add	sp, #2
                           6756 ;..\/game.c:458: set_sprite_tile(3, 14);
   14ED 3E 0E              6757 	ld	a, #0x0e
   14EF F5                 6758 	push	af
   14F0 33                 6759 	inc	sp
   14F1 3E 03              6760 	ld	a, #0x03
   14F3 F5                 6761 	push	af
   14F4 33                 6762 	inc	sp
   14F5 CDr00r00           6763 	call	_set_sprite_tile
   14F8 E8 02              6764 	add	sp, #2
   14FA                    6765 00107$:
                           6766 ;..\/game.c:460: move_metasprite(&hero, hero.x, hero.y);
   14FA 21r17r09           6767 	ld	hl, #(_hero + 0x0013) + 0
   14FD 46                 6768 	ld	b, (hl)
   14FE 21r16r09           6769 	ld	hl, #(_hero + 0x0012) + 0
   1501 4E                 6770 	ld	c, (hl)
   1502 C5                 6771 	push	bc
   1503 33                 6772 	inc	sp
   1504 79                 6773 	ld	a, c
   1505 F5                 6774 	push	af
   1506 33                 6775 	inc	sp
   1507 21r04r09           6776 	ld	hl, #_hero
   150A E5                 6777 	push	hl
   150B CDrC0r0C           6778 	call	_move_metasprite
   150E E8 04              6779 	add	sp, #4
                           6780 ;..\/game.c:462: falling_refresh++;
   1510 21rFAr08           6781 	ld	hl, #_falling_refresh
   1513 34                 6782 	inc	(hl)
                           6783 ;..\/game.c:463: }
   1514 C9                 6784 	ret
                           6785 ;..\/game.c:465: void stop()
                           6786 ;	---------------------------------
                           6787 ; Function stop
                           6788 ; ---------------------------------
   1515                    6789 _stop::
                           6790 ;..\/game.c:468: if(!(movement & MOVING_HORIZONTALLY))
   1515 21rF6r08           6791 	ld	hl, #_movement
   1518 7E                 6792 	ld	a, (hl)
   1519 CB 57              6793 	bit	2, a
   151B C2r89r15           6794 	jp	NZ,00105$
                           6795 ;..\/game.c:470: if(movement & FACING_RIGHT)
   151E 0F                 6796 	rrca
   151F D2r57r15           6797 	jp	NC,00102$
                           6798 ;..\/game.c:472: set_sprite_tile(0, 0);
   1522 AF                 6799 	xor	a, a
   1523 F5                 6800 	push	af
   1524 33                 6801 	inc	sp
   1525 AF                 6802 	xor	a, a
   1526 F5                 6803 	push	af
   1527 33                 6804 	inc	sp
   1528 CDr00r00           6805 	call	_set_sprite_tile
   152B E8 02              6806 	add	sp, #2
                           6807 ;..\/game.c:473: set_sprite_tile(1, 1);
   152D 3E 01              6808 	ld	a, #0x01
   152F F5                 6809 	push	af
   1530 33                 6810 	inc	sp
   1531 3E 01              6811 	ld	a, #0x01
   1533 F5                 6812 	push	af
   1534 33                 6813 	inc	sp
   1535 CDr00r00           6814 	call	_set_sprite_tile
   1538 E8 02              6815 	add	sp, #2
                           6816 ;..\/game.c:474: set_sprite_tile(2, 2);
   153A 3E 02              6817 	ld	a, #0x02
   153C F5                 6818 	push	af
   153D 33                 6819 	inc	sp
   153E 3E 02              6820 	ld	a, #0x02
   1540 F5                 6821 	push	af
   1541 33                 6822 	inc	sp
   1542 CDr00r00           6823 	call	_set_sprite_tile
   1545 E8 02              6824 	add	sp, #2
                           6825 ;..\/game.c:475: set_sprite_tile(3, 3);
   1547 3E 03              6826 	ld	a, #0x03
   1549 F5                 6827 	push	af
   154A 33                 6828 	inc	sp
   154B 3E 03              6829 	ld	a, #0x03
   154D F5                 6830 	push	af
   154E 33                 6831 	inc	sp
   154F CDr00r00           6832 	call	_set_sprite_tile
   1552 E8 02              6833 	add	sp, #2
   1554 C3r89r15           6834 	jp	00105$
   1557                    6835 00102$:
                           6836 ;..\/game.c:479: set_sprite_tile(0, 1);
   1557 3E 01              6837 	ld	a, #0x01
   1559 F5                 6838 	push	af
   155A 33                 6839 	inc	sp
   155B AF                 6840 	xor	a, a
   155C F5                 6841 	push	af
   155D 33                 6842 	inc	sp
   155E CDr00r00           6843 	call	_set_sprite_tile
   1561 E8 02              6844 	add	sp, #2
                           6845 ;..\/game.c:480: set_sprite_tile(1, 0);
   1563 AF                 6846 	xor	a, a
   1564 F5                 6847 	push	af
   1565 33                 6848 	inc	sp
   1566 3E 01              6849 	ld	a, #0x01
   1568 F5                 6850 	push	af
   1569 33                 6851 	inc	sp
   156A CDr00r00           6852 	call	_set_sprite_tile
   156D E8 02              6853 	add	sp, #2
                           6854 ;..\/game.c:481: set_sprite_tile(2, 3);
   156F 3E 03              6855 	ld	a, #0x03
   1571 F5                 6856 	push	af
   1572 33                 6857 	inc	sp
   1573 3E 02              6858 	ld	a, #0x02
   1575 F5                 6859 	push	af
   1576 33                 6860 	inc	sp
   1577 CDr00r00           6861 	call	_set_sprite_tile
   157A E8 02              6862 	add	sp, #2
                           6863 ;..\/game.c:482: set_sprite_tile(3, 2);
   157C 3E 02              6864 	ld	a, #0x02
   157E F5                 6865 	push	af
   157F 33                 6866 	inc	sp
   1580 3E 03              6867 	ld	a, #0x03
   1582 F5                 6868 	push	af
   1583 33                 6869 	inc	sp
   1584 CDr00r00           6870 	call	_set_sprite_tile
   1587 E8 02              6871 	add	sp, #2
   1589                    6872 00105$:
                           6873 ;..\/game.c:487: if(((movement >> 4) & FACING_RIGHT) && !(movement & FACING_RIGHT))
   1589 21rF6r08           6874 	ld	hl, #_movement
   158C 7E                 6875 	ld	a, (hl)
   158D CB 37              6876 	swap	a
   158F E6 0F              6877 	and	a, #0x0f
   1591 0F                 6878 	rrca
   1592 D2rD0r15           6879 	jp	NC,00107$
   1595 21rF6r08           6880 	ld	hl, #_movement
   1598 7E                 6881 	ld	a, (hl)
   1599 0F                 6882 	rrca
   159A DArD0r15           6883 	jp	C,00107$
                           6884 ;..\/game.c:489: set_sprite_prop(0, S_FLIPX);
   159D 3E 20              6885 	ld	a, #0x20
   159F F5                 6886 	push	af
   15A0 33                 6887 	inc	sp
   15A1 AF                 6888 	xor	a, a
   15A2 F5                 6889 	push	af
   15A3 33                 6890 	inc	sp
   15A4 CDr00r00           6891 	call	_set_sprite_prop
   15A7 E8 02              6892 	add	sp, #2
                           6893 ;..\/game.c:490: set_sprite_prop(1, S_FLIPX);
   15A9 3E 20              6894 	ld	a, #0x20
   15AB F5                 6895 	push	af
   15AC 33                 6896 	inc	sp
   15AD 3E 01              6897 	ld	a, #0x01
   15AF F5                 6898 	push	af
   15B0 33                 6899 	inc	sp
   15B1 CDr00r00           6900 	call	_set_sprite_prop
   15B4 E8 02              6901 	add	sp, #2
                           6902 ;..\/game.c:491: set_sprite_prop(2, S_FLIPX);
   15B6 3E 20              6903 	ld	a, #0x20
   15B8 F5                 6904 	push	af
   15B9 33                 6905 	inc	sp
   15BA 3E 02              6906 	ld	a, #0x02
   15BC F5                 6907 	push	af
   15BD 33                 6908 	inc	sp
   15BE CDr00r00           6909 	call	_set_sprite_prop
   15C1 E8 02              6910 	add	sp, #2
                           6911 ;..\/game.c:492: set_sprite_prop(3, S_FLIPX);
   15C3 3E 20              6912 	ld	a, #0x20
   15C5 F5                 6913 	push	af
   15C6 33                 6914 	inc	sp
   15C7 3E 03              6915 	ld	a, #0x03
   15C9 F5                 6916 	push	af
   15CA 33                 6917 	inc	sp
   15CB CDr00r00           6918 	call	_set_sprite_prop
   15CE E8 02              6919 	add	sp, #2
   15D0                    6920 00107$:
                           6921 ;..\/game.c:495: if(!((movement >> 4) & FACING_RIGHT) && (movement & FACING_RIGHT))
   15D0 21rF6r08           6922 	ld	hl, #_movement
   15D3 7E                 6923 	ld	a, (hl)
   15D4 CB 37              6924 	swap	a
   15D6 E6 0F              6925 	and	a, #0x0f
   15D8 0F                 6926 	rrca
   15D9 D8                 6927 	ret	C
   15DA 21rF6r08           6928 	ld	hl, #_movement
   15DD 7E                 6929 	ld	a, (hl)
   15DE 0F                 6930 	rrca
   15DF D0                 6931 	ret	NC
                           6932 ;..\/game.c:497: set_sprite_prop(0, get_sprite_prop(0) & ~S_FLIPX);
   15E0 AF                 6933 	xor	a, a
   15E1 F5                 6934 	push	af
   15E2 33                 6935 	inc	sp
   15E3 CDr00r00           6936 	call	_get_sprite_prop
   15E6 33                 6937 	inc	sp
   15E7 7B                 6938 	ld	a, e
   15E8 CB AF              6939 	res	5, a
   15EA F5                 6940 	push	af
   15EB 33                 6941 	inc	sp
   15EC AF                 6942 	xor	a, a
   15ED F5                 6943 	push	af
   15EE 33                 6944 	inc	sp
   15EF CDr00r00           6945 	call	_set_sprite_prop
   15F2 E8 02              6946 	add	sp, #2
                           6947 ;..\/game.c:498: set_sprite_prop(1, get_sprite_prop(0) & ~S_FLIPX);
   15F4 AF                 6948 	xor	a, a
   15F5 F5                 6949 	push	af
   15F6 33                 6950 	inc	sp
   15F7 CDr00r00           6951 	call	_get_sprite_prop
   15FA 33                 6952 	inc	sp
   15FB 7B                 6953 	ld	a, e
   15FC CB AF              6954 	res	5, a
   15FE F5                 6955 	push	af
   15FF 33                 6956 	inc	sp
   1600 3E 01              6957 	ld	a, #0x01
   1602 F5                 6958 	push	af
   1603 33                 6959 	inc	sp
   1604 CDr00r00           6960 	call	_set_sprite_prop
   1607 E8 02              6961 	add	sp, #2
                           6962 ;..\/game.c:499: set_sprite_prop(2, get_sprite_prop(0) & ~S_FLIPX);
   1609 AF                 6963 	xor	a, a
   160A F5                 6964 	push	af
   160B 33                 6965 	inc	sp
   160C CDr00r00           6966 	call	_get_sprite_prop
   160F 33                 6967 	inc	sp
   1610 7B                 6968 	ld	a, e
   1611 CB AF              6969 	res	5, a
   1613 F5                 6970 	push	af
   1614 33                 6971 	inc	sp
   1615 3E 02              6972 	ld	a, #0x02
   1617 F5                 6973 	push	af
   1618 33                 6974 	inc	sp
   1619 CDr00r00           6975 	call	_set_sprite_prop
   161C E8 02              6976 	add	sp, #2
                           6977 ;..\/game.c:500: set_sprite_prop(3, get_sprite_prop(0) & ~S_FLIPX);
   161E AF                 6978 	xor	a, a
   161F F5                 6979 	push	af
   1620 33                 6980 	inc	sp
   1621 CDr00r00           6981 	call	_get_sprite_prop
   1624 33                 6982 	inc	sp
   1625 7B                 6983 	ld	a, e
   1626 CB AF              6984 	res	5, a
   1628 F5                 6985 	push	af
   1629 33                 6986 	inc	sp
   162A 3E 03              6987 	ld	a, #0x03
   162C F5                 6988 	push	af
   162D 33                 6989 	inc	sp
   162E CDr00r00           6990 	call	_set_sprite_prop
   1631 E8 02              6991 	add	sp, #2
                           6992 ;..\/game.c:502: }
   1633 C9                 6993 	ret
                           6994 ;..\/game.c:504: void die()
                           6995 ;	---------------------------------
                           6996 ; Function die
                           6997 ; ---------------------------------
   1634                    6998 _die::
   1634 E8 F8              6999 	add	sp, #-8
                           7000 ;..\/game.c:506: lives--;
   1636 21r00r09           7001 	ld	hl, #_lives
   1639 35                 7002 	dec	(hl)
                           7003 ;..\/game.c:507: if(lives < 1) //gameover
   163A 7E                 7004 	ld	a, (hl)
   163B D6 01              7005 	sub	a, #0x01
   163D D2r3Er17           7006 	jp	NC, 00116$
                           7007 ;..\/game.c:510: gems = 0;
   1640 21r01r09           7008 	ld	hl, #_gems
   1643 36 00              7009 	ld	(hl), #0x00
                           7010 ;..\/game.c:511: score = 0;
   1645 21r02r09           7011 	ld	hl, #_score
   1648 36 00              7012 	ld	(hl), #0x00
                           7013 ;..\/game.c:512: chutes = 0;
   164A 21r03r09           7014 	ld	hl, #_chutes
   164D 36 00              7015 	ld	(hl), #0x00
                           7016 ;..\/game.c:513: lives = 3;
   164F 21r00r09           7017 	ld	hl, #_lives
   1652 36 03              7018 	ld	(hl), #0x03
                           7019 ;..\/game.c:514: selected = 1;
   1654 21r03r00           7020 	ld	hl, #_selected
   1657 36 01              7021 	ld	(hl), #0x01
                           7022 ;..\/game.c:515: unlocked = 1;
   1659 21r04r00           7023 	ld	hl, #_unlocked
   165C 36 01              7024 	ld	(hl), #0x01
                           7025 ;..\/game.c:517: while(!faded_out)
   165E                    7026 00101$:
   165E 21r2Er09           7027 	ld	hl, #_faded_out
   1661 7E                 7028 	ld	a, (hl)
   1662 B7                 7029 	or	a, a
   1663 20 12              7030 	jr	NZ,00103$
                           7031 ;..\/game.c:519: fade_to_white(4);
   1665 3E 04              7032 	ld	a, #0x04
   1667 F5                 7033 	push	af
   1668 33                 7034 	inc	sp
   1669 CDr3Dr2B           7035 	call	_fade_to_white
   166C 33                 7036 	inc	sp
                           7037 ;..\/game.c:520: vbl_wait(2);
   166D 3E 02              7038 	ld	a, #0x02
   166F F5                 7039 	push	af
   1670 33                 7040 	inc	sp
   1671 CDr59r2A           7041 	call	_vbl_wait
   1674 33                 7042 	inc	sp
   1675 18 E7              7043 	jr	00101$
   1677                    7044 00103$:
                           7045 ;..\/game.c:524: set_win_tiles(0, 0, 20, 7, gameover_win);
   1677 21r21r02           7046 	ld	hl, #_gameover_win
   167A E5                 7047 	push	hl
   167B 3E 07              7048 	ld	a, #0x07
   167D F5                 7049 	push	af
   167E 33                 7050 	inc	sp
   167F 3E 14              7051 	ld	a, #0x14
   1681 F5                 7052 	push	af
   1682 33                 7053 	inc	sp
   1683 AF                 7054 	xor	a, a
   1684 F5                 7055 	push	af
   1685 33                 7056 	inc	sp
   1686 AF                 7057 	xor	a, a
   1687 F5                 7058 	push	af
   1688 33                 7059 	inc	sp
   1689 CDr00r00           7060 	call	_set_win_tiles
   168C E8 06              7061 	add	sp, #6
                           7062 ;..\/game.c:525: move_win(7, 44);
   168E 3E 2C              7063 	ld	a, #0x2c
   1690 F5                 7064 	push	af
   1691 33                 7065 	inc	sp
   1692 3E 07              7066 	ld	a, #0x07
   1694 F5                 7067 	push	af
   1695 33                 7068 	inc	sp
   1696 CDr00r00           7069 	call	_move_win
   1699 E8 02              7070 	add	sp, #2
                           7071 ;..\/game.c:526: disable_interrupts();
   169B CDr00r00           7072 	call	_disable_interrupts
                           7073 ;..\/game.c:527: LYC_REG = 99;
   169E 3E 63              7074 	ld	a, #0x63
   16A0 E0r00              7075 	ldh	(_LYC_REG+0),a
                           7076 ;..\/game.c:528: remove_LCD(game_LCD);
   16A2 21r6Dr01           7077 	ld	hl, #_game_LCD
   16A5 E5                 7078 	push	hl
   16A6 CDr00r00           7079 	call	_remove_LCD
   16A9 E8 02              7080 	add	sp, #2
                           7081 ;..\/game.c:529: remove_VBL(game_VBL);
   16AB 21r85r09           7082 	ld	hl, #_game_VBL
   16AE E5                 7083 	push	hl
   16AF CDr00r00           7084 	call	_remove_VBL
   16B2 E8 02              7085 	add	sp, #2
                           7086 ;..\/game.c:530: add_LCD(window_LCD);
   16B4 21r8Cr09           7087 	ld	hl, #_window_LCD
   16B7 E5                 7088 	push	hl
   16B8 CDr00r00           7089 	call	_add_LCD
   16BB E8 02              7090 	add	sp, #2
                           7091 ;..\/game.c:531: add_VBL(window_VBL);
   16BD 21rB7r09           7092 	ld	hl, #_window_VBL
   16C0 E5                 7093 	push	hl
   16C1 CDr00r00           7094 	call	_add_VBL
   16C4 E8 02              7095 	add	sp, #2
                           7096 ;..\/game.c:532: enable_interrupts();
   16C6 CDr00r00           7097 	call	_enable_interrupts
                           7098 ;..\/game.c:534: while(faded_out)
   16C9                    7099 00104$:
   16C9 21r2Er09           7100 	ld	hl, #_faded_out
   16CC 7E                 7101 	ld	a, (hl)
   16CD B7                 7102 	or	a, a
   16CE 28 12              7103 	jr	Z,00114$
                           7104 ;..\/game.c:536: fade_from_white(4);
   16D0 3E 04              7105 	ld	a, #0x04
   16D2 F5                 7106 	push	af
   16D3 33                 7107 	inc	sp
   16D4 CDr90r2B           7108 	call	_fade_from_white
   16D7 33                 7109 	inc	sp
                           7110 ;..\/game.c:537: vbl_wait(2);
   16D8 3E 02              7111 	ld	a, #0x02
   16DA F5                 7112 	push	af
   16DB 33                 7113 	inc	sp
   16DC CDr59r2A           7114 	call	_vbl_wait
   16DF 33                 7115 	inc	sp
   16E0 18 E7              7116 	jr	00104$
                           7117 ;..\/game.c:540: while(1)
   16E2                    7118 00114$:
                           7119 ;..\/game.c:542: if(key_down(J_A) || key_down(J_START)) //return to the title screen
   16E2 3E 10              7120 	ld	a, #0x10
   16E4 F5                 7121 	push	af
   16E5 33                 7122 	inc	sp
   16E6 CDr00r00           7123 	call	_key_down
   16E9 33                 7124 	inc	sp
   16EA 7B                 7125 	ld	a, e
   16EB B7                 7126 	or	a, a
   16EC 20 0C              7127 	jr	NZ,00110$
   16EE 3E 80              7128 	ld	a, #0x80
   16F0 F5                 7129 	push	af
   16F1 33                 7130 	inc	sp
   16F2 CDr00r00           7131 	call	_key_down
   16F5 33                 7132 	inc	sp
   16F6 7B                 7133 	ld	a, e
   16F7 B7                 7134 	or	a, a
   16F8 28 39              7135 	jr	Z,00111$
   16FA                    7136 00110$:
                           7137 ;..\/game.c:544: disable_interrupts();
   16FA CDr00r00           7138 	call	_disable_interrupts
                           7139 ;..\/game.c:545: remove_LCD(window_LCD);
   16FD 21r8Cr09           7140 	ld	hl, #_window_LCD
   1700 E5                 7141 	push	hl
   1701 CDr00r00           7142 	call	_remove_LCD
   1704 E8 02              7143 	add	sp, #2
                           7144 ;..\/game.c:546: remove_VBL(window_VBL);
   1706 21rB7r09           7145 	ld	hl, #_window_VBL
   1709 E5                 7146 	push	hl
   170A CDr00r00           7147 	call	_remove_VBL
   170D E8 02              7148 	add	sp, #2
                           7149 ;..\/game.c:547: enable_interrupts();
   170F CDr00r00           7150 	call	_enable_interrupts
                           7151 ;..\/game.c:549: while(!faded_out)
   1712                    7152 00107$:
   1712 21r2Er09           7153 	ld	hl, #_faded_out
   1715 7E                 7154 	ld	a, (hl)
   1716 B7                 7155 	or	a, a
   1717 20 12              7156 	jr	NZ,00109$
                           7157 ;..\/game.c:551: fade_to_white(4);
   1719 3E 04              7158 	ld	a, #0x04
   171B F5                 7159 	push	af
   171C 33                 7160 	inc	sp
   171D CDr3Dr2B           7161 	call	_fade_to_white
   1720 33                 7162 	inc	sp
                           7163 ;..\/game.c:552: vbl_wait(2);
   1721 3E 02              7164 	ld	a, #0x02
   1723 F5                 7165 	push	af
   1724 33                 7166 	inc	sp
   1725 CDr59r2A           7167 	call	_vbl_wait
   1728 33                 7168 	inc	sp
   1729 18 E7              7169 	jr	00107$
   172B                    7170 00109$:
                           7171 ;..\/game.c:555: scene = TITLE;
   172B 21r2Cr09           7172 	ld	hl, #_scene
   172E 36 00              7173 	ld	(hl), #0x00
                           7174 ;..\/game.c:556: break;
   1730 C3r7Dr18           7175 	jp	00133$
   1733                    7176 00111$:
                           7177 ;..\/game.c:558: vbl_wait(2);
   1733 3E 02              7178 	ld	a, #0x02
   1735 F5                 7179 	push	af
   1736 33                 7180 	inc	sp
   1737 CDr59r2A           7181 	call	_vbl_wait
   173A 33                 7182 	inc	sp
   173B C3rE2r16           7183 	jp	00114$
                           7184 ;..\/game.c:563: while(!faded_out)
   173E                    7185 00116$:
   173E 21r2Er09           7186 	ld	hl, #_faded_out
   1741 7E                 7187 	ld	a, (hl)
   1742 B7                 7188 	or	a, a
   1743 20 12              7189 	jr	NZ,00118$
                           7190 ;..\/game.c:565: fade_to_black(4);
   1745 3E 04              7191 	ld	a, #0x04
   1747 F5                 7192 	push	af
   1748 33                 7193 	inc	sp
   1749 CDr8Cr2A           7194 	call	_fade_to_black
   174C 33                 7195 	inc	sp
                           7196 ;..\/game.c:566: vbl_wait(2);
   174D 3E 02              7197 	ld	a, #0x02
   174F F5                 7198 	push	af
   1750 33                 7199 	inc	sp
   1751 CDr59r2A           7200 	call	_vbl_wait
   1754 33                 7201 	inc	sp
   1755 18 E7              7202 	jr	00116$
   1757                    7203 00118$:
                           7204 ;..\/game.c:570: move_bkg(0, 0);
   1757 AF                 7205 	xor	a, a
   1758 F5                 7206 	push	af
   1759 33                 7207 	inc	sp
   175A AF                 7208 	xor	a, a
   175B F5                 7209 	push	af
   175C 33                 7210 	inc	sp
   175D CDr00r00           7211 	call	_move_bkg
   1760 E8 02              7212 	add	sp, #2
                           7213 ;..\/game.c:571: for(int j = 0; j < level_height; j++)
   1762 AF                 7214 	xor	a, a
   1763 F8 04              7215 	ldhl	sp,	#4
   1765 22                 7216 	ld	(hl+), a
   1766 77                 7217 	ld	(hl), a
   1767                    7218 00131$:
   1767 21rF4r08           7219 	ld	hl, #_level_height
   176A 4E                 7220 	ld	c, (hl)
   176B 06 00              7221 	ld	b, #0x00
   176D F8 04              7222 	ldhl	sp,	#4
   176F 7E                 7223 	ld	a, (hl)
   1770 91                 7224 	sub	a, c
   1771 23                 7225 	inc	hl
   1772 7E                 7226 	ld	a, (hl)
   1773 98                 7227 	sbc	a, b
   1774 56                 7228 	ld	d, (hl)
   1775 78                 7229 	ld	a, b
   1776 5F                 7230 	ld	e, a
   1777 CB 7B              7231 	bit	7, e
   1779 28 07              7232 	jr	Z,00222$
   177B CB 7A              7233 	bit	7, d
   177D 20 08              7234 	jr	NZ,00223$
   177F BF                 7235 	cp	a, a
   1780 18 05              7236 	jr	00223$
   1782                    7237 00222$:
   1782 CB 7A              7238 	bit	7, d
   1784 28 01              7239 	jr	Z,00223$
   1786 37                 7240 	scf
   1787                    7241 00223$:
   1787 D2r1Cr18           7242 	jp	NC, 00120$
                           7243 ;..\/game.c:573: for(int i = 0; i < level_width; i++)
   178A AF                 7244 	xor	a, a
   178B F8 06              7245 	ldhl	sp,	#6
   178D 22                 7246 	ld	(hl+), a
   178E 77                 7247 	ld	(hl), a
   178F                    7248 00128$:
   178F 21rF3r08           7249 	ld	hl, #_level_width
   1792 7E                 7250 	ld	a, (hl)
   1793 F8 02              7251 	ldhl	sp,	#2
   1795 77                 7252 	ld	(hl), a
   1796 AF                 7253 	xor	a, a
   1797 23                 7254 	inc	hl
   1798 77                 7255 	ld	(hl), a
   1799 F8 06              7256 	ldhl	sp,	#6
   179B 5D                 7257 	ld	e, l
   179C 54                 7258 	ld	d, h
   179D F8 02              7259 	ldhl	sp,	#2
   179F 1A                 7260 	ld	a, (de)
   17A0 96                 7261 	sub	a, (hl)
   17A1 23                 7262 	inc	hl
   17A2 13                 7263 	inc	de
   17A3 1A                 7264 	ld	a, (de)
   17A4 9E                 7265 	sbc	a, (hl)
   17A5 1A                 7266 	ld	a, (de)
   17A6 57                 7267 	ld	d, a
   17A7 5E                 7268 	ld	e, (hl)
   17A8 CB 7B              7269 	bit	7, e
   17AA 28 07              7270 	jr	Z,00224$
   17AC CB 7A              7271 	bit	7, d
   17AE 20 08              7272 	jr	NZ,00225$
   17B0 BF                 7273 	cp	a, a
   17B1 18 05              7274 	jr	00225$
   17B3                    7275 00224$:
   17B3 CB 7A              7276 	bit	7, d
   17B5 28 01              7277 	jr	Z,00225$
   17B7 37                 7278 	scf
   17B8                    7279 00225$:
   17B8 D2r11r18           7280 	jp	NC, 00132$
                           7281 ;..\/game.c:575: level[level_width * j + i] = levels[selected-1][level_width * j + i];
   17BB F8 04              7282 	ldhl	sp,	#4
   17BD 2A                 7283 	ld	a, (hl+)
   17BE 66                 7284 	ld	h, (hl)
   17BF 6F                 7285 	ld	l, a
   17C0 E5                 7286 	push	hl
   17C1 F8 04              7287 	ldhl	sp,	#4
   17C3 2A                 7288 	ld	a, (hl+)
   17C4 66                 7289 	ld	h, (hl)
   17C5 6F                 7290 	ld	l, a
   17C6 E5                 7291 	push	hl
   17C7 CDr00r00           7292 	call	__mulint
   17CA E8 04              7293 	add	sp, #4
   17CC 4B                 7294 	ld	c, e
   17CD 42                 7295 	ld	b, d
   17CE F8 06              7296 	ldhl	sp,	#6
   17D0 2A                 7297 	ld	a, (hl+)
   17D1 66                 7298 	ld	h, (hl)
   17D2 6F                 7299 	ld	l, a
   17D3 09                 7300 	add	hl, bc
   17D4 33                 7301 	inc	sp
   17D5 33                 7302 	inc	sp
   17D6 E5                 7303 	push	hl
   17D7 D1                 7304 	pop	de
   17D8 D5                 7305 	push	de
   17D9 21rB3r02           7306 	ld	hl, #_level
   17DC 19                 7307 	add	hl, de
   17DD 7D                 7308 	ld	a, l
   17DE 54                 7309 	ld	d, h
   17DF F8 02              7310 	ldhl	sp,	#2
   17E1 22                 7311 	ld	(hl+), a
   17E2 72                 7312 	ld	(hl), d
   17E3 21r03r00           7313 	ld	hl, #_selected
   17E6 7E                 7314 	ld	a, (hl)
   17E7 3D                 7315 	dec	a
   17E8 4F                 7316 	ld	c, a
   17E9 17                 7317 	rla
   17EA 9F                 7318 	sbc	a, a
   17EB 47                 7319 	ld	b, a
   17EC CB 21              7320 	sla	c
   17EE CB 10              7321 	rl	b
   17F0 21rADr02           7322 	ld	hl, #_levels
   17F3 09                 7323 	add	hl, bc
   17F4 4D                 7324 	ld	c,l
   17F5 44                 7325 	ld	b,h
   17F6 4E                 7326 	ld	c, (hl)
   17F7 23                 7327 	inc	hl
   17F8 46                 7328 	ld	b, (hl)
   17F9 E1                 7329 	pop	hl
   17FA E5                 7330 	push	hl
   17FB 09                 7331 	add	hl, bc
   17FC 4D                 7332 	ld	c, l
   17FD 44                 7333 	ld	b, h
   17FE 0A                 7334 	ld	a, (bc)
   17FF 4F                 7335 	ld	c, a
   1800 F8 02              7336 	ldhl	sp,	#2
   1802 2A                 7337 	ld	a, (hl+)
   1803 66                 7338 	ld	h, (hl)
   1804 6F                 7339 	ld	l, a
   1805 71                 7340 	ld	(hl), c
                           7341 ;..\/game.c:573: for(int i = 0; i < level_width; i++)
   1806 F8 06              7342 	ldhl	sp,	#6
   1808 34                 7343 	inc	(hl)
   1809 C2r8Fr17           7344 	jp	NZ,00128$
   180C 23                 7345 	inc	hl
   180D 34                 7346 	inc	(hl)
   180E C3r8Fr17           7347 	jp	00128$
   1811                    7348 00132$:
                           7349 ;..\/game.c:571: for(int j = 0; j < level_height; j++)
   1811 F8 04              7350 	ldhl	sp,	#4
   1813 34                 7351 	inc	(hl)
   1814 C2r67r17           7352 	jp	NZ,00131$
   1817 23                 7353 	inc	hl
   1818 34                 7354 	inc	(hl)
   1819 C3r67r17           7355 	jp	00131$
   181C                    7356 00120$:
                           7357 ;..\/game.c:578: set_bkg_tiles(0, 0, level_width, level_height, level);
   181C 21rB3r02           7358 	ld	hl, #_level
   181F E5                 7359 	push	hl
   1820 21rF4r08           7360 	ld	hl, #_level_height
   1823 7E                 7361 	ld	a, (hl)
   1824 F5                 7362 	push	af
   1825 33                 7363 	inc	sp
   1826 21rF3r08           7364 	ld	hl, #_level_width
   1829 7E                 7365 	ld	a, (hl)
   182A F5                 7366 	push	af
   182B 33                 7367 	inc	sp
   182C AF                 7368 	xor	a, a
   182D F5                 7369 	push	af
   182E 33                 7370 	inc	sp
   182F AF                 7371 	xor	a, a
   1830 F5                 7372 	push	af
   1831 33                 7373 	inc	sp
   1832 CDr00r00           7374 	call	_set_bkg_tiles
   1835 E8 06              7375 	add	sp, #6
                           7376 ;..\/game.c:579: setup(spawns_x[selected-1], spawns_y[selected-1]);
   1837 21r03r00           7377 	ld	hl, #_selected
   183A 7E                 7378 	ld	a, (hl)
   183B 3D                 7379 	dec	a
   183C 4F                 7380 	ld	c, a
   183D 17                 7381 	rla
   183E 9F                 7382 	sbc	a, a
   183F 47                 7383 	ld	b, a
   1840 21r82r09           7384 	ld	hl, #_spawns_y
   1843 09                 7385 	add	hl, bc
   1844 7D                 7386 	ld	a, l
   1845 54                 7387 	ld	d, h
   1846 F8 06              7388 	ldhl	sp,	#6
   1848 22                 7389 	ld	(hl+), a
   1849 72                 7390 	ld	(hl), d
   184A 2B                 7391 	dec	hl
   184B 5E                 7392 	ld	e, (hl)
   184C 23                 7393 	inc	hl
   184D 56                 7394 	ld	d, (hl)
   184E 1A                 7395 	ld	a,(de)
   184F 77                 7396 	ld	(hl), a
   1850 21r7Fr09           7397 	ld	hl, #_spawns_x
   1853 09                 7398 	add	hl, bc
   1854 4D                 7399 	ld	c, l
   1855 44                 7400 	ld	b, h
   1856 0A                 7401 	ld	a, (bc)
   1857 47                 7402 	ld	b, a
   1858 F8 07              7403 	ldhl	sp,	#7
   185A 7E                 7404 	ld	a, (hl)
   185B F5                 7405 	push	af
   185C 33                 7406 	inc	sp
   185D C5                 7407 	push	bc
   185E 33                 7408 	inc	sp
   185F CDr49r0D           7409 	call	_setup
   1862 E8 02              7410 	add	sp, #2
                           7411 ;..\/game.c:581: while(faded_out)
   1864                    7412 00121$:
   1864 21r2Er09           7413 	ld	hl, #_faded_out
   1867 7E                 7414 	ld	a, (hl)
   1868 B7                 7415 	or	a, a
   1869 28 12              7416 	jr	Z,00133$
                           7417 ;..\/game.c:583: fade_from_black(4);
   186B 3E 04              7418 	ld	a, #0x04
   186D F5                 7419 	push	af
   186E 33                 7420 	inc	sp
   186F CDrE6r2A           7421 	call	_fade_from_black
   1872 33                 7422 	inc	sp
                           7423 ;..\/game.c:584: vbl_wait(2);
   1873 3E 02              7424 	ld	a, #0x02
   1875 F5                 7425 	push	af
   1876 33                 7426 	inc	sp
   1877 CDr59r2A           7427 	call	_vbl_wait
   187A 33                 7428 	inc	sp
   187B 18 E7              7429 	jr	00121$
   187D                    7430 00133$:
                           7431 ;..\/game.c:587: }
   187D E8 08              7432 	add	sp, #8
   187F C9                 7433 	ret
                           7434 ;..\/game.c:589: void check_collisions()
                           7435 ;	---------------------------------
                           7436 ; Function check_collisions
                           7437 ; ---------------------------------
   1880                    7438 _check_collisions::
   1880 E8 F8              7439 	add	sp, #-8
                           7440 ;..\/game.c:591: standing = 0;
   1882 21rFCr08           7441 	ld	hl, #_standing
   1885 36 00              7442 	ld	(hl), #0x00
                           7443 ;..\/game.c:592: blocked_left = 0;
   1887 21rFDr08           7444 	ld	hl, #_blocked_left
   188A 36 00              7445 	ld	(hl), #0x00
                           7446 ;..\/game.c:593: blocked_right = 0;
   188C 21rFEr08           7447 	ld	hl, #_blocked_right
   188F 36 00              7448 	ld	(hl), #0x00
                           7449 ;..\/game.c:596: if(get_tile_at((unsigned int) (hero.world_x + 2 - (movement & FACING_RIGHT)), (unsigned int) hero.world_y) > 46)
   1891 FAr15r09           7450 	ld	a, (#(_hero + 0x0011) + 0)
   1894 F8 04              7451 	ldhl	sp,	#4
   1896 77                 7452 	ld	(hl), a
   1897 AF                 7453 	xor	a, a
   1898 23                 7454 	inc	hl
   1899 77                 7455 	ld	(hl), a
   189A FAr14r09           7456 	ld	a, (#(_hero + 0x0010) + 0)
   189D 4F                 7457 	ld	c, a
   189E 06 00              7458 	ld	b, #0x00
   18A0 03                 7459 	inc	bc
   18A1 03                 7460 	inc	bc
   18A2 21rF6r08           7461 	ld	hl, #_movement
   18A5 5E                 7462 	ld	e, (hl)
   18A6 16 00              7463 	ld	d, #0x00
   18A8 7B                 7464 	ld	a, e
   18A9 E6 01              7465 	and	a, #0x01
   18AB F8 06              7466 	ldhl	sp,	#6
   18AD 22                 7467 	ld	(hl+), a
   18AE 36 00              7468 	ld	(hl), #0x00
   18B0 2B                 7469 	dec	hl
   18B1 5E                 7470 	ld	e, (hl)
   18B2 23                 7471 	inc	hl
   18B3 56                 7472 	ld	d, (hl)
   18B4 79                 7473 	ld	a, c
   18B5 93                 7474 	sub	a, e
   18B6 5F                 7475 	ld	e, a
   18B7 78                 7476 	ld	a, b
   18B8 9A                 7477 	sbc	a, d
   18B9 4B                 7478 	ld	c, e
   18BA 47                 7479 	ld	b, a
   18BB F8 04              7480 	ldhl	sp,	#4
   18BD 2A                 7481 	ld	a, (hl+)
   18BE 66                 7482 	ld	h, (hl)
   18BF 6F                 7483 	ld	l, a
   18C0 E5                 7484 	push	hl
   18C1 C5                 7485 	push	bc
   18C2 CDr3Ar0B           7486 	call	_get_tile_at
   18C5 E8 04              7487 	add	sp, #4
   18C7 F8 03              7488 	ldhl	sp,	#3
   18C9 73                 7489 	ld	(hl), e
   18CA 21r15r09           7490 	ld	hl, #(_hero + 0x0011) + 0
   18CD 46                 7491 	ld	b, (hl)
   18CE 21r14r09           7492 	ld	hl, #(_hero + 0x0010) + 0
   18D1 4E                 7493 	ld	c, (hl)
   18D2 21rF6r08           7494 	ld	hl, #_movement
   18D5 5E                 7495 	ld	e, (hl)
   18D6 16 00              7496 	ld	d, #0x00
                           7497 ;..\/game.c:598: if(get_tile_at((unsigned int) (hero.world_x + 2 - (movement & FACING_RIGHT)), (unsigned int) hero.world_y) < 64)
   18D8 F8 04              7498 	ldhl	sp,	#4
   18DA 70                 7499 	ld	(hl), b
   18DB AF                 7500 	xor	a, a
   18DC 23                 7501 	inc	hl
   18DD 77                 7502 	ld	(hl), a
   18DE 06 00              7503 	ld	b, #0x00
   18E0 7B                 7504 	ld	a, e
   18E1 E6 01              7505 	and	a, #0x01
   18E3 23                 7506 	inc	hl
   18E4 22                 7507 	ld	(hl+), a
   18E5 36 00              7508 	ld	(hl), #0x00
                           7509 ;..\/game.c:596: if(get_tile_at((unsigned int) (hero.world_x + 2 - (movement & FACING_RIGHT)), (unsigned int) hero.world_y) > 46)
   18E7 F8 03              7510 	ldhl	sp,	#3
   18E9 7E                 7511 	ld	a, (hl)
   18EA 5F                 7512 	ld	e, a
   18EB 3E 2E              7513 	ld	a, #0x2e
   18ED 57                 7514 	ld	d, a
   18EE 3E 2E              7515 	ld	a, #0x2e
   18F0 96                 7516 	sub	a, (hl)
   18F1 CB 7B              7517 	bit	7, e
   18F3 28 07              7518 	jr	Z,00449$
   18F5 CB 7A              7519 	bit	7, d
   18F7 20 08              7520 	jr	NZ,00450$
   18F9 BF                 7521 	cp	a, a
   18FA 18 05              7522 	jr	00450$
   18FC                    7523 00449$:
   18FC CB 7A              7524 	bit	7, d
   18FE 28 01              7525 	jr	Z,00450$
   1900 37                 7526 	scf
   1901                    7527 00450$:
   1901 D2r3Br19           7528 	jp	NC, 00108$
                           7529 ;..\/game.c:598: if(get_tile_at((unsigned int) (hero.world_x + 2 - (movement & FACING_RIGHT)), (unsigned int) hero.world_y) < 64)
   1904 03                 7530 	inc	bc
   1905 03                 7531 	inc	bc
   1906 F8 06              7532 	ldhl	sp,#(7 - 1)
   1908 5E                 7533 	ld	e, (hl)
   1909 23                 7534 	inc	hl
   190A 56                 7535 	ld	d, (hl)
   190B 79                 7536 	ld	a, c
   190C 93                 7537 	sub	a, e
   190D 5F                 7538 	ld	e, a
   190E 78                 7539 	ld	a, b
   190F 9A                 7540 	sbc	a, d
   1910 4B                 7541 	ld	c, e
   1911 47                 7542 	ld	b, a
   1912 F8 04              7543 	ldhl	sp,	#4
   1914 2A                 7544 	ld	a, (hl+)
   1915 66                 7545 	ld	h, (hl)
   1916 6F                 7546 	ld	l, a
   1917 E5                 7547 	push	hl
   1918 C5                 7548 	push	bc
   1919 CDr3Ar0B           7549 	call	_get_tile_at
   191C E8 04              7550 	add	sp, #4
   191E 4B                 7551 	ld	c, e
   191F 79                 7552 	ld	a, c
   1920 EE 80              7553 	xor	a, #0x80
   1922 D6 C0              7554 	sub	a, #0xc0
   1924 D2rC8r19           7555 	jp	NC, 00109$
                           7556 ;..\/game.c:600: standing = 1;
   1927 21rFCr08           7557 	ld	hl, #_standing
   192A 36 01              7558 	ld	(hl), #0x01
                           7559 ;..\/game.c:601: gravity = 4;
   192C 21rF5r08           7560 	ld	hl, #_gravity
   192F 36 04              7561 	ld	(hl), #0x04
                           7562 ;..\/game.c:602: movement = movement & ~MOVING_VERTICALLY;
   1931 21rF6r08           7563 	ld	hl, #_movement
   1934 7E                 7564 	ld	a, (hl)
   1935 E6 F7              7565 	and	a, #0xf7
   1937 77                 7566 	ld	(hl), a
   1938 C3rC8r19           7567 	jp	00109$
   193B                    7568 00108$:
                           7569 ;..\/game.c:606: else if(get_tile_at((unsigned int) (hero.world_x + 10 - (movement & FACING_RIGHT)), (unsigned int) hero.world_y) > 46)
   193B 21 0A 00           7570 	ld	hl, #0x000a
   193E 09                 7571 	add	hl, bc
   193F 4D                 7572 	ld	c, l
   1940 44                 7573 	ld	b, h
   1941 F8 06              7574 	ldhl	sp,#(7 - 1)
   1943 5E                 7575 	ld	e, (hl)
   1944 23                 7576 	inc	hl
   1945 56                 7577 	ld	d, (hl)
   1946 79                 7578 	ld	a, c
   1947 93                 7579 	sub	a, e
   1948 5F                 7580 	ld	e, a
   1949 78                 7581 	ld	a, b
   194A 9A                 7582 	sbc	a, d
   194B 4B                 7583 	ld	c, e
   194C 47                 7584 	ld	b, a
   194D F8 04              7585 	ldhl	sp,	#4
   194F 2A                 7586 	ld	a, (hl+)
   1950 66                 7587 	ld	h, (hl)
   1951 6F                 7588 	ld	l, a
   1952 E5                 7589 	push	hl
   1953 C5                 7590 	push	bc
   1954 CDr3Ar0B           7591 	call	_get_tile_at
   1957 E8 04              7592 	add	sp, #4
   1959 4B                 7593 	ld	c, e
   195A 79                 7594 	ld	a, c
   195B 5F                 7595 	ld	e, a
   195C 3E 2E              7596 	ld	a, #0x2e
   195E 57                 7597 	ld	d, a
   195F 3E 2E              7598 	ld	a, #0x2e
   1961 91                 7599 	sub	a, c
   1962 CB 7B              7600 	bit	7, e
   1964 28 07              7601 	jr	Z,00451$
   1966 CB 7A              7602 	bit	7, d
   1968 20 08              7603 	jr	NZ,00452$
   196A BF                 7604 	cp	a, a
   196B 18 05              7605 	jr	00452$
   196D                    7606 00451$:
   196D CB 7A              7607 	bit	7, d
   196F 28 01              7608 	jr	Z,00452$
   1971 37                 7609 	scf
   1972                    7610 00452$:
   1972 D2rC8r19           7611 	jp	NC, 00109$
                           7612 ;..\/game.c:608: if(get_tile_at((unsigned int) (hero.world_x + 10 - (movement & FACING_RIGHT)), (unsigned int) hero.world_y) < 64)
   1975 FAr15r09           7613 	ld	a, (#(_hero + 0x0011) + 0)
   1978 F8 04              7614 	ldhl	sp,	#4
   197A 77                 7615 	ld	(hl), a
   197B AF                 7616 	xor	a, a
   197C 23                 7617 	inc	hl
   197D 77                 7618 	ld	(hl), a
   197E FAr14r09           7619 	ld	a, (#(_hero + 0x0010) + 0)
   1981 4F                 7620 	ld	c, a
   1982 06 00              7621 	ld	b, #0x00
   1984 21 0A 00           7622 	ld	hl, #0x000a
   1987 09                 7623 	add	hl, bc
   1988 4D                 7624 	ld	c, l
   1989 44                 7625 	ld	b, h
   198A 21rF6r08           7626 	ld	hl, #_movement
   198D 5E                 7627 	ld	e, (hl)
   198E 16 00              7628 	ld	d, #0x00
   1990 7B                 7629 	ld	a, e
   1991 E6 01              7630 	and	a, #0x01
   1993 F8 06              7631 	ldhl	sp,	#6
   1995 22                 7632 	ld	(hl+), a
   1996 36 00              7633 	ld	(hl), #0x00
   1998 2B                 7634 	dec	hl
   1999 5E                 7635 	ld	e, (hl)
   199A 23                 7636 	inc	hl
   199B 56                 7637 	ld	d, (hl)
   199C 79                 7638 	ld	a, c
   199D 93                 7639 	sub	a, e
   199E 5F                 7640 	ld	e, a
   199F 78                 7641 	ld	a, b
   19A0 9A                 7642 	sbc	a, d
   19A1 4B                 7643 	ld	c, e
   19A2 47                 7644 	ld	b, a
   19A3 F8 04              7645 	ldhl	sp,	#4
   19A5 2A                 7646 	ld	a, (hl+)
   19A6 66                 7647 	ld	h, (hl)
   19A7 6F                 7648 	ld	l, a
   19A8 E5                 7649 	push	hl
   19A9 C5                 7650 	push	bc
   19AA CDr3Ar0B           7651 	call	_get_tile_at
   19AD E8 04              7652 	add	sp, #4
   19AF 4B                 7653 	ld	c, e
   19B0 79                 7654 	ld	a, c
   19B1 EE 80              7655 	xor	a, #0x80
   19B3 D6 C0              7656 	sub	a, #0xc0
   19B5 30 11              7657 	jr	NC,00109$
                           7658 ;..\/game.c:610: standing = 1;
   19B7 21rFCr08           7659 	ld	hl, #_standing
   19BA 36 01              7660 	ld	(hl), #0x01
                           7661 ;..\/game.c:611: gravity = 4;
   19BC 21rF5r08           7662 	ld	hl, #_gravity
   19BF 36 04              7663 	ld	(hl), #0x04
                           7664 ;..\/game.c:612: movement = movement & ~MOVING_VERTICALLY;
   19C1 21rF6r08           7665 	ld	hl, #_movement
   19C4 7E                 7666 	ld	a, (hl)
   19C5 E6 F7              7667 	and	a, #0xf7
   19C7 77                 7668 	ld	(hl), a
   19C8                    7669 00109$:
                           7670 ;..\/game.c:617: if(get_tile_at((unsigned int) (hero.world_x + 2 - (movement & FACING_RIGHT)), (unsigned int) hero.world_y - 6) > 63
   19C8 FAr15r09           7671 	ld	a, (#(_hero + 0x0011) + 0)
   19CB 4F                 7672 	ld	c, a
   19CC 06 00              7673 	ld	b, #0x00
   19CE 11 06 00           7674 	ld	de, #0x0006
   19D1 79                 7675 	ld	a, c
   19D2 93                 7676 	sub	a, e
   19D3 5F                 7677 	ld	e, a
   19D4 78                 7678 	ld	a, b
   19D5 9A                 7679 	sbc	a, d
   19D6 F8 05              7680 	ldhl	sp,	#5
   19D8 32                 7681 	ld	(hl-), a
   19D9 73                 7682 	ld	(hl), e
   19DA FAr14r09           7683 	ld	a, (#(_hero + 0x0010) + 0)
   19DD 4F                 7684 	ld	c, a
   19DE 06 00              7685 	ld	b, #0x00
   19E0 03                 7686 	inc	bc
   19E1 03                 7687 	inc	bc
   19E2 21rF6r08           7688 	ld	hl, #_movement
   19E5 5E                 7689 	ld	e, (hl)
   19E6 16 00              7690 	ld	d, #0x00
   19E8 7B                 7691 	ld	a, e
   19E9 E6 01              7692 	and	a, #0x01
   19EB F8 06              7693 	ldhl	sp,	#6
   19ED 22                 7694 	ld	(hl+), a
   19EE 36 00              7695 	ld	(hl), #0x00
   19F0 2B                 7696 	dec	hl
   19F1 5E                 7697 	ld	e, (hl)
   19F2 23                 7698 	inc	hl
   19F3 56                 7699 	ld	d, (hl)
   19F4 79                 7700 	ld	a, c
   19F5 93                 7701 	sub	a, e
   19F6 5F                 7702 	ld	e, a
   19F7 78                 7703 	ld	a, b
   19F8 9A                 7704 	sbc	a, d
   19F9 4B                 7705 	ld	c, e
   19FA 47                 7706 	ld	b, a
   19FB F8 04              7707 	ldhl	sp,	#4
   19FD 2A                 7708 	ld	a, (hl+)
   19FE 66                 7709 	ld	h, (hl)
   19FF 6F                 7710 	ld	l, a
   1A00 E5                 7711 	push	hl
   1A01 C5                 7712 	push	bc
   1A02 CDr3Ar0B           7713 	call	_get_tile_at
   1A05 E8 04              7714 	add	sp, #4
   1A07 4B                 7715 	ld	c, e
   1A08 79                 7716 	ld	a, c
   1A09 5F                 7717 	ld	e, a
   1A0A 3E 3F              7718 	ld	a, #0x3f
   1A0C 57                 7719 	ld	d, a
   1A0D 3E 3F              7720 	ld	a, #0x3f
   1A0F 91                 7721 	sub	a, c
   1A10 CB 7B              7722 	bit	7, e
   1A12 28 07              7723 	jr	Z,00453$
   1A14 CB 7A              7724 	bit	7, d
   1A16 20 08              7725 	jr	NZ,00454$
   1A18 BF                 7726 	cp	a, a
   1A19 18 05              7727 	jr	00454$
   1A1B                    7728 00453$:
   1A1B CB 7A              7729 	bit	7, d
   1A1D 28 01              7730 	jr	Z,00454$
   1A1F 37                 7731 	scf
   1A20                    7732 00454$:
   1A20 D2r70r1A           7733 	jp	NC, 00114$
                           7734 ;..\/game.c:618: && get_tile_at((unsigned int) (hero.world_x + 2 - (movement & FACING_RIGHT)), (unsigned int) hero.world_y - 6) < 69)
   1A23 FAr15r09           7735 	ld	a, (#(_hero + 0x0011) + 0)
   1A26 4F                 7736 	ld	c, a
   1A27 06 00              7737 	ld	b, #0x00
   1A29 11 06 00           7738 	ld	de, #0x0006
   1A2C 79                 7739 	ld	a, c
   1A2D 93                 7740 	sub	a, e
   1A2E 5F                 7741 	ld	e, a
   1A2F 78                 7742 	ld	a, b
   1A30 9A                 7743 	sbc	a, d
   1A31 F8 05              7744 	ldhl	sp,	#5
   1A33 32                 7745 	ld	(hl-), a
   1A34 73                 7746 	ld	(hl), e
   1A35 FAr14r09           7747 	ld	a, (#(_hero + 0x0010) + 0)
   1A38 4F                 7748 	ld	c, a
   1A39 06 00              7749 	ld	b, #0x00
   1A3B 03                 7750 	inc	bc
   1A3C 03                 7751 	inc	bc
   1A3D 21rF6r08           7752 	ld	hl, #_movement
   1A40 5E                 7753 	ld	e, (hl)
   1A41 16 00              7754 	ld	d, #0x00
   1A43 7B                 7755 	ld	a, e
   1A44 E6 01              7756 	and	a, #0x01
   1A46 F8 06              7757 	ldhl	sp,	#6
   1A48 22                 7758 	ld	(hl+), a
   1A49 36 00              7759 	ld	(hl), #0x00
   1A4B 2B                 7760 	dec	hl
   1A4C 5E                 7761 	ld	e, (hl)
   1A4D 23                 7762 	inc	hl
   1A4E 56                 7763 	ld	d, (hl)
   1A4F 79                 7764 	ld	a, c
   1A50 93                 7765 	sub	a, e
   1A51 5F                 7766 	ld	e, a
   1A52 78                 7767 	ld	a, b
   1A53 9A                 7768 	sbc	a, d
   1A54 4B                 7769 	ld	c, e
   1A55 47                 7770 	ld	b, a
   1A56 F8 04              7771 	ldhl	sp,	#4
   1A58 2A                 7772 	ld	a, (hl+)
   1A59 66                 7773 	ld	h, (hl)
   1A5A 6F                 7774 	ld	l, a
   1A5B E5                 7775 	push	hl
   1A5C C5                 7776 	push	bc
   1A5D CDr3Ar0B           7777 	call	_get_tile_at
   1A60 E8 04              7778 	add	sp, #4
   1A62 4B                 7779 	ld	c, e
   1A63 79                 7780 	ld	a, c
   1A64 EE 80              7781 	xor	a, #0x80
   1A66 D6 C5              7782 	sub	a, #0xc5
   1A68 30 06              7783 	jr	NC,00114$
                           7784 ;..\/game.c:620: die();
   1A6A CDr34r16           7785 	call	_die
   1A6D C3r1Dr1B           7786 	jp	00115$
   1A70                    7787 00114$:
                           7788 ;..\/game.c:623: else if(get_tile_at((unsigned int) (hero.world_x + 10 - (movement & FACING_RIGHT)), (unsigned int) hero.world_y - 6) > 63
   1A70 FAr15r09           7789 	ld	a, (#(_hero + 0x0011) + 0)
   1A73 4F                 7790 	ld	c, a
   1A74 06 00              7791 	ld	b, #0x00
   1A76 11 06 00           7792 	ld	de, #0x0006
   1A79 79                 7793 	ld	a, c
   1A7A 93                 7794 	sub	a, e
   1A7B 5F                 7795 	ld	e, a
   1A7C 78                 7796 	ld	a, b
   1A7D 9A                 7797 	sbc	a, d
   1A7E F8 05              7798 	ldhl	sp,	#5
   1A80 32                 7799 	ld	(hl-), a
   1A81 73                 7800 	ld	(hl), e
   1A82 FAr14r09           7801 	ld	a, (#(_hero + 0x0010) + 0)
   1A85 4F                 7802 	ld	c, a
   1A86 06 00              7803 	ld	b, #0x00
   1A88 21 0A 00           7804 	ld	hl, #0x000a
   1A8B 09                 7805 	add	hl, bc
   1A8C 4D                 7806 	ld	c, l
   1A8D 44                 7807 	ld	b, h
   1A8E 21rF6r08           7808 	ld	hl, #_movement
   1A91 5E                 7809 	ld	e, (hl)
   1A92 16 00              7810 	ld	d, #0x00
   1A94 7B                 7811 	ld	a, e
   1A95 E6 01              7812 	and	a, #0x01
   1A97 F8 06              7813 	ldhl	sp,	#6
   1A99 22                 7814 	ld	(hl+), a
   1A9A 36 00              7815 	ld	(hl), #0x00
   1A9C 2B                 7816 	dec	hl
   1A9D 5E                 7817 	ld	e, (hl)
   1A9E 23                 7818 	inc	hl
   1A9F 56                 7819 	ld	d, (hl)
   1AA0 79                 7820 	ld	a, c
   1AA1 93                 7821 	sub	a, e
   1AA2 5F                 7822 	ld	e, a
   1AA3 78                 7823 	ld	a, b
   1AA4 9A                 7824 	sbc	a, d
   1AA5 4B                 7825 	ld	c, e
   1AA6 47                 7826 	ld	b, a
   1AA7 F8 04              7827 	ldhl	sp,	#4
   1AA9 2A                 7828 	ld	a, (hl+)
   1AAA 66                 7829 	ld	h, (hl)
   1AAB 6F                 7830 	ld	l, a
   1AAC E5                 7831 	push	hl
   1AAD C5                 7832 	push	bc
   1AAE CDr3Ar0B           7833 	call	_get_tile_at
   1AB1 E8 04              7834 	add	sp, #4
   1AB3 4B                 7835 	ld	c, e
   1AB4 79                 7836 	ld	a, c
   1AB5 5F                 7837 	ld	e, a
   1AB6 3E 3F              7838 	ld	a, #0x3f
   1AB8 57                 7839 	ld	d, a
   1AB9 3E 3F              7840 	ld	a, #0x3f
   1ABB 91                 7841 	sub	a, c
   1ABC CB 7B              7842 	bit	7, e
   1ABE 28 07              7843 	jr	Z,00455$
   1AC0 CB 7A              7844 	bit	7, d
   1AC2 20 08              7845 	jr	NZ,00456$
   1AC4 BF                 7846 	cp	a, a
   1AC5 18 05              7847 	jr	00456$
   1AC7                    7848 00455$:
   1AC7 CB 7A              7849 	bit	7, d
   1AC9 28 01              7850 	jr	Z,00456$
   1ACB 37                 7851 	scf
   1ACC                    7852 00456$:
   1ACC D2r1Dr1B           7853 	jp	NC, 00115$
                           7854 ;..\/game.c:624: && get_tile_at((unsigned int) (hero.world_x + 10 - (movement & FACING_RIGHT)), (unsigned int) hero.world_y - 6) < 69)
   1ACF FAr15r09           7855 	ld	a, (#(_hero + 0x0011) + 0)
   1AD2 4F                 7856 	ld	c, a
   1AD3 06 00              7857 	ld	b, #0x00
   1AD5 11 06 00           7858 	ld	de, #0x0006
   1AD8 79                 7859 	ld	a, c
   1AD9 93                 7860 	sub	a, e
   1ADA 5F                 7861 	ld	e, a
   1ADB 78                 7862 	ld	a, b
   1ADC 9A                 7863 	sbc	a, d
   1ADD F8 05              7864 	ldhl	sp,	#5
   1ADF 32                 7865 	ld	(hl-), a
   1AE0 73                 7866 	ld	(hl), e
   1AE1 FAr14r09           7867 	ld	a, (#(_hero + 0x0010) + 0)
   1AE4 4F                 7868 	ld	c, a
   1AE5 06 00              7869 	ld	b, #0x00
   1AE7 21 0A 00           7870 	ld	hl, #0x000a
   1AEA 09                 7871 	add	hl, bc
   1AEB 4D                 7872 	ld	c, l
   1AEC 44                 7873 	ld	b, h
   1AED 21rF6r08           7874 	ld	hl, #_movement
   1AF0 5E                 7875 	ld	e, (hl)
   1AF1 16 00              7876 	ld	d, #0x00
   1AF3 7B                 7877 	ld	a, e
   1AF4 E6 01              7878 	and	a, #0x01
   1AF6 F8 06              7879 	ldhl	sp,	#6
   1AF8 22                 7880 	ld	(hl+), a
   1AF9 36 00              7881 	ld	(hl), #0x00
   1AFB 2B                 7882 	dec	hl
   1AFC 5E                 7883 	ld	e, (hl)
   1AFD 23                 7884 	inc	hl
   1AFE 56                 7885 	ld	d, (hl)
   1AFF 79                 7886 	ld	a, c
   1B00 93                 7887 	sub	a, e
   1B01 5F                 7888 	ld	e, a
   1B02 78                 7889 	ld	a, b
   1B03 9A                 7890 	sbc	a, d
   1B04 4B                 7891 	ld	c, e
   1B05 47                 7892 	ld	b, a
   1B06 F8 04              7893 	ldhl	sp,	#4
   1B08 2A                 7894 	ld	a, (hl+)
   1B09 66                 7895 	ld	h, (hl)
   1B0A 6F                 7896 	ld	l, a
   1B0B E5                 7897 	push	hl
   1B0C C5                 7898 	push	bc
   1B0D CDr3Ar0B           7899 	call	_get_tile_at
   1B10 E8 04              7900 	add	sp, #4
   1B12 4B                 7901 	ld	c, e
   1B13 79                 7902 	ld	a, c
   1B14 EE 80              7903 	xor	a, #0x80
   1B16 D6 C5              7904 	sub	a, #0xc5
   1B18 30 03              7905 	jr	NC,00115$
                           7906 ;..\/game.c:626: die();
   1B1A CDr34r16           7907 	call	_die
   1B1D                    7908 00115$:
                           7909 ;..\/game.c:630: if(get_tile_at((unsigned int) (hero.world_x - (movement & FACING_RIGHT)), (unsigned int) hero.world_y - 1) > 46)
   1B1D FAr15r09           7910 	ld	a, (#(_hero + 0x0011) + 0)
   1B20 4F                 7911 	ld	c, a
   1B21 06 00              7912 	ld	b, #0x00
   1B23 11 01 00           7913 	ld	de, #0x0001
   1B26 79                 7914 	ld	a, c
   1B27 93                 7915 	sub	a, e
   1B28 5F                 7916 	ld	e, a
   1B29 78                 7917 	ld	a, b
   1B2A 9A                 7918 	sbc	a, d
   1B2B F8 05              7919 	ldhl	sp,	#5
   1B2D 32                 7920 	ld	(hl-), a
   1B2E 73                 7921 	ld	(hl), e
   1B2F FAr14r09           7922 	ld	a, (#(_hero + 0x0010) + 0)
   1B32 4F                 7923 	ld	c, a
   1B33 06 00              7924 	ld	b, #0x00
   1B35 21rF6r08           7925 	ld	hl, #_movement
   1B38 5E                 7926 	ld	e, (hl)
   1B39 16 00              7927 	ld	d, #0x00
   1B3B 7B                 7928 	ld	a, e
   1B3C E6 01              7929 	and	a, #0x01
   1B3E F8 06              7930 	ldhl	sp,	#6
   1B40 22                 7931 	ld	(hl+), a
   1B41 36 00              7932 	ld	(hl), #0x00
   1B43 2B                 7933 	dec	hl
   1B44 5E                 7934 	ld	e, (hl)
   1B45 23                 7935 	inc	hl
   1B46 56                 7936 	ld	d, (hl)
   1B47 79                 7937 	ld	a, c
   1B48 93                 7938 	sub	a, e
   1B49 5F                 7939 	ld	e, a
   1B4A 78                 7940 	ld	a, b
   1B4B 9A                 7941 	sbc	a, d
   1B4C 4B                 7942 	ld	c, e
   1B4D 47                 7943 	ld	b, a
   1B4E F8 04              7944 	ldhl	sp,	#4
   1B50 2A                 7945 	ld	a, (hl+)
   1B51 66                 7946 	ld	h, (hl)
   1B52 6F                 7947 	ld	l, a
   1B53 E5                 7948 	push	hl
   1B54 C5                 7949 	push	bc
   1B55 CDr3Ar0B           7950 	call	_get_tile_at
   1B58 E8 04              7951 	add	sp, #4
   1B5A 4B                 7952 	ld	c, e
   1B5B 79                 7953 	ld	a, c
   1B5C 5F                 7954 	ld	e, a
   1B5D 3E 2E              7955 	ld	a, #0x2e
   1B5F 57                 7956 	ld	d, a
   1B60 3E 2E              7957 	ld	a, #0x2e
   1B62 91                 7958 	sub	a, c
   1B63 CB 7B              7959 	bit	7, e
   1B65 28 07              7960 	jr	Z,00457$
   1B67 CB 7A              7961 	bit	7, d
   1B69 20 08              7962 	jr	NZ,00458$
   1B6B BF                 7963 	cp	a, a
   1B6C 18 05              7964 	jr	00458$
   1B6E                    7965 00457$:
   1B6E CB 7A              7966 	bit	7, d
   1B70 28 01              7967 	jr	Z,00458$
   1B72 37                 7968 	scf
   1B73                    7969 00458$:
   1B73 D2r08r1C           7970 	jp	NC, 00124$
                           7971 ;..\/game.c:632: if(get_tile_at((unsigned int) (hero.world_x - (movement & FACING_RIGHT)), (unsigned int) hero.world_y - 1) < 64)
   1B76 FAr15r09           7972 	ld	a, (#(_hero + 0x0011) + 0)
   1B79 4F                 7973 	ld	c, a
   1B7A 06 00              7974 	ld	b, #0x00
   1B7C 11 01 00           7975 	ld	de, #0x0001
   1B7F 79                 7976 	ld	a, c
   1B80 93                 7977 	sub	a, e
   1B81 5F                 7978 	ld	e, a
   1B82 78                 7979 	ld	a, b
   1B83 9A                 7980 	sbc	a, d
   1B84 F8 05              7981 	ldhl	sp,	#5
   1B86 32                 7982 	ld	(hl-), a
   1B87 73                 7983 	ld	(hl), e
   1B88 FAr14r09           7984 	ld	a, (#(_hero + 0x0010) + 0)
   1B8B 4F                 7985 	ld	c, a
   1B8C 06 00              7986 	ld	b, #0x00
   1B8E 21rF6r08           7987 	ld	hl, #_movement
   1B91 5E                 7988 	ld	e, (hl)
   1B92 16 00              7989 	ld	d, #0x00
   1B94 7B                 7990 	ld	a, e
   1B95 E6 01              7991 	and	a, #0x01
   1B97 F8 06              7992 	ldhl	sp,	#6
   1B99 22                 7993 	ld	(hl+), a
   1B9A 36 00              7994 	ld	(hl), #0x00
   1B9C 2B                 7995 	dec	hl
   1B9D 5E                 7996 	ld	e, (hl)
   1B9E 23                 7997 	inc	hl
   1B9F 56                 7998 	ld	d, (hl)
   1BA0 79                 7999 	ld	a, c
   1BA1 93                 8000 	sub	a, e
   1BA2 5F                 8001 	ld	e, a
   1BA3 78                 8002 	ld	a, b
   1BA4 9A                 8003 	sbc	a, d
   1BA5 4B                 8004 	ld	c, e
   1BA6 47                 8005 	ld	b, a
   1BA7 F8 04              8006 	ldhl	sp,	#4
   1BA9 2A                 8007 	ld	a, (hl+)
   1BAA 66                 8008 	ld	h, (hl)
   1BAB 6F                 8009 	ld	l, a
   1BAC E5                 8010 	push	hl
   1BAD C5                 8011 	push	bc
   1BAE CDr3Ar0B           8012 	call	_get_tile_at
   1BB1 E8 04              8013 	add	sp, #4
   1BB3 4B                 8014 	ld	c, e
   1BB4 79                 8015 	ld	a, c
   1BB5 EE 80              8016 	xor	a, #0x80
   1BB7 D6 C0              8017 	sub	a, #0xc0
   1BB9 30 08              8018 	jr	NC,00121$
                           8019 ;..\/game.c:634: blocked_left = 1;
   1BBB 21rFDr08           8020 	ld	hl, #_blocked_left
   1BBE 36 01              8021 	ld	(hl), #0x01
   1BC0 C3r08r1C           8022 	jp	00124$
   1BC3                    8023 00121$:
                           8024 ;..\/game.c:636: else if(requirement_met && get_tile_at((unsigned int) (hero.world_x - (movement & FACING_RIGHT)), (unsigned int) hero.world_y - 1) == 71)  //complete level
   1BC3 21rFFr08           8025 	ld	hl, #_requirement_met
   1BC6 7E                 8026 	ld	a, (hl)
   1BC7 B7                 8027 	or	a, a
   1BC8 CAr08r1C           8028 	jp	Z, 00124$
   1BCB FAr15r09           8029 	ld	a, (#(_hero + 0x0011) + 0)
   1BCE 4F                 8030 	ld	c, a
   1BCF 06 00              8031 	ld	b, #0x00
   1BD1 11 01 00           8032 	ld	de, #0x0001
   1BD4 79                 8033 	ld	a, c
   1BD5 93                 8034 	sub	a, e
   1BD6 5F                 8035 	ld	e, a
   1BD7 78                 8036 	ld	a, b
   1BD8 9A                 8037 	sbc	a, d
   1BD9 F8 05              8038 	ldhl	sp,	#5
   1BDB 32                 8039 	ld	(hl-), a
   1BDC 73                 8040 	ld	(hl), e
   1BDD FAr14r09           8041 	ld	a, (#(_hero + 0x0010) + 0)
   1BE0 4F                 8042 	ld	c, a
   1BE1 06 00              8043 	ld	b, #0x00
   1BE3 21rF6r08           8044 	ld	hl, #_movement
   1BE6 5E                 8045 	ld	e, (hl)
   1BE7 16 00              8046 	ld	d, #0x00
   1BE9 7B                 8047 	ld	a, e
   1BEA E6 01              8048 	and	a, #0x01
   1BEC F8 06              8049 	ldhl	sp,	#6
   1BEE 22                 8050 	ld	(hl+), a
   1BEF 36 00              8051 	ld	(hl), #0x00
   1BF1 2B                 8052 	dec	hl
   1BF2 5E                 8053 	ld	e, (hl)
   1BF3 23                 8054 	inc	hl
   1BF4 56                 8055 	ld	d, (hl)
   1BF5 79                 8056 	ld	a, c
   1BF6 93                 8057 	sub	a, e
   1BF7 5F                 8058 	ld	e, a
   1BF8 78                 8059 	ld	a, b
   1BF9 9A                 8060 	sbc	a, d
   1BFA 4B                 8061 	ld	c, e
   1BFB 47                 8062 	ld	b, a
   1BFC F8 04              8063 	ldhl	sp,	#4
   1BFE 2A                 8064 	ld	a, (hl+)
   1BFF 66                 8065 	ld	h, (hl)
   1C00 6F                 8066 	ld	l, a
   1C01 E5                 8067 	push	hl
   1C02 C5                 8068 	push	bc
   1C03 CDr3Ar0B           8069 	call	_get_tile_at
   1C06 E8 04              8070 	add	sp, #4
   1C08                    8071 00124$:
                           8072 ;..\/game.c:642: if(get_tile_at((unsigned int) (hero.world_x + 1 - (movement & FACING_RIGHT)), (unsigned int) hero.world_y - 9) > 46)
   1C08 FAr15r09           8073 	ld	a, (#(_hero + 0x0011) + 0)
   1C0B 4F                 8074 	ld	c, a
   1C0C 06 00              8075 	ld	b, #0x00
   1C0E 11 09 00           8076 	ld	de, #0x0009
   1C11 79                 8077 	ld	a, c
   1C12 93                 8078 	sub	a, e
   1C13 5F                 8079 	ld	e, a
   1C14 78                 8080 	ld	a, b
   1C15 9A                 8081 	sbc	a, d
   1C16 F8 05              8082 	ldhl	sp,	#5
   1C18 32                 8083 	ld	(hl-), a
   1C19 73                 8084 	ld	(hl), e
   1C1A FAr14r09           8085 	ld	a, (#(_hero + 0x0010) + 0)
   1C1D 4F                 8086 	ld	c, a
   1C1E 06 00              8087 	ld	b, #0x00
   1C20 03                 8088 	inc	bc
   1C21 21rF6r08           8089 	ld	hl, #_movement
   1C24 5E                 8090 	ld	e, (hl)
   1C25 16 00              8091 	ld	d, #0x00
   1C27 7B                 8092 	ld	a, e
   1C28 E6 01              8093 	and	a, #0x01
   1C2A F8 06              8094 	ldhl	sp,	#6
   1C2C 22                 8095 	ld	(hl+), a
   1C2D 36 00              8096 	ld	(hl), #0x00
   1C2F 2B                 8097 	dec	hl
   1C30 5E                 8098 	ld	e, (hl)
   1C31 23                 8099 	inc	hl
   1C32 56                 8100 	ld	d, (hl)
   1C33 79                 8101 	ld	a, c
   1C34 93                 8102 	sub	a, e
   1C35 5F                 8103 	ld	e, a
   1C36 78                 8104 	ld	a, b
   1C37 9A                 8105 	sbc	a, d
   1C38 4B                 8106 	ld	c, e
   1C39 47                 8107 	ld	b, a
   1C3A F8 04              8108 	ldhl	sp,	#4
   1C3C 2A                 8109 	ld	a, (hl+)
   1C3D 66                 8110 	ld	h, (hl)
   1C3E 6F                 8111 	ld	l, a
   1C3F E5                 8112 	push	hl
   1C40 C5                 8113 	push	bc
   1C41 CDr3Ar0B           8114 	call	_get_tile_at
   1C44 E8 04              8115 	add	sp, #4
   1C46 4B                 8116 	ld	c, e
   1C47 79                 8117 	ld	a, c
   1C48 5F                 8118 	ld	e, a
   1C49 3E 2E              8119 	ld	a, #0x2e
   1C4B 57                 8120 	ld	d, a
   1C4C 3E 2E              8121 	ld	a, #0x2e
   1C4E 91                 8122 	sub	a, c
   1C4F CB 7B              8123 	bit	7, e
   1C51 28 07              8124 	jr	Z,00459$
   1C53 CB 7A              8125 	bit	7, d
   1C55 20 08              8126 	jr	NZ,00460$
   1C57 BF                 8127 	cp	a, a
   1C58 18 05              8128 	jr	00460$
   1C5A                    8129 00459$:
   1C5A CB 7A              8130 	bit	7, d
   1C5C 28 01              8131 	jr	Z,00460$
   1C5E 37                 8132 	scf
   1C5F                    8133 00460$:
   1C5F D2rADr1C           8134 	jp	NC, 00128$
                           8135 ;..\/game.c:644: if(get_tile_at((unsigned int) (hero.world_x + 1 - (movement & FACING_RIGHT)), (unsigned int) hero.world_y - 9) < 64)
   1C62 FAr15r09           8136 	ld	a, (#(_hero + 0x0011) + 0)
   1C65 4F                 8137 	ld	c, a
   1C66 06 00              8138 	ld	b, #0x00
   1C68 11 09 00           8139 	ld	de, #0x0009
   1C6B 79                 8140 	ld	a, c
   1C6C 93                 8141 	sub	a, e
   1C6D 5F                 8142 	ld	e, a
   1C6E 78                 8143 	ld	a, b
   1C6F 9A                 8144 	sbc	a, d
   1C70 F8 05              8145 	ldhl	sp,	#5
   1C72 32                 8146 	ld	(hl-), a
   1C73 73                 8147 	ld	(hl), e
   1C74 FAr14r09           8148 	ld	a, (#(_hero + 0x0010) + 0)
   1C77 4F                 8149 	ld	c, a
   1C78 06 00              8150 	ld	b, #0x00
   1C7A 03                 8151 	inc	bc
   1C7B 21rF6r08           8152 	ld	hl, #_movement
   1C7E 5E                 8153 	ld	e, (hl)
   1C7F 16 00              8154 	ld	d, #0x00
   1C81 7B                 8155 	ld	a, e
   1C82 E6 01              8156 	and	a, #0x01
   1C84 F8 06              8157 	ldhl	sp,	#6
   1C86 22                 8158 	ld	(hl+), a
   1C87 36 00              8159 	ld	(hl), #0x00
   1C89 2B                 8160 	dec	hl
   1C8A 5E                 8161 	ld	e, (hl)
   1C8B 23                 8162 	inc	hl
   1C8C 56                 8163 	ld	d, (hl)
   1C8D 79                 8164 	ld	a, c
   1C8E 93                 8165 	sub	a, e
   1C8F 5F                 8166 	ld	e, a
   1C90 78                 8167 	ld	a, b
   1C91 9A                 8168 	sbc	a, d
   1C92 4B                 8169 	ld	c, e
   1C93 47                 8170 	ld	b, a
   1C94 F8 04              8171 	ldhl	sp,	#4
   1C96 2A                 8172 	ld	a, (hl+)
   1C97 66                 8173 	ld	h, (hl)
   1C98 6F                 8174 	ld	l, a
   1C99 E5                 8175 	push	hl
   1C9A C5                 8176 	push	bc
   1C9B CDr3Ar0B           8177 	call	_get_tile_at
   1C9E E8 04              8178 	add	sp, #4
   1CA0 4B                 8179 	ld	c, e
   1CA1 79                 8180 	ld	a, c
   1CA2 EE 80              8181 	xor	a, #0x80
   1CA4 D6 C0              8182 	sub	a, #0xc0
   1CA6 30 05              8183 	jr	NC,00128$
                           8184 ;..\/game.c:646: blocked_left = 1;
   1CA8 21rFDr08           8185 	ld	hl, #_blocked_left
   1CAB 36 01              8186 	ld	(hl), #0x01
   1CAD                    8187 00128$:
                           8188 ;..\/game.c:651: if(get_tile_at((unsigned int) (hero.world_x + 1 - (movement & FACING_RIGHT)), (unsigned int) hero.world_y - 7) > 46)
   1CAD FAr15r09           8189 	ld	a, (#(_hero + 0x0011) + 0)
   1CB0 4F                 8190 	ld	c, a
   1CB1 06 00              8191 	ld	b, #0x00
   1CB3 11 07 00           8192 	ld	de, #0x0007
   1CB6 79                 8193 	ld	a, c
   1CB7 93                 8194 	sub	a, e
   1CB8 5F                 8195 	ld	e, a
   1CB9 78                 8196 	ld	a, b
   1CBA 9A                 8197 	sbc	a, d
   1CBB F8 05              8198 	ldhl	sp,	#5
   1CBD 32                 8199 	ld	(hl-), a
   1CBE 73                 8200 	ld	(hl), e
   1CBF FAr14r09           8201 	ld	a, (#(_hero + 0x0010) + 0)
   1CC2 4F                 8202 	ld	c, a
   1CC3 06 00              8203 	ld	b, #0x00
   1CC5 03                 8204 	inc	bc
   1CC6 21rF6r08           8205 	ld	hl, #_movement
   1CC9 5E                 8206 	ld	e, (hl)
   1CCA 16 00              8207 	ld	d, #0x00
   1CCC 7B                 8208 	ld	a, e
   1CCD E6 01              8209 	and	a, #0x01
   1CCF F8 06              8210 	ldhl	sp,	#6
   1CD1 22                 8211 	ld	(hl+), a
   1CD2 36 00              8212 	ld	(hl), #0x00
   1CD4 2B                 8213 	dec	hl
   1CD5 5E                 8214 	ld	e, (hl)
   1CD6 23                 8215 	inc	hl
   1CD7 56                 8216 	ld	d, (hl)
   1CD8 79                 8217 	ld	a, c
   1CD9 93                 8218 	sub	a, e
   1CDA 5F                 8219 	ld	e, a
   1CDB 78                 8220 	ld	a, b
   1CDC 9A                 8221 	sbc	a, d
   1CDD 4B                 8222 	ld	c, e
   1CDE 47                 8223 	ld	b, a
   1CDF F8 04              8224 	ldhl	sp,	#4
   1CE1 2A                 8225 	ld	a, (hl+)
   1CE2 66                 8226 	ld	h, (hl)
   1CE3 6F                 8227 	ld	l, a
   1CE4 E5                 8228 	push	hl
   1CE5 C5                 8229 	push	bc
   1CE6 CDr3Ar0B           8230 	call	_get_tile_at
   1CE9 E8 04              8231 	add	sp, #4
   1CEB 4B                 8232 	ld	c, e
   1CEC 79                 8233 	ld	a, c
   1CED 5F                 8234 	ld	e, a
   1CEE 3E 2E              8235 	ld	a, #0x2e
   1CF0 57                 8236 	ld	d, a
   1CF1 3E 2E              8237 	ld	a, #0x2e
   1CF3 91                 8238 	sub	a, c
   1CF4 CB 7B              8239 	bit	7, e
   1CF6 28 07              8240 	jr	Z,00461$
   1CF8 CB 7A              8241 	bit	7, d
   1CFA 20 08              8242 	jr	NZ,00462$
   1CFC BF                 8243 	cp	a, a
   1CFD 18 05              8244 	jr	00462$
   1CFF                    8245 00461$:
   1CFF CB 7A              8246 	bit	7, d
   1D01 28 01              8247 	jr	Z,00462$
   1D03 37                 8248 	scf
   1D04                    8249 00462$:
   1D04 D2r5Er1D           8250 	jp	NC, 00132$
                           8251 ;..\/game.c:653: if(get_tile_at((unsigned int) (hero.world_x + 1 - (movement & FACING_RIGHT)), (unsigned int) hero.world_y - 7) < 64)
   1D07 FAr15r09           8252 	ld	a, (#(_hero + 0x0011) + 0)
   1D0A 4F                 8253 	ld	c, a
   1D0B 06 00              8254 	ld	b, #0x00
   1D0D 11 07 00           8255 	ld	de, #0x0007
   1D10 79                 8256 	ld	a, c
   1D11 93                 8257 	sub	a, e
   1D12 5F                 8258 	ld	e, a
   1D13 78                 8259 	ld	a, b
   1D14 9A                 8260 	sbc	a, d
   1D15 F8 05              8261 	ldhl	sp,	#5
   1D17 32                 8262 	ld	(hl-), a
   1D18 73                 8263 	ld	(hl), e
   1D19 FAr14r09           8264 	ld	a, (#(_hero + 0x0010) + 0)
   1D1C 4F                 8265 	ld	c, a
   1D1D 06 00              8266 	ld	b, #0x00
   1D1F 03                 8267 	inc	bc
   1D20 21rF6r08           8268 	ld	hl, #_movement
   1D23 5E                 8269 	ld	e, (hl)
   1D24 16 00              8270 	ld	d, #0x00
   1D26 7B                 8271 	ld	a, e
   1D27 E6 01              8272 	and	a, #0x01
   1D29 F8 06              8273 	ldhl	sp,	#6
   1D2B 22                 8274 	ld	(hl+), a
   1D2C 36 00              8275 	ld	(hl), #0x00
   1D2E 2B                 8276 	dec	hl
   1D2F 5E                 8277 	ld	e, (hl)
   1D30 23                 8278 	inc	hl
   1D31 56                 8279 	ld	d, (hl)
   1D32 79                 8280 	ld	a, c
   1D33 93                 8281 	sub	a, e
   1D34 5F                 8282 	ld	e, a
   1D35 78                 8283 	ld	a, b
   1D36 9A                 8284 	sbc	a, d
   1D37 4B                 8285 	ld	c, e
   1D38 47                 8286 	ld	b, a
   1D39 F8 04              8287 	ldhl	sp,	#4
   1D3B 2A                 8288 	ld	a, (hl+)
   1D3C 66                 8289 	ld	h, (hl)
   1D3D 6F                 8290 	ld	l, a
   1D3E E5                 8291 	push	hl
   1D3F C5                 8292 	push	bc
   1D40 CDr3Ar0B           8293 	call	_get_tile_at
   1D43 E8 04              8294 	add	sp, #4
   1D45 4B                 8295 	ld	c, e
   1D46 79                 8296 	ld	a, c
   1D47 EE 80              8297 	xor	a, #0x80
   1D49 D6 C0              8298 	sub	a, #0xc0
   1D4B 30 11              8299 	jr	NC,00132$
                           8300 ;..\/game.c:655: blocked_left = 1;
   1D4D 21rFDr08           8301 	ld	hl, #_blocked_left
   1D50 36 01              8302 	ld	(hl), #0x01
                           8303 ;..\/game.c:656: movement = movement & ~JUMPING;
   1D52 21rF6r08           8304 	ld	hl, #_movement
   1D55 7E                 8305 	ld	a, (hl)
   1D56 E6 FD              8306 	and	a, #0xfd
   1D58 77                 8307 	ld	(hl), a
                           8308 ;..\/game.c:657: jumping_refresh = 0;
   1D59 21rF9r08           8309 	ld	hl, #_jumping_refresh
   1D5C 36 00              8310 	ld	(hl), #0x00
   1D5E                    8311 00132$:
                           8312 ;..\/game.c:661: if(get_tile_at((unsigned int) (hero.world_x + 2 - (movement & FACING_RIGHT)), (unsigned int) hero.world_y - 13) > 46)
   1D5E FAr15r09           8313 	ld	a, (#(_hero + 0x0011) + 0)
   1D61 4F                 8314 	ld	c, a
   1D62 06 00              8315 	ld	b, #0x00
   1D64 11 0D 00           8316 	ld	de, #0x000d
   1D67 79                 8317 	ld	a, c
   1D68 93                 8318 	sub	a, e
   1D69 5F                 8319 	ld	e, a
   1D6A 78                 8320 	ld	a, b
   1D6B 9A                 8321 	sbc	a, d
   1D6C F8 05              8322 	ldhl	sp,	#5
   1D6E 32                 8323 	ld	(hl-), a
   1D6F 73                 8324 	ld	(hl), e
   1D70 FAr14r09           8325 	ld	a, (#(_hero + 0x0010) + 0)
   1D73 4F                 8326 	ld	c, a
   1D74 06 00              8327 	ld	b, #0x00
   1D76 03                 8328 	inc	bc
   1D77 03                 8329 	inc	bc
   1D78 21rF6r08           8330 	ld	hl, #_movement
   1D7B 5E                 8331 	ld	e, (hl)
   1D7C 16 00              8332 	ld	d, #0x00
   1D7E 7B                 8333 	ld	a, e
   1D7F E6 01              8334 	and	a, #0x01
   1D81 F8 06              8335 	ldhl	sp,	#6
   1D83 22                 8336 	ld	(hl+), a
   1D84 36 00              8337 	ld	(hl), #0x00
   1D86 2B                 8338 	dec	hl
   1D87 5E                 8339 	ld	e, (hl)
   1D88 23                 8340 	inc	hl
   1D89 56                 8341 	ld	d, (hl)
   1D8A 79                 8342 	ld	a, c
   1D8B 93                 8343 	sub	a, e
   1D8C 5F                 8344 	ld	e, a
   1D8D 78                 8345 	ld	a, b
   1D8E 9A                 8346 	sbc	a, d
   1D8F 4B                 8347 	ld	c, e
   1D90 47                 8348 	ld	b, a
   1D91 F8 04              8349 	ldhl	sp,	#4
   1D93 2A                 8350 	ld	a, (hl+)
   1D94 66                 8351 	ld	h, (hl)
   1D95 6F                 8352 	ld	l, a
   1D96 E5                 8353 	push	hl
   1D97 C5                 8354 	push	bc
   1D98 CDr3Ar0B           8355 	call	_get_tile_at
   1D9B E8 04              8356 	add	sp, #4
   1D9D 4B                 8357 	ld	c, e
   1D9E 79                 8358 	ld	a, c
   1D9F 5F                 8359 	ld	e, a
   1DA0 3E 2E              8360 	ld	a, #0x2e
   1DA2 57                 8361 	ld	d, a
   1DA3 3E 2E              8362 	ld	a, #0x2e
   1DA5 91                 8363 	sub	a, c
   1DA6 CB 7B              8364 	bit	7, e
   1DA8 28 07              8365 	jr	Z,00463$
   1DAA CB 7A              8366 	bit	7, d
   1DAC 20 08              8367 	jr	NZ,00464$
   1DAE BF                 8368 	cp	a, a
   1DAF 18 05              8369 	jr	00464$
   1DB1                    8370 00463$:
   1DB1 CB 7A              8371 	bit	7, d
   1DB3 28 01              8372 	jr	Z,00464$
   1DB5 37                 8373 	scf
   1DB6                    8374 00464$:
   1DB6 D2r11r1E           8375 	jp	NC, 00136$
                           8376 ;..\/game.c:663: if(get_tile_at((unsigned int) (hero.world_x + 2 - (movement & FACING_RIGHT)), (unsigned int) hero.world_y - 13) < 64)
   1DB9 FAr15r09           8377 	ld	a, (#(_hero + 0x0011) + 0)
   1DBC 4F                 8378 	ld	c, a
   1DBD 06 00              8379 	ld	b, #0x00
   1DBF 11 0D 00           8380 	ld	de, #0x000d
   1DC2 79                 8381 	ld	a, c
   1DC3 93                 8382 	sub	a, e
   1DC4 5F                 8383 	ld	e, a
   1DC5 78                 8384 	ld	a, b
   1DC6 9A                 8385 	sbc	a, d
   1DC7 F8 05              8386 	ldhl	sp,	#5
   1DC9 32                 8387 	ld	(hl-), a
   1DCA 73                 8388 	ld	(hl), e
   1DCB FAr14r09           8389 	ld	a, (#(_hero + 0x0010) + 0)
   1DCE 4F                 8390 	ld	c, a
   1DCF 06 00              8391 	ld	b, #0x00
   1DD1 03                 8392 	inc	bc
   1DD2 03                 8393 	inc	bc
   1DD3 21rF6r08           8394 	ld	hl, #_movement
   1DD6 5E                 8395 	ld	e, (hl)
   1DD7 16 00              8396 	ld	d, #0x00
   1DD9 7B                 8397 	ld	a, e
   1DDA E6 01              8398 	and	a, #0x01
   1DDC F8 06              8399 	ldhl	sp,	#6
   1DDE 22                 8400 	ld	(hl+), a
   1DDF 36 00              8401 	ld	(hl), #0x00
   1DE1 2B                 8402 	dec	hl
   1DE2 5E                 8403 	ld	e, (hl)
   1DE3 23                 8404 	inc	hl
   1DE4 56                 8405 	ld	d, (hl)
   1DE5 79                 8406 	ld	a, c
   1DE6 93                 8407 	sub	a, e
   1DE7 5F                 8408 	ld	e, a
   1DE8 78                 8409 	ld	a, b
   1DE9 9A                 8410 	sbc	a, d
   1DEA 4B                 8411 	ld	c, e
   1DEB 47                 8412 	ld	b, a
   1DEC F8 04              8413 	ldhl	sp,	#4
   1DEE 2A                 8414 	ld	a, (hl+)
   1DEF 66                 8415 	ld	h, (hl)
   1DF0 6F                 8416 	ld	l, a
   1DF1 E5                 8417 	push	hl
   1DF2 C5                 8418 	push	bc
   1DF3 CDr3Ar0B           8419 	call	_get_tile_at
   1DF6 E8 04              8420 	add	sp, #4
   1DF8 4B                 8421 	ld	c, e
   1DF9 79                 8422 	ld	a, c
   1DFA EE 80              8423 	xor	a, #0x80
   1DFC D6 C0              8424 	sub	a, #0xc0
   1DFE 30 11              8425 	jr	NC,00136$
                           8426 ;..\/game.c:665: blocked_left = 1;
   1E00 21rFDr08           8427 	ld	hl, #_blocked_left
   1E03 36 01              8428 	ld	(hl), #0x01
                           8429 ;..\/game.c:666: movement = movement & ~JUMPING;
   1E05 21rF6r08           8430 	ld	hl, #_movement
   1E08 7E                 8431 	ld	a, (hl)
   1E09 E6 FD              8432 	and	a, #0xfd
   1E0B 77                 8433 	ld	(hl), a
                           8434 ;..\/game.c:667: jumping_refresh = 0;
   1E0C 21rF9r08           8435 	ld	hl, #_jumping_refresh
   1E0F 36 00              8436 	ld	(hl), #0x00
   1E11                    8437 00136$:
                           8438 ;..\/game.c:672: if(get_tile_at((unsigned int) (hero.world_x + 12 - (movement & FACING_RIGHT)), (unsigned int) hero.world_y - 1) > 46)
   1E11 FAr15r09           8439 	ld	a, (#(_hero + 0x0011) + 0)
   1E14 4F                 8440 	ld	c, a
   1E15 06 00              8441 	ld	b, #0x00
   1E17 11 01 00           8442 	ld	de, #0x0001
   1E1A 79                 8443 	ld	a, c
   1E1B 93                 8444 	sub	a, e
   1E1C 5F                 8445 	ld	e, a
   1E1D 78                 8446 	ld	a, b
   1E1E 9A                 8447 	sbc	a, d
   1E1F F8 05              8448 	ldhl	sp,	#5
   1E21 32                 8449 	ld	(hl-), a
   1E22 73                 8450 	ld	(hl), e
   1E23 FAr14r09           8451 	ld	a, (#(_hero + 0x0010) + 0)
   1E26 4F                 8452 	ld	c, a
   1E27 06 00              8453 	ld	b, #0x00
   1E29 21 0C 00           8454 	ld	hl, #0x000c
   1E2C 09                 8455 	add	hl, bc
   1E2D 4D                 8456 	ld	c, l
   1E2E 44                 8457 	ld	b, h
   1E2F 21rF6r08           8458 	ld	hl, #_movement
   1E32 5E                 8459 	ld	e, (hl)
   1E33 16 00              8460 	ld	d, #0x00
   1E35 7B                 8461 	ld	a, e
   1E36 E6 01              8462 	and	a, #0x01
   1E38 F8 06              8463 	ldhl	sp,	#6
   1E3A 22                 8464 	ld	(hl+), a
   1E3B 36 00              8465 	ld	(hl), #0x00
   1E3D 2B                 8466 	dec	hl
   1E3E 5E                 8467 	ld	e, (hl)
   1E3F 23                 8468 	inc	hl
   1E40 56                 8469 	ld	d, (hl)
   1E41 79                 8470 	ld	a, c
   1E42 93                 8471 	sub	a, e
   1E43 5F                 8472 	ld	e, a
   1E44 78                 8473 	ld	a, b
   1E45 9A                 8474 	sbc	a, d
   1E46 4B                 8475 	ld	c, e
   1E47 47                 8476 	ld	b, a
   1E48 F8 04              8477 	ldhl	sp,	#4
   1E4A 2A                 8478 	ld	a, (hl+)
   1E4B 66                 8479 	ld	h, (hl)
   1E4C 6F                 8480 	ld	l, a
   1E4D E5                 8481 	push	hl
   1E4E C5                 8482 	push	bc
   1E4F CDr3Ar0B           8483 	call	_get_tile_at
   1E52 E8 04              8484 	add	sp, #4
   1E54 4B                 8485 	ld	c, e
   1E55 79                 8486 	ld	a, c
   1E56 5F                 8487 	ld	e, a
   1E57 3E 2E              8488 	ld	a, #0x2e
   1E59 57                 8489 	ld	d, a
   1E5A 3E 2E              8490 	ld	a, #0x2e
   1E5C 91                 8491 	sub	a, c
   1E5D CB 7B              8492 	bit	7, e
   1E5F 28 07              8493 	jr	Z,00465$
   1E61 CB 7A              8494 	bit	7, d
   1E63 20 08              8495 	jr	NZ,00466$
   1E65 BF                 8496 	cp	a, a
   1E66 18 05              8497 	jr	00466$
   1E68                    8498 00465$:
   1E68 CB 7A              8499 	bit	7, d
   1E6A 28 01              8500 	jr	Z,00466$
   1E6C 37                 8501 	scf
   1E6D                    8502 00466$:
   1E6D D2r7Er20           8503 	jp	NC, 00161$
                           8504 ;..\/game.c:674: if(get_tile_at((unsigned int) (hero.world_x + 12 - (movement & FACING_RIGHT)), (unsigned int) hero.world_y - 1) < 64)
   1E70 FAr15r09           8505 	ld	a, (#(_hero + 0x0011) + 0)
   1E73 4F                 8506 	ld	c, a
   1E74 06 00              8507 	ld	b, #0x00
   1E76 11 01 00           8508 	ld	de, #0x0001
   1E79 79                 8509 	ld	a, c
   1E7A 93                 8510 	sub	a, e
   1E7B 5F                 8511 	ld	e, a
   1E7C 78                 8512 	ld	a, b
   1E7D 9A                 8513 	sbc	a, d
   1E7E F8 05              8514 	ldhl	sp,	#5
   1E80 32                 8515 	ld	(hl-), a
   1E81 73                 8516 	ld	(hl), e
   1E82 FAr14r09           8517 	ld	a, (#(_hero + 0x0010) + 0)
   1E85 4F                 8518 	ld	c, a
   1E86 06 00              8519 	ld	b, #0x00
   1E88 21 0C 00           8520 	ld	hl, #0x000c
   1E8B 09                 8521 	add	hl, bc
   1E8C 4D                 8522 	ld	c, l
   1E8D 44                 8523 	ld	b, h
   1E8E 21rF6r08           8524 	ld	hl, #_movement
   1E91 5E                 8525 	ld	e, (hl)
   1E92 16 00              8526 	ld	d, #0x00
   1E94 7B                 8527 	ld	a, e
   1E95 E6 01              8528 	and	a, #0x01
   1E97 F8 06              8529 	ldhl	sp,	#6
   1E99 22                 8530 	ld	(hl+), a
   1E9A 36 00              8531 	ld	(hl), #0x00
   1E9C 2B                 8532 	dec	hl
   1E9D 5E                 8533 	ld	e, (hl)
   1E9E 23                 8534 	inc	hl
   1E9F 56                 8535 	ld	d, (hl)
   1EA0 79                 8536 	ld	a, c
   1EA1 93                 8537 	sub	a, e
   1EA2 5F                 8538 	ld	e, a
   1EA3 78                 8539 	ld	a, b
   1EA4 9A                 8540 	sbc	a, d
   1EA5 4B                 8541 	ld	c, e
   1EA6 47                 8542 	ld	b, a
   1EA7 F8 04              8543 	ldhl	sp,	#4
   1EA9 2A                 8544 	ld	a, (hl+)
   1EAA 66                 8545 	ld	h, (hl)
   1EAB 6F                 8546 	ld	l, a
   1EAC E5                 8547 	push	hl
   1EAD C5                 8548 	push	bc
   1EAE CDr3Ar0B           8549 	call	_get_tile_at
   1EB1 E8 04              8550 	add	sp, #4
   1EB3 4B                 8551 	ld	c, e
   1EB4 79                 8552 	ld	a, c
   1EB5 EE 80              8553 	xor	a, #0x80
   1EB7 D6 C0              8554 	sub	a, #0xc0
   1EB9 30 08              8555 	jr	NC,00158$
                           8556 ;..\/game.c:676: blocked_right = 1;
   1EBB 21rFEr08           8557 	ld	hl, #_blocked_right
   1EBE 36 01              8558 	ld	(hl), #0x01
   1EC0 C3r7Er20           8559 	jp	00161$
   1EC3                    8560 00158$:
                           8561 ;..\/game.c:678: else if(requirement_met && get_tile_at((unsigned int) (hero.world_x + 12 - (movement & FACING_RIGHT)), (unsigned int) hero.world_y - 1) == 71)  //complete level
   1EC3 21rFFr08           8562 	ld	hl, #_requirement_met
   1EC6 7E                 8563 	ld	a, (hl)
   1EC7 B7                 8564 	or	a, a
   1EC8 CAr7Er20           8565 	jp	Z, 00161$
   1ECB FAr15r09           8566 	ld	a, (#(_hero + 0x0011) + 0)
   1ECE 4F                 8567 	ld	c, a
   1ECF 06 00              8568 	ld	b, #0x00
   1ED1 11 01 00           8569 	ld	de, #0x0001
   1ED4 79                 8570 	ld	a, c
   1ED5 93                 8571 	sub	a, e
   1ED6 5F                 8572 	ld	e, a
   1ED7 78                 8573 	ld	a, b
   1ED8 9A                 8574 	sbc	a, d
   1ED9 F8 05              8575 	ldhl	sp,	#5
   1EDB 32                 8576 	ld	(hl-), a
   1EDC 73                 8577 	ld	(hl), e
   1EDD FAr14r09           8578 	ld	a, (#(_hero + 0x0010) + 0)
   1EE0 4F                 8579 	ld	c, a
   1EE1 06 00              8580 	ld	b, #0x00
   1EE3 21 0C 00           8581 	ld	hl, #0x000c
   1EE6 09                 8582 	add	hl, bc
   1EE7 4D                 8583 	ld	c, l
   1EE8 44                 8584 	ld	b, h
   1EE9 21rF6r08           8585 	ld	hl, #_movement
   1EEC 5E                 8586 	ld	e, (hl)
   1EED 16 00              8587 	ld	d, #0x00
   1EEF 7B                 8588 	ld	a, e
   1EF0 E6 01              8589 	and	a, #0x01
   1EF2 F8 06              8590 	ldhl	sp,	#6
   1EF4 22                 8591 	ld	(hl+), a
   1EF5 36 00              8592 	ld	(hl), #0x00
   1EF7 2B                 8593 	dec	hl
   1EF8 5E                 8594 	ld	e, (hl)
   1EF9 23                 8595 	inc	hl
   1EFA 56                 8596 	ld	d, (hl)
   1EFB 79                 8597 	ld	a, c
   1EFC 93                 8598 	sub	a, e
   1EFD 5F                 8599 	ld	e, a
   1EFE 78                 8600 	ld	a, b
   1EFF 9A                 8601 	sbc	a, d
   1F00 4B                 8602 	ld	c, e
   1F01 47                 8603 	ld	b, a
   1F02 F8 04              8604 	ldhl	sp,	#4
   1F04 2A                 8605 	ld	a, (hl+)
   1F05 66                 8606 	ld	h, (hl)
   1F06 6F                 8607 	ld	l, a
   1F07 E5                 8608 	push	hl
   1F08 C5                 8609 	push	bc
   1F09 CDr3Ar0B           8610 	call	_get_tile_at
   1F0C E8 04              8611 	add	sp, #4
   1F0E 7B                 8612 	ld	a, e
   1F0F D6 47              8613 	sub	a, #0x47
   1F11 C2r7Er20           8614 	jp	NZ,00161$
                           8615 ;..\/game.c:680: while(!faded_out)
   1F14                    8616 00137$:
   1F14 21r2Er09           8617 	ld	hl, #_faded_out
   1F17 7E                 8618 	ld	a, (hl)
   1F18 B7                 8619 	or	a, a
   1F19 20 12              8620 	jr	NZ,00139$
                           8621 ;..\/game.c:682: fade_to_white(4);
   1F1B 3E 04              8622 	ld	a, #0x04
   1F1D F5                 8623 	push	af
   1F1E 33                 8624 	inc	sp
   1F1F CDr3Dr2B           8625 	call	_fade_to_white
   1F22 33                 8626 	inc	sp
                           8627 ;..\/game.c:683: vbl_wait(1);
   1F23 3E 01              8628 	ld	a, #0x01
   1F25 F5                 8629 	push	af
   1F26 33                 8630 	inc	sp
   1F27 CDr59r2A           8631 	call	_vbl_wait
   1F2A 33                 8632 	inc	sp
   1F2B 18 E7              8633 	jr	00137$
   1F2D                    8634 00139$:
                           8635 ;..\/game.c:688: complete_win[94] = 0x04 + gems_required[0] / 10;
   1F2D FAr7Cr09           8636 	ld	a, (#_gems_required + 0)
   1F30 4F                 8637 	ld	c, a
   1F31 06 00              8638 	ld	b, #0x00
   1F33 21 0A 00           8639 	ld	hl, #0x000a
   1F36 E5                 8640 	push	hl
   1F37 C5                 8641 	push	bc
   1F38 CDr00r00           8642 	call	__divsint
   1F3B E8 04              8643 	add	sp, #4
   1F3D 7B                 8644 	ld	a, e
   1F3E C6 04              8645 	add	a, #0x04
   1F40 21rF3r01           8646 	ld	hl, #(_complete_win + 0x005e)
   1F43 77                 8647 	ld	(hl), a
                           8648 ;..\/game.c:689: complete_win[95] = 0x04 + gems_required[0] % 10;
   1F44 FAr7Cr09           8649 	ld	a, (#_gems_required + 0)
   1F47 4F                 8650 	ld	c, a
   1F48 06 00              8651 	ld	b, #0x00
   1F4A 21 0A 00           8652 	ld	hl, #0x000a
   1F4D E5                 8653 	push	hl
   1F4E C5                 8654 	push	bc
   1F4F CDr00r00           8655 	call	__modsint
   1F52 E8 04              8656 	add	sp, #4
   1F54 7B                 8657 	ld	a, e
   1F55 C6 04              8658 	add	a, #0x04
   1F57 21rF4r01           8659 	ld	hl, #(_complete_win + 0x005f)
   1F5A 77                 8660 	ld	(hl), a
                           8661 ;..\/game.c:690: complete_win[113] = 0x04 + gems / 10;
   1F5B 21r01r09           8662 	ld	hl, #_gems
   1F5E 4E                 8663 	ld	c, (hl)
   1F5F 06 00              8664 	ld	b, #0x00
   1F61 21 0A 00           8665 	ld	hl, #0x000a
   1F64 E5                 8666 	push	hl
   1F65 C5                 8667 	push	bc
   1F66 CDr00r00           8668 	call	__divsint
   1F69 E8 04              8669 	add	sp, #4
   1F6B 7B                 8670 	ld	a, e
   1F6C C6 04              8671 	add	a, #0x04
   1F6E 21r06r02           8672 	ld	hl, #(_complete_win + 0x0071)
   1F71 77                 8673 	ld	(hl), a
                           8674 ;..\/game.c:691: complete_win[114] = 0x04 + gems % 10;
   1F72 21r01r09           8675 	ld	hl, #_gems
   1F75 4E                 8676 	ld	c, (hl)
   1F76 06 00              8677 	ld	b, #0x00
   1F78 21 0A 00           8678 	ld	hl, #0x000a
   1F7B E5                 8679 	push	hl
   1F7C C5                 8680 	push	bc
   1F7D CDr00r00           8681 	call	__modsint
   1F80 E8 04              8682 	add	sp, #4
   1F82 7B                 8683 	ld	a, e
   1F83 C6 04              8684 	add	a, #0x04
   1F85 21r07r02           8685 	ld	hl, #(_complete_win + 0x0072)
   1F88 77                 8686 	ld	(hl), a
                           8687 ;..\/game.c:692: set_win_tiles(0, 0, 20, 7, complete_win);
   1F89 21r95r01           8688 	ld	hl, #_complete_win
   1F8C E5                 8689 	push	hl
   1F8D 3E 07              8690 	ld	a, #0x07
   1F8F F5                 8691 	push	af
   1F90 33                 8692 	inc	sp
   1F91 3E 14              8693 	ld	a, #0x14
   1F93 F5                 8694 	push	af
   1F94 33                 8695 	inc	sp
   1F95 AF                 8696 	xor	a, a
   1F96 F5                 8697 	push	af
   1F97 33                 8698 	inc	sp
   1F98 AF                 8699 	xor	a, a
   1F99 F5                 8700 	push	af
   1F9A 33                 8701 	inc	sp
   1F9B CDr00r00           8702 	call	_set_win_tiles
   1F9E E8 06              8703 	add	sp, #6
                           8704 ;..\/game.c:693: move_win(7, 44);
   1FA0 3E 2C              8705 	ld	a, #0x2c
   1FA2 F5                 8706 	push	af
   1FA3 33                 8707 	inc	sp
   1FA4 3E 07              8708 	ld	a, #0x07
   1FA6 F5                 8709 	push	af
   1FA7 33                 8710 	inc	sp
   1FA8 CDr00r00           8711 	call	_move_win
   1FAB E8 02              8712 	add	sp, #2
                           8713 ;..\/game.c:694: LYC_REG = 99;
   1FAD 3E 63              8714 	ld	a, #0x63
   1FAF E0r00              8715 	ldh	(_LYC_REG+0),a
                           8716 ;..\/game.c:695: disable_interrupts();
   1FB1 CDr00r00           8717 	call	_disable_interrupts
                           8718 ;..\/game.c:696: remove_LCD(game_LCD);
   1FB4 21r6Dr01           8719 	ld	hl, #_game_LCD
   1FB7 E5                 8720 	push	hl
   1FB8 CDr00r00           8721 	call	_remove_LCD
   1FBB E8 02              8722 	add	sp, #2
                           8723 ;..\/game.c:697: remove_VBL(game_VBL);
   1FBD 21r85r09           8724 	ld	hl, #_game_VBL
   1FC0 E5                 8725 	push	hl
   1FC1 CDr00r00           8726 	call	_remove_VBL
   1FC4 E8 02              8727 	add	sp, #2
                           8728 ;..\/game.c:698: add_LCD(window_LCD);
   1FC6 21r8Cr09           8729 	ld	hl, #_window_LCD
   1FC9 E5                 8730 	push	hl
   1FCA CDr00r00           8731 	call	_add_LCD
   1FCD E8 02              8732 	add	sp, #2
                           8733 ;..\/game.c:699: add_VBL(window_VBL);
   1FCF 21rB7r09           8734 	ld	hl, #_window_VBL
   1FD2 E5                 8735 	push	hl
   1FD3 CDr00r00           8736 	call	_add_VBL
   1FD6 E8 02              8737 	add	sp, #2
                           8738 ;..\/game.c:700: enable_interrupts();
   1FD8 CDr00r00           8739 	call	_enable_interrupts
                           8740 ;..\/game.c:703: if(selected == unlocked)
   1FDB 21r03r00           8741 	ld	hl, #_selected
   1FDE 7E                 8742 	ld	a, (hl)
   1FDF 21r04r00           8743 	ld	hl, #_unlocked
   1FE2 96                 8744 	sub	a, (hl)
   1FE3 20 08              8745 	jr	NZ,00142$
                           8746 ;..\/game.c:705: selected++;
   1FE5 21r03r00           8747 	ld	hl, #_selected
   1FE8 34                 8748 	inc	(hl)
                           8749 ;..\/game.c:706: unlocked++;
   1FE9 21r04r00           8750 	ld	hl, #_unlocked
   1FEC 34                 8751 	inc	(hl)
                           8752 ;..\/game.c:709: while(faded_out)
   1FED                    8753 00142$:
   1FED 21r2Er09           8754 	ld	hl, #_faded_out
   1FF0 7E                 8755 	ld	a, (hl)
   1FF1 B7                 8756 	or	a, a
   1FF2 28 12              8757 	jr	Z,00152$
                           8758 ;..\/game.c:711: fade_from_white(4);
   1FF4 3E 04              8759 	ld	a, #0x04
   1FF6 F5                 8760 	push	af
   1FF7 33                 8761 	inc	sp
   1FF8 CDr90r2B           8762 	call	_fade_from_white
   1FFB 33                 8763 	inc	sp
                           8764 ;..\/game.c:712: vbl_wait(2);
   1FFC 3E 02              8765 	ld	a, #0x02
   1FFE F5                 8766 	push	af
   1FFF 33                 8767 	inc	sp
   2000 CDr59r2A           8768 	call	_vbl_wait
   2003 33                 8769 	inc	sp
   2004 18 E7              8770 	jr	00142$
                           8771 ;..\/game.c:715: while(1)
   2006                    8772 00152$:
                           8773 ;..\/game.c:717: if(key_down(J_A) || key_down(J_START)) //return to level selection
   2006 3E 10              8774 	ld	a, #0x10
   2008 F5                 8775 	push	af
   2009 33                 8776 	inc	sp
   200A CDr00r00           8777 	call	_key_down
   200D 33                 8778 	inc	sp
   200E 7B                 8779 	ld	a, e
   200F B7                 8780 	or	a, a
   2010 20 0D              8781 	jr	NZ,00145$
   2012 3E 80              8782 	ld	a, #0x80
   2014 F5                 8783 	push	af
   2015 33                 8784 	inc	sp
   2016 CDr00r00           8785 	call	_key_down
   2019 33                 8786 	inc	sp
   201A 7B                 8787 	ld	a, e
   201B B7                 8788 	or	a, a
   201C CAr73r20           8789 	jp	Z, 00149$
                           8790 ;..\/game.c:719: while(!faded_out)
   201F                    8791 00145$:
   201F 21r2Er09           8792 	ld	hl, #_faded_out
   2022 7E                 8793 	ld	a, (hl)
   2023 B7                 8794 	or	a, a
   2024 20 12              8795 	jr	NZ,00147$
                           8796 ;..\/game.c:721: fade_to_black(4);
   2026 3E 04              8797 	ld	a, #0x04
   2028 F5                 8798 	push	af
   2029 33                 8799 	inc	sp
   202A CDr8Cr2A           8800 	call	_fade_to_black
   202D 33                 8801 	inc	sp
                           8802 ;..\/game.c:722: vbl_wait(2);
   202E 3E 02              8803 	ld	a, #0x02
   2030 F5                 8804 	push	af
   2031 33                 8805 	inc	sp
   2032 CDr59r2A           8806 	call	_vbl_wait
   2035 33                 8807 	inc	sp
   2036 18 E7              8808 	jr	00145$
   2038                    8809 00147$:
                           8810 ;..\/game.c:726: remove_LCD(window_LCD);
   2038 21r8Cr09           8811 	ld	hl, #_window_LCD
   203B E5                 8812 	push	hl
   203C CDr00r00           8813 	call	_remove_LCD
   203F E8 02              8814 	add	sp, #2
                           8815 ;..\/game.c:727: remove_VBL(window_VBL);
   2041 21rB7r09           8816 	ld	hl, #_window_VBL
   2044 E5                 8817 	push	hl
   2045 CDr00r00           8818 	call	_remove_VBL
   2048 E8 02              8819 	add	sp, #2
                           8820 ;..\/game.c:729: move_bkg(0, 0);
   204A AF                 8821 	xor	a, a
   204B F5                 8822 	push	af
   204C 33                 8823 	inc	sp
   204D AF                 8824 	xor	a, a
   204E F5                 8825 	push	af
   204F 33                 8826 	inc	sp
   2050 CDr00r00           8827 	call	_move_bkg
   2053 E8 02              8828 	add	sp, #2
                           8829 ;..\/game.c:730: set_bkg_tiles(0, 0, 20, 18, selection_bkg);
   2055 21r05r00           8830 	ld	hl, #_selection_bkg
   2058 E5                 8831 	push	hl
   2059 3E 12              8832 	ld	a, #0x12
   205B F5                 8833 	push	af
   205C 33                 8834 	inc	sp
   205D 3E 14              8835 	ld	a, #0x14
   205F F5                 8836 	push	af
   2060 33                 8837 	inc	sp
   2061 AF                 8838 	xor	a, a
   2062 F5                 8839 	push	af
   2063 33                 8840 	inc	sp
   2064 AF                 8841 	xor	a, a
   2065 F5                 8842 	push	af
   2066 33                 8843 	inc	sp
   2067 CDr00r00           8844 	call	_set_bkg_tiles
   206A E8 06              8845 	add	sp, #6
                           8846 ;..\/game.c:731: scene = SELECTION;
   206C 21r2Cr09           8847 	ld	hl, #_scene
   206F 36 01              8848 	ld	(hl), #0x01
                           8849 ;..\/game.c:732: break;
   2071 18 0B              8850 	jr	00161$
   2073                    8851 00149$:
                           8852 ;..\/game.c:734: vbl_wait(2);
   2073 3E 02              8853 	ld	a, #0x02
   2075 F5                 8854 	push	af
   2076 33                 8855 	inc	sp
   2077 CDr59r2A           8856 	call	_vbl_wait
   207A 33                 8857 	inc	sp
   207B C3r06r20           8858 	jp	00152$
   207E                    8859 00161$:
                           8860 ;..\/game.c:739: if(get_tile_at((unsigned int) (hero.world_x + 11 - (movement & FACING_RIGHT)), (unsigned int) hero.world_y - 9) > 46)
   207E FAr15r09           8861 	ld	a, (#(_hero + 0x0011) + 0)
   2081 4F                 8862 	ld	c, a
   2082 06 00              8863 	ld	b, #0x00
   2084 11 09 00           8864 	ld	de, #0x0009
   2087 79                 8865 	ld	a, c
   2088 93                 8866 	sub	a, e
   2089 5F                 8867 	ld	e, a
   208A 78                 8868 	ld	a, b
   208B 9A                 8869 	sbc	a, d
   208C F8 05              8870 	ldhl	sp,	#5
   208E 32                 8871 	ld	(hl-), a
   208F 73                 8872 	ld	(hl), e
   2090 FAr14r09           8873 	ld	a, (#(_hero + 0x0010) + 0)
   2093 4F                 8874 	ld	c, a
   2094 06 00              8875 	ld	b, #0x00
   2096 21 0B 00           8876 	ld	hl, #0x000b
   2099 09                 8877 	add	hl, bc
   209A 4D                 8878 	ld	c, l
   209B 44                 8879 	ld	b, h
   209C 21rF6r08           8880 	ld	hl, #_movement
   209F 5E                 8881 	ld	e, (hl)
   20A0 16 00              8882 	ld	d, #0x00
   20A2 7B                 8883 	ld	a, e
   20A3 E6 01              8884 	and	a, #0x01
   20A5 F8 06              8885 	ldhl	sp,	#6
   20A7 22                 8886 	ld	(hl+), a
   20A8 36 00              8887 	ld	(hl), #0x00
   20AA 2B                 8888 	dec	hl
   20AB 5E                 8889 	ld	e, (hl)
   20AC 23                 8890 	inc	hl
   20AD 56                 8891 	ld	d, (hl)
   20AE 79                 8892 	ld	a, c
   20AF 93                 8893 	sub	a, e
   20B0 5F                 8894 	ld	e, a
   20B1 78                 8895 	ld	a, b
   20B2 9A                 8896 	sbc	a, d
   20B3 4B                 8897 	ld	c, e
   20B4 47                 8898 	ld	b, a
   20B5 F8 04              8899 	ldhl	sp,	#4
   20B7 2A                 8900 	ld	a, (hl+)
   20B8 66                 8901 	ld	h, (hl)
   20B9 6F                 8902 	ld	l, a
   20BA E5                 8903 	push	hl
   20BB C5                 8904 	push	bc
   20BC CDr3Ar0B           8905 	call	_get_tile_at
   20BF E8 04              8906 	add	sp, #4
   20C1 4B                 8907 	ld	c, e
   20C2 79                 8908 	ld	a, c
   20C3 5F                 8909 	ld	e, a
   20C4 3E 2E              8910 	ld	a, #0x2e
   20C6 57                 8911 	ld	d, a
   20C7 3E 2E              8912 	ld	a, #0x2e
   20C9 91                 8913 	sub	a, c
   20CA CB 7B              8914 	bit	7, e
   20CC 28 07              8915 	jr	Z,00471$
   20CE CB 7A              8916 	bit	7, d
   20D0 20 08              8917 	jr	NZ,00472$
   20D2 BF                 8918 	cp	a, a
   20D3 18 05              8919 	jr	00472$
   20D5                    8920 00471$:
   20D5 CB 7A              8921 	bit	7, d
   20D7 28 01              8922 	jr	Z,00472$
   20D9 37                 8923 	scf
   20DA                    8924 00472$:
   20DA D2r2Dr21           8925 	jp	NC, 00165$
                           8926 ;..\/game.c:741: if(get_tile_at((unsigned int) (hero.world_x + 11 - (movement & FACING_RIGHT)), (unsigned int) hero.world_y - 9) < 64)
   20DD FAr15r09           8927 	ld	a, (#(_hero + 0x0011) + 0)
   20E0 4F                 8928 	ld	c, a
   20E1 06 00              8929 	ld	b, #0x00
   20E3 11 09 00           8930 	ld	de, #0x0009
   20E6 79                 8931 	ld	a, c
   20E7 93                 8932 	sub	a, e
   20E8 5F                 8933 	ld	e, a
   20E9 78                 8934 	ld	a, b
   20EA 9A                 8935 	sbc	a, d
   20EB F8 05              8936 	ldhl	sp,	#5
   20ED 32                 8937 	ld	(hl-), a
   20EE 73                 8938 	ld	(hl), e
   20EF FAr14r09           8939 	ld	a, (#(_hero + 0x0010) + 0)
   20F2 4F                 8940 	ld	c, a
   20F3 06 00              8941 	ld	b, #0x00
   20F5 21 0B 00           8942 	ld	hl, #0x000b
   20F8 09                 8943 	add	hl, bc
   20F9 4D                 8944 	ld	c, l
   20FA 44                 8945 	ld	b, h
   20FB 21rF6r08           8946 	ld	hl, #_movement
   20FE 5E                 8947 	ld	e, (hl)
   20FF 16 00              8948 	ld	d, #0x00
   2101 7B                 8949 	ld	a, e
   2102 E6 01              8950 	and	a, #0x01
   2104 F8 06              8951 	ldhl	sp,	#6
   2106 22                 8952 	ld	(hl+), a
   2107 36 00              8953 	ld	(hl), #0x00
   2109 2B                 8954 	dec	hl
   210A 5E                 8955 	ld	e, (hl)
   210B 23                 8956 	inc	hl
   210C 56                 8957 	ld	d, (hl)
   210D 79                 8958 	ld	a, c
   210E 93                 8959 	sub	a, e
   210F 5F                 8960 	ld	e, a
   2110 78                 8961 	ld	a, b
   2111 9A                 8962 	sbc	a, d
   2112 4B                 8963 	ld	c, e
   2113 47                 8964 	ld	b, a
   2114 F8 04              8965 	ldhl	sp,	#4
   2116 2A                 8966 	ld	a, (hl+)
   2117 66                 8967 	ld	h, (hl)
   2118 6F                 8968 	ld	l, a
   2119 E5                 8969 	push	hl
   211A C5                 8970 	push	bc
   211B CDr3Ar0B           8971 	call	_get_tile_at
   211E E8 04              8972 	add	sp, #4
   2120 4B                 8973 	ld	c, e
   2121 79                 8974 	ld	a, c
   2122 EE 80              8975 	xor	a, #0x80
   2124 D6 C0              8976 	sub	a, #0xc0
   2126 30 05              8977 	jr	NC,00165$
                           8978 ;..\/game.c:743: blocked_right = 1;
   2128 21rFEr08           8979 	ld	hl, #_blocked_right
   212B 36 01              8980 	ld	(hl), #0x01
   212D                    8981 00165$:
                           8982 ;..\/game.c:748: if(get_tile_at((unsigned int) (hero.world_x + 11 - (movement & FACING_RIGHT)), (unsigned int) hero.world_y - 7) > 46)
   212D FAr15r09           8983 	ld	a, (#(_hero + 0x0011) + 0)
   2130 4F                 8984 	ld	c, a
   2131 06 00              8985 	ld	b, #0x00
   2133 11 07 00           8986 	ld	de, #0x0007
   2136 79                 8987 	ld	a, c
   2137 93                 8988 	sub	a, e
   2138 5F                 8989 	ld	e, a
   2139 78                 8990 	ld	a, b
   213A 9A                 8991 	sbc	a, d
   213B F8 05              8992 	ldhl	sp,	#5
   213D 32                 8993 	ld	(hl-), a
   213E 73                 8994 	ld	(hl), e
   213F FAr14r09           8995 	ld	a, (#(_hero + 0x0010) + 0)
   2142 4F                 8996 	ld	c, a
   2143 06 00              8997 	ld	b, #0x00
   2145 21 0B 00           8998 	ld	hl, #0x000b
   2148 09                 8999 	add	hl, bc
   2149 4D                 9000 	ld	c, l
   214A 44                 9001 	ld	b, h
   214B 21rF6r08           9002 	ld	hl, #_movement
   214E 5E                 9003 	ld	e, (hl)
   214F 16 00              9004 	ld	d, #0x00
   2151 7B                 9005 	ld	a, e
   2152 E6 01              9006 	and	a, #0x01
   2154 F8 06              9007 	ldhl	sp,	#6
   2156 22                 9008 	ld	(hl+), a
   2157 36 00              9009 	ld	(hl), #0x00
   2159 2B                 9010 	dec	hl
   215A 5E                 9011 	ld	e, (hl)
   215B 23                 9012 	inc	hl
   215C 56                 9013 	ld	d, (hl)
   215D 79                 9014 	ld	a, c
   215E 93                 9015 	sub	a, e
   215F 5F                 9016 	ld	e, a
   2160 78                 9017 	ld	a, b
   2161 9A                 9018 	sbc	a, d
   2162 4B                 9019 	ld	c, e
   2163 47                 9020 	ld	b, a
   2164 F8 04              9021 	ldhl	sp,	#4
   2166 2A                 9022 	ld	a, (hl+)
   2167 66                 9023 	ld	h, (hl)
   2168 6F                 9024 	ld	l, a
   2169 E5                 9025 	push	hl
   216A C5                 9026 	push	bc
   216B CDr3Ar0B           9027 	call	_get_tile_at
   216E E8 04              9028 	add	sp, #4
   2170 4B                 9029 	ld	c, e
   2171 79                 9030 	ld	a, c
   2172 5F                 9031 	ld	e, a
   2173 3E 2E              9032 	ld	a, #0x2e
   2175 57                 9033 	ld	d, a
   2176 3E 2E              9034 	ld	a, #0x2e
   2178 91                 9035 	sub	a, c
   2179 CB 7B              9036 	bit	7, e
   217B 28 07              9037 	jr	Z,00473$
   217D CB 7A              9038 	bit	7, d
   217F 20 08              9039 	jr	NZ,00474$
   2181 BF                 9040 	cp	a, a
   2182 18 05              9041 	jr	00474$
   2184                    9042 00473$:
   2184 CB 7A              9043 	bit	7, d
   2186 28 01              9044 	jr	Z,00474$
   2188 37                 9045 	scf
   2189                    9046 00474$:
   2189 D2rE8r21           9047 	jp	NC, 00169$
                           9048 ;..\/game.c:750: if(get_tile_at((unsigned int) (hero.world_x + 11 - (movement & FACING_RIGHT)), (unsigned int) hero.world_y - 7) < 64)
   218C FAr15r09           9049 	ld	a, (#(_hero + 0x0011) + 0)
   218F 4F                 9050 	ld	c, a
   2190 06 00              9051 	ld	b, #0x00
   2192 11 07 00           9052 	ld	de, #0x0007
   2195 79                 9053 	ld	a, c
   2196 93                 9054 	sub	a, e
   2197 5F                 9055 	ld	e, a
   2198 78                 9056 	ld	a, b
   2199 9A                 9057 	sbc	a, d
   219A F8 05              9058 	ldhl	sp,	#5
   219C 32                 9059 	ld	(hl-), a
   219D 73                 9060 	ld	(hl), e
   219E FAr14r09           9061 	ld	a, (#(_hero + 0x0010) + 0)
   21A1 4F                 9062 	ld	c, a
   21A2 06 00              9063 	ld	b, #0x00
   21A4 21 0B 00           9064 	ld	hl, #0x000b
   21A7 09                 9065 	add	hl, bc
   21A8 4D                 9066 	ld	c, l
   21A9 44                 9067 	ld	b, h
   21AA 21rF6r08           9068 	ld	hl, #_movement
   21AD 5E                 9069 	ld	e, (hl)
   21AE 16 00              9070 	ld	d, #0x00
   21B0 7B                 9071 	ld	a, e
   21B1 E6 01              9072 	and	a, #0x01
   21B3 F8 06              9073 	ldhl	sp,	#6
   21B5 22                 9074 	ld	(hl+), a
   21B6 36 00              9075 	ld	(hl), #0x00
   21B8 2B                 9076 	dec	hl
   21B9 5E                 9077 	ld	e, (hl)
   21BA 23                 9078 	inc	hl
   21BB 56                 9079 	ld	d, (hl)
   21BC 79                 9080 	ld	a, c
   21BD 93                 9081 	sub	a, e
   21BE 5F                 9082 	ld	e, a
   21BF 78                 9083 	ld	a, b
   21C0 9A                 9084 	sbc	a, d
   21C1 4B                 9085 	ld	c, e
   21C2 47                 9086 	ld	b, a
   21C3 F8 04              9087 	ldhl	sp,	#4
   21C5 2A                 9088 	ld	a, (hl+)
   21C6 66                 9089 	ld	h, (hl)
   21C7 6F                 9090 	ld	l, a
   21C8 E5                 9091 	push	hl
   21C9 C5                 9092 	push	bc
   21CA CDr3Ar0B           9093 	call	_get_tile_at
   21CD E8 04              9094 	add	sp, #4
   21CF 4B                 9095 	ld	c, e
   21D0 79                 9096 	ld	a, c
   21D1 EE 80              9097 	xor	a, #0x80
   21D3 D6 C0              9098 	sub	a, #0xc0
   21D5 30 11              9099 	jr	NC,00169$
                           9100 ;..\/game.c:752: blocked_right = 1;
   21D7 21rFEr08           9101 	ld	hl, #_blocked_right
   21DA 36 01              9102 	ld	(hl), #0x01
                           9103 ;..\/game.c:753: movement = movement & ~JUMPING;
   21DC 21rF6r08           9104 	ld	hl, #_movement
   21DF 7E                 9105 	ld	a, (hl)
   21E0 E6 FD              9106 	and	a, #0xfd
   21E2 77                 9107 	ld	(hl), a
                           9108 ;..\/game.c:754: jumping_refresh = 0;
   21E3 21rF9r08           9109 	ld	hl, #_jumping_refresh
   21E6 36 00              9110 	ld	(hl), #0x00
   21E8                    9111 00169$:
                           9112 ;..\/game.c:758: if(get_tile_at((unsigned int) (hero.world_x + 10 - (movement & FACING_RIGHT)), (unsigned int) hero.world_y - 13) > 46)
   21E8 FAr15r09           9113 	ld	a, (#(_hero + 0x0011) + 0)
   21EB 4F                 9114 	ld	c, a
   21EC 06 00              9115 	ld	b, #0x00
   21EE 11 0D 00           9116 	ld	de, #0x000d
   21F1 79                 9117 	ld	a, c
   21F2 93                 9118 	sub	a, e
   21F3 5F                 9119 	ld	e, a
   21F4 78                 9120 	ld	a, b
   21F5 9A                 9121 	sbc	a, d
   21F6 F8 05              9122 	ldhl	sp,	#5
   21F8 32                 9123 	ld	(hl-), a
   21F9 73                 9124 	ld	(hl), e
   21FA FAr14r09           9125 	ld	a, (#(_hero + 0x0010) + 0)
   21FD 4F                 9126 	ld	c, a
   21FE 06 00              9127 	ld	b, #0x00
   2200 21 0A 00           9128 	ld	hl, #0x000a
   2203 09                 9129 	add	hl, bc
   2204 4D                 9130 	ld	c, l
   2205 44                 9131 	ld	b, h
   2206 21rF6r08           9132 	ld	hl, #_movement
   2209 5E                 9133 	ld	e, (hl)
   220A 16 00              9134 	ld	d, #0x00
   220C 7B                 9135 	ld	a, e
   220D E6 01              9136 	and	a, #0x01
   220F F8 06              9137 	ldhl	sp,	#6
   2211 22                 9138 	ld	(hl+), a
   2212 36 00              9139 	ld	(hl), #0x00
   2214 2B                 9140 	dec	hl
   2215 5E                 9141 	ld	e, (hl)
   2216 23                 9142 	inc	hl
   2217 56                 9143 	ld	d, (hl)
   2218 79                 9144 	ld	a, c
   2219 93                 9145 	sub	a, e
   221A 5F                 9146 	ld	e, a
   221B 78                 9147 	ld	a, b
   221C 9A                 9148 	sbc	a, d
   221D 4B                 9149 	ld	c, e
   221E 47                 9150 	ld	b, a
   221F F8 04              9151 	ldhl	sp,	#4
   2221 2A                 9152 	ld	a, (hl+)
   2222 66                 9153 	ld	h, (hl)
   2223 6F                 9154 	ld	l, a
   2224 E5                 9155 	push	hl
   2225 C5                 9156 	push	bc
   2226 CDr3Ar0B           9157 	call	_get_tile_at
   2229 E8 04              9158 	add	sp, #4
   222B 4B                 9159 	ld	c, e
   222C 79                 9160 	ld	a, c
   222D 5F                 9161 	ld	e, a
   222E 3E 2E              9162 	ld	a, #0x2e
   2230 57                 9163 	ld	d, a
   2231 3E 2E              9164 	ld	a, #0x2e
   2233 91                 9165 	sub	a, c
   2234 CB 7B              9166 	bit	7, e
   2236 28 07              9167 	jr	Z,00475$
   2238 CB 7A              9168 	bit	7, d
   223A 20 08              9169 	jr	NZ,00476$
   223C BF                 9170 	cp	a, a
   223D 18 05              9171 	jr	00476$
   223F                    9172 00475$:
   223F CB 7A              9173 	bit	7, d
   2241 28 01              9174 	jr	Z,00476$
   2243 37                 9175 	scf
   2244                    9176 00476$:
   2244 D2rA3r22           9177 	jp	NC, 00173$
                           9178 ;..\/game.c:760: if(get_tile_at((unsigned int) (hero.world_x + 10 - (movement & FACING_RIGHT)), (unsigned int) hero.world_y - 13) < 64)
   2247 FAr15r09           9179 	ld	a, (#(_hero + 0x0011) + 0)
   224A 4F                 9180 	ld	c, a
   224B 06 00              9181 	ld	b, #0x00
   224D 11 0D 00           9182 	ld	de, #0x000d
   2250 79                 9183 	ld	a, c
   2251 93                 9184 	sub	a, e
   2252 5F                 9185 	ld	e, a
   2253 78                 9186 	ld	a, b
   2254 9A                 9187 	sbc	a, d
   2255 F8 05              9188 	ldhl	sp,	#5
   2257 32                 9189 	ld	(hl-), a
   2258 73                 9190 	ld	(hl), e
   2259 FAr14r09           9191 	ld	a, (#(_hero + 0x0010) + 0)
   225C 4F                 9192 	ld	c, a
   225D 06 00              9193 	ld	b, #0x00
   225F 21 0A 00           9194 	ld	hl, #0x000a
   2262 09                 9195 	add	hl, bc
   2263 4D                 9196 	ld	c, l
   2264 44                 9197 	ld	b, h
   2265 21rF6r08           9198 	ld	hl, #_movement
   2268 5E                 9199 	ld	e, (hl)
   2269 16 00              9200 	ld	d, #0x00
   226B 7B                 9201 	ld	a, e
   226C E6 01              9202 	and	a, #0x01
   226E F8 06              9203 	ldhl	sp,	#6
   2270 22                 9204 	ld	(hl+), a
   2271 36 00              9205 	ld	(hl), #0x00
   2273 2B                 9206 	dec	hl
   2274 5E                 9207 	ld	e, (hl)
   2275 23                 9208 	inc	hl
   2276 56                 9209 	ld	d, (hl)
   2277 79                 9210 	ld	a, c
   2278 93                 9211 	sub	a, e
   2279 5F                 9212 	ld	e, a
   227A 78                 9213 	ld	a, b
   227B 9A                 9214 	sbc	a, d
   227C 4B                 9215 	ld	c, e
   227D 47                 9216 	ld	b, a
   227E F8 04              9217 	ldhl	sp,	#4
   2280 2A                 9218 	ld	a, (hl+)
   2281 66                 9219 	ld	h, (hl)
   2282 6F                 9220 	ld	l, a
   2283 E5                 9221 	push	hl
   2284 C5                 9222 	push	bc
   2285 CDr3Ar0B           9223 	call	_get_tile_at
   2288 E8 04              9224 	add	sp, #4
   228A 4B                 9225 	ld	c, e
   228B 79                 9226 	ld	a, c
   228C EE 80              9227 	xor	a, #0x80
   228E D6 C0              9228 	sub	a, #0xc0
   2290 30 11              9229 	jr	NC,00173$
                           9230 ;..\/game.c:762: blocked_right = 1;
   2292 21rFEr08           9231 	ld	hl, #_blocked_right
   2295 36 01              9232 	ld	(hl), #0x01
                           9233 ;..\/game.c:763: movement = movement & ~JUMPING;
   2297 21rF6r08           9234 	ld	hl, #_movement
   229A 7E                 9235 	ld	a, (hl)
   229B E6 FD              9236 	and	a, #0xfd
   229D 77                 9237 	ld	(hl), a
                           9238 ;..\/game.c:764: jumping_refresh = 0;
   229E 21rF9r08           9239 	ld	hl, #_jumping_refresh
   22A1 36 00              9240 	ld	(hl), #0x00
   22A3                    9241 00173$:
                           9242 ;..\/game.c:769: if(get_tile_at((unsigned int) (hero.world_x + 8 - (movement & FACING_RIGHT)), (unsigned int) hero.world_y - 10) == 72)
   22A3 FAr15r09           9243 	ld	a, (#(_hero + 0x0011) + 0)
   22A6 4F                 9244 	ld	c, a
   22A7 06 00              9245 	ld	b, #0x00
   22A9 11 0A 00           9246 	ld	de, #0x000a
   22AC 79                 9247 	ld	a, c
   22AD 93                 9248 	sub	a, e
   22AE 5F                 9249 	ld	e, a
   22AF 78                 9250 	ld	a, b
   22B0 9A                 9251 	sbc	a, d
   22B1 F8 05              9252 	ldhl	sp,	#5
   22B3 32                 9253 	ld	(hl-), a
   22B4 73                 9254 	ld	(hl), e
   22B5 FAr14r09           9255 	ld	a, (#(_hero + 0x0010) + 0)
   22B8 4F                 9256 	ld	c, a
   22B9 06 00              9257 	ld	b, #0x00
   22BB 21 08 00           9258 	ld	hl, #0x0008
   22BE 09                 9259 	add	hl, bc
   22BF 4D                 9260 	ld	c, l
   22C0 44                 9261 	ld	b, h
   22C1 21rF6r08           9262 	ld	hl, #_movement
   22C4 5E                 9263 	ld	e, (hl)
   22C5 16 00              9264 	ld	d, #0x00
   22C7 7B                 9265 	ld	a, e
   22C8 E6 01              9266 	and	a, #0x01
   22CA F8 06              9267 	ldhl	sp,	#6
   22CC 22                 9268 	ld	(hl+), a
   22CD 36 00              9269 	ld	(hl), #0x00
   22CF 2B                 9270 	dec	hl
   22D0 5E                 9271 	ld	e, (hl)
   22D1 23                 9272 	inc	hl
   22D2 56                 9273 	ld	d, (hl)
   22D3 79                 9274 	ld	a, c
   22D4 93                 9275 	sub	a, e
   22D5 5F                 9276 	ld	e, a
   22D6 78                 9277 	ld	a, b
   22D7 9A                 9278 	sbc	a, d
   22D8 4B                 9279 	ld	c, e
   22D9 47                 9280 	ld	b, a
   22DA F8 04              9281 	ldhl	sp,	#4
   22DC 2A                 9282 	ld	a, (hl+)
   22DD 66                 9283 	ld	h, (hl)
   22DE 6F                 9284 	ld	l, a
   22DF E5                 9285 	push	hl
   22E0 C5                 9286 	push	bc
   22E1 CDr3Ar0B           9287 	call	_get_tile_at
   22E4 E8 04              9288 	add	sp, #4
   22E6 F8 01              9289 	ldhl	sp,	#1
   22E8 73                 9290 	ld	(hl), e
                           9291 ;..\/game.c:596: if(get_tile_at((unsigned int) (hero.world_x + 2 - (movement & FACING_RIGHT)), (unsigned int) hero.world_y) > 46)
   22E9 21r15r09           9292 	ld	hl, #(_hero + 0x0011) + 0
   22EC 46                 9293 	ld	b, (hl)
   22ED 21r14r09           9294 	ld	hl, #(_hero + 0x0010) + 0
   22F0 4E                 9295 	ld	c, (hl)
   22F1 21rF6r08           9296 	ld	hl, #_movement
   22F4 5E                 9297 	ld	e, (hl)
   22F5 16 00              9298 	ld	d, #0x00
                           9299 ;..\/game.c:598: if(get_tile_at((unsigned int) (hero.world_x + 2 - (movement & FACING_RIGHT)), (unsigned int) hero.world_y) < 64)
   22F7 F8 02              9300 	ldhl	sp,	#2
   22F9 70                 9301 	ld	(hl), b
   22FA AF                 9302 	xor	a, a
   22FB 23                 9303 	inc	hl
   22FC 77                 9304 	ld	(hl), a
   22FD 06 00              9305 	ld	b, #0x00
   22FF 7B                 9306 	ld	a, e
   2300 E6 01              9307 	and	a, #0x01
   2302 23                 9308 	inc	hl
   2303 22                 9309 	ld	(hl+), a
   2304 36 00              9310 	ld	(hl), #0x00
                           9311 ;..\/game.c:771: set_tile_at((unsigned int) (hero.world_x + 8 - (movement & FACING_RIGHT)), (unsigned int) hero.world_y - 10, 46); // replace with empty tile
   2306 2B                 9312 	dec	hl
   2307 2B                 9313 	dec	hl
   2308 2B                 9314 	dec	hl
   2309 5E                 9315 	ld	e, (hl)
   230A 23                 9316 	inc	hl
   230B 56                 9317 	ld	d, (hl)
   230C 21 0A 00           9318 	ld	hl, #0x000a
   230F 7B                 9319 	ld	a, e
   2310 95                 9320 	sub	a, l
   2311 5F                 9321 	ld	e, a
   2312 7A                 9322 	ld	a, d
   2313 9C                 9323 	sbc	a, h
   2314 F8 07              9324 	ldhl	sp,	#7
   2316 32                 9325 	ld	(hl-), a
   2317 73                 9326 	ld	(hl), e
                           9327 ;..\/game.c:769: if(get_tile_at((unsigned int) (hero.world_x + 8 - (movement & FACING_RIGHT)), (unsigned int) hero.world_y - 10) == 72)
   2318 F8 01              9328 	ldhl	sp,	#1
   231A 7E                 9329 	ld	a, (hl)
   231B D6 48              9330 	sub	a, #0x48
   231D C2r8Er23           9331 	jp	NZ,00191$
                           9332 ;..\/game.c:771: set_tile_at((unsigned int) (hero.world_x + 8 - (movement & FACING_RIGHT)), (unsigned int) hero.world_y - 10, 46); // replace with empty tile
   2320 21 08 00           9333 	ld	hl, #0x0008
   2323 09                 9334 	add	hl, bc
   2324 4D                 9335 	ld	c, l
   2325 44                 9336 	ld	b, h
   2326 F8 04              9337 	ldhl	sp,#(5 - 1)
   2328 5E                 9338 	ld	e, (hl)
   2329 23                 9339 	inc	hl
   232A 56                 9340 	ld	d, (hl)
   232B 79                 9341 	ld	a, c
   232C 93                 9342 	sub	a, e
   232D 5F                 9343 	ld	e, a
   232E 78                 9344 	ld	a, b
   232F 9A                 9345 	sbc	a, d
   2330 4B                 9346 	ld	c, e
   2331 47                 9347 	ld	b, a
   2332 21 2E 00           9348 	ld	hl, #0x002e
   2335 E5                 9349 	push	hl
   2336 F8 08              9350 	ldhl	sp,	#8
   2338 2A                 9351 	ld	a, (hl+)
   2339 66                 9352 	ld	h, (hl)
   233A 6F                 9353 	ld	l, a
   233B E5                 9354 	push	hl
   233C C5                 9355 	push	bc
   233D CDr66r0C           9356 	call	_set_tile_at
   2340 E8 06              9357 	add	sp, #6
                           9358 ;..\/game.c:773: set_bkg_tiles(0, 0, level_width, level_height, level);
   2342 21rB3r02           9359 	ld	hl, #_level
   2345 E5                 9360 	push	hl
   2346 21rF4r08           9361 	ld	hl, #_level_height
   2349 7E                 9362 	ld	a, (hl)
   234A F5                 9363 	push	af
   234B 33                 9364 	inc	sp
   234C 21rF3r08           9365 	ld	hl, #_level_width
   234F 7E                 9366 	ld	a, (hl)
   2350 F5                 9367 	push	af
   2351 33                 9368 	inc	sp
   2352 AF                 9369 	xor	a, a
   2353 F5                 9370 	push	af
   2354 33                 9371 	inc	sp
   2355 AF                 9372 	xor	a, a
   2356 F5                 9373 	push	af
   2357 33                 9374 	inc	sp
   2358 CDr00r00           9375 	call	_set_bkg_tiles
   235B E8 06              9376 	add	sp, #6
                           9377 ;..\/game.c:775: score += 10;
   235D 21r02r09           9378 	ld	hl, #_score
   2360 7E                 9379 	ld	a, (hl)
   2361 C6 0A              9380 	add	a, #0x0a
   2363 77                 9381 	ld	(hl), a
                           9382 ;..\/game.c:776: gems++;
   2364 21r01r09           9383 	ld	hl, #_gems
   2367 34                 9384 	inc	(hl)
                           9385 ;..\/game.c:777: update_gems();
   2368 CDrBEr09           9386 	call	_update_gems
                           9387 ;..\/game.c:778: update_score();
   236B CDr2Fr0A           9388 	call	_update_score
                           9389 ;..\/game.c:779: if(gems >= gems_required[selected-1])
   236E 21r03r00           9390 	ld	hl, #_selected
   2371 7E                 9391 	ld	a, (hl)
   2372 3D                 9392 	dec	a
   2373 4F                 9393 	ld	c, a
   2374 17                 9394 	rla
   2375 9F                 9395 	sbc	a, a
   2376 47                 9396 	ld	b, a
   2377 21r7Cr09           9397 	ld	hl, #_gems_required
   237A 09                 9398 	add	hl, bc
   237B 4D                 9399 	ld	c,l
   237C 7C                 9400 	ld	a,h
   237D 4E                 9401 	ld	c, (hl)
   237E 21r01r09           9402 	ld	hl, #_gems
   2381 7E                 9403 	ld	a, (hl)
   2382 91                 9404 	sub	a, c
   2383 DArDAr25           9405 	jp	C, 00192$
                           9406 ;..\/game.c:781: requirement_met = TRUE;
   2386 21rFFr08           9407 	ld	hl, #_requirement_met
   2389 36 01              9408 	ld	(hl), #0x01
   238B C3rDAr25           9409 	jp	00192$
   238E                    9410 00191$:
                           9411 ;..\/game.c:784: else if(get_tile_at((unsigned int) (hero.world_x + 4 - (movement & FACING_RIGHT)), (unsigned int) hero.world_y - 10) == 72)
   238E 03                 9412 	inc	bc
   238F 03                 9413 	inc	bc
   2390 03                 9414 	inc	bc
   2391 03                 9415 	inc	bc
   2392 F8 04              9416 	ldhl	sp,#(5 - 1)
   2394 5E                 9417 	ld	e, (hl)
   2395 23                 9418 	inc	hl
   2396 56                 9419 	ld	d, (hl)
   2397 79                 9420 	ld	a, c
   2398 93                 9421 	sub	a, e
   2399 5F                 9422 	ld	e, a
   239A 78                 9423 	ld	a, b
   239B 9A                 9424 	sbc	a, d
   239C 4B                 9425 	ld	c, e
   239D 47                 9426 	ld	b, a
   239E 23                 9427 	inc	hl
   239F 2A                 9428 	ld	a, (hl+)
   23A0 66                 9429 	ld	h, (hl)
   23A1 6F                 9430 	ld	l, a
   23A2 E5                 9431 	push	hl
   23A3 C5                 9432 	push	bc
   23A4 CDr3Ar0B           9433 	call	_get_tile_at
   23A7 E8 04              9434 	add	sp, #4
   23A9 F8 07              9435 	ldhl	sp,	#7
   23AB 73                 9436 	ld	(hl), e
                           9437 ;..\/game.c:596: if(get_tile_at((unsigned int) (hero.world_x + 2 - (movement & FACING_RIGHT)), (unsigned int) hero.world_y) > 46)
   23AC 21r15r09           9438 	ld	hl, #(_hero + 0x0011) + 0
   23AF 46                 9439 	ld	b, (hl)
   23B0 21r14r09           9440 	ld	hl, #(_hero + 0x0010) + 0
   23B3 4E                 9441 	ld	c, (hl)
   23B4 21rF6r08           9442 	ld	hl, #_movement
   23B7 5E                 9443 	ld	e, (hl)
   23B8 16 00              9444 	ld	d, #0x00
                           9445 ;..\/game.c:598: if(get_tile_at((unsigned int) (hero.world_x + 2 - (movement & FACING_RIGHT)), (unsigned int) hero.world_y) < 64)
   23BA F8 00              9446 	ldhl	sp,	#0
   23BC 70                 9447 	ld	(hl), b
   23BD AF                 9448 	xor	a, a
   23BE 23                 9449 	inc	hl
   23BF 22                 9450 	ld	(hl+), a
   23C0 71                 9451 	ld	(hl), c
   23C1 AF                 9452 	xor	a, a
   23C2 23                 9453 	inc	hl
   23C3 77                 9454 	ld	(hl), a
   23C4 7B                 9455 	ld	a, e
   23C5 E6 01              9456 	and	a, #0x01
   23C7 23                 9457 	inc	hl
   23C8 22                 9458 	ld	(hl+), a
   23C9 36 00              9459 	ld	(hl), #0x00
                           9460 ;..\/game.c:784: else if(get_tile_at((unsigned int) (hero.world_x + 4 - (movement & FACING_RIGHT)), (unsigned int) hero.world_y - 10) == 72)
   23CB 23                 9461 	inc	hl
   23CC 23                 9462 	inc	hl
   23CD 7E                 9463 	ld	a, (hl)
   23CE D6 48              9464 	sub	a, #0x48
   23D0 C2r54r24           9465 	jp	NZ,00188$
                           9466 ;..\/game.c:786: set_tile_at((unsigned int) (hero.world_x + 4 - (movement & FACING_RIGHT)), (unsigned int) hero.world_y - 10, 46); // replace with empty tile
   23D3 D1                 9467 	pop	de
   23D4 D5                 9468 	push	de
   23D5 21 0A 00           9469 	ld	hl, #0x000a
   23D8 7B                 9470 	ld	a, e
   23D9 95                 9471 	sub	a, l
   23DA 5F                 9472 	ld	e, a
   23DB 7A                 9473 	ld	a, d
   23DC 9C                 9474 	sbc	a, h
   23DD F8 07              9475 	ldhl	sp,	#7
   23DF 32                 9476 	ld	(hl-), a
   23E0 73                 9477 	ld	(hl), e
   23E1 F8 02              9478 	ldhl	sp,#(3 - 1)
   23E3 5E                 9479 	ld	e, (hl)
   23E4 23                 9480 	inc	hl
   23E5 56                 9481 	ld	d, (hl)
   23E6 21 04 00           9482 	ld	hl, #0x0004
   23E9 19                 9483 	add	hl, de
   23EA 4D                 9484 	ld	c, l
   23EB 44                 9485 	ld	b, h
   23EC F8 04              9486 	ldhl	sp,#(5 - 1)
   23EE 5E                 9487 	ld	e, (hl)
   23EF 23                 9488 	inc	hl
   23F0 56                 9489 	ld	d, (hl)
   23F1 79                 9490 	ld	a, c
   23F2 93                 9491 	sub	a, e
   23F3 5F                 9492 	ld	e, a
   23F4 78                 9493 	ld	a, b
   23F5 9A                 9494 	sbc	a, d
   23F6 4B                 9495 	ld	c, e
   23F7 47                 9496 	ld	b, a
   23F8 21 2E 00           9497 	ld	hl, #0x002e
   23FB E5                 9498 	push	hl
   23FC F8 08              9499 	ldhl	sp,	#8
   23FE 2A                 9500 	ld	a, (hl+)
   23FF 66                 9501 	ld	h, (hl)
   2400 6F                 9502 	ld	l, a
   2401 E5                 9503 	push	hl
   2402 C5                 9504 	push	bc
   2403 CDr66r0C           9505 	call	_set_tile_at
   2406 E8 06              9506 	add	sp, #6
                           9507 ;..\/game.c:788: set_bkg_tiles(0, 0, level_width, level_height, level);
   2408 21rB3r02           9508 	ld	hl, #_level
   240B E5                 9509 	push	hl
   240C 21rF4r08           9510 	ld	hl, #_level_height
   240F 7E                 9511 	ld	a, (hl)
   2410 F5                 9512 	push	af
   2411 33                 9513 	inc	sp
   2412 21rF3r08           9514 	ld	hl, #_level_width
   2415 7E                 9515 	ld	a, (hl)
   2416 F5                 9516 	push	af
   2417 33                 9517 	inc	sp
   2418 AF                 9518 	xor	a, a
   2419 F5                 9519 	push	af
   241A 33                 9520 	inc	sp
   241B AF                 9521 	xor	a, a
   241C F5                 9522 	push	af
   241D 33                 9523 	inc	sp
   241E CDr00r00           9524 	call	_set_bkg_tiles
   2421 E8 06              9525 	add	sp, #6
                           9526 ;..\/game.c:790: score += 10;
   2423 21r02r09           9527 	ld	hl, #_score
   2426 7E                 9528 	ld	a, (hl)
   2427 C6 0A              9529 	add	a, #0x0a
   2429 77                 9530 	ld	(hl), a
                           9531 ;..\/game.c:791: gems++;
   242A 21r01r09           9532 	ld	hl, #_gems
   242D 34                 9533 	inc	(hl)
                           9534 ;..\/game.c:792: update_gems();
   242E CDrBEr09           9535 	call	_update_gems
                           9536 ;..\/game.c:793: update_score();
   2431 CDr2Fr0A           9537 	call	_update_score
                           9538 ;..\/game.c:794: if(gems >= gems_required[selected-1])
   2434 21r03r00           9539 	ld	hl, #_selected
   2437 7E                 9540 	ld	a, (hl)
   2438 3D                 9541 	dec	a
   2439 4F                 9542 	ld	c, a
   243A 17                 9543 	rla
   243B 9F                 9544 	sbc	a, a
   243C 47                 9545 	ld	b, a
   243D 21r7Cr09           9546 	ld	hl, #_gems_required
   2440 09                 9547 	add	hl, bc
   2441 4D                 9548 	ld	c,l
   2442 7C                 9549 	ld	a,h
   2443 4E                 9550 	ld	c, (hl)
   2444 21r01r09           9551 	ld	hl, #_gems
   2447 7E                 9552 	ld	a, (hl)
   2448 91                 9553 	sub	a, c
   2449 DArDAr25           9554 	jp	C, 00192$
                           9555 ;..\/game.c:796: requirement_met = TRUE;
   244C 21rFFr08           9556 	ld	hl, #_requirement_met
   244F 36 01              9557 	ld	(hl), #0x01
   2451 C3rDAr25           9558 	jp	00192$
   2454                    9559 00188$:
                           9560 ;..\/game.c:799: else if(get_tile_at((unsigned int) (hero.world_x + 8 - (movement & FACING_RIGHT)), (unsigned int) hero.world_y - 2) == 72)
   2454 D1                 9561 	pop	de
   2455 D5                 9562 	push	de
   2456 21 02 00           9563 	ld	hl, #0x0002
   2459 7B                 9564 	ld	a, e
   245A 95                 9565 	sub	a, l
   245B 5F                 9566 	ld	e, a
   245C 7A                 9567 	ld	a, d
   245D 9C                 9568 	sbc	a, h
   245E F8 07              9569 	ldhl	sp,	#7
   2460 32                 9570 	ld	(hl-), a
   2461 73                 9571 	ld	(hl), e
   2462 F8 02              9572 	ldhl	sp,#(3 - 1)
   2464 5E                 9573 	ld	e, (hl)
   2465 23                 9574 	inc	hl
   2466 56                 9575 	ld	d, (hl)
   2467 21 08 00           9576 	ld	hl, #0x0008
   246A 19                 9577 	add	hl, de
   246B 4D                 9578 	ld	c, l
   246C 44                 9579 	ld	b, h
   246D F8 04              9580 	ldhl	sp,#(5 - 1)
   246F 5E                 9581 	ld	e, (hl)
   2470 23                 9582 	inc	hl
   2471 56                 9583 	ld	d, (hl)
   2472 79                 9584 	ld	a, c
   2473 93                 9585 	sub	a, e
   2474 5F                 9586 	ld	e, a
   2475 78                 9587 	ld	a, b
   2476 9A                 9588 	sbc	a, d
   2477 4B                 9589 	ld	c, e
   2478 47                 9590 	ld	b, a
   2479 23                 9591 	inc	hl
   247A 2A                 9592 	ld	a, (hl+)
   247B 66                 9593 	ld	h, (hl)
   247C 6F                 9594 	ld	l, a
   247D E5                 9595 	push	hl
   247E C5                 9596 	push	bc
   247F CDr3Ar0B           9597 	call	_get_tile_at
   2482 E8 04              9598 	add	sp, #4
   2484 F8 01              9599 	ldhl	sp,	#1
   2486 73                 9600 	ld	(hl), e
                           9601 ;..\/game.c:596: if(get_tile_at((unsigned int) (hero.world_x + 2 - (movement & FACING_RIGHT)), (unsigned int) hero.world_y) > 46)
   2487 21r15r09           9602 	ld	hl, #(_hero + 0x0011) + 0
   248A 46                 9603 	ld	b, (hl)
   248B 21r14r09           9604 	ld	hl, #(_hero + 0x0010) + 0
   248E 4E                 9605 	ld	c, (hl)
   248F 21rF6r08           9606 	ld	hl, #_movement
   2492 5E                 9607 	ld	e, (hl)
   2493 16 00              9608 	ld	d, #0x00
                           9609 ;..\/game.c:598: if(get_tile_at((unsigned int) (hero.world_x + 2 - (movement & FACING_RIGHT)), (unsigned int) hero.world_y) < 64)
   2495 F8 02              9610 	ldhl	sp,	#2
   2497 70                 9611 	ld	(hl), b
   2498 AF                 9612 	xor	a, a
   2499 23                 9613 	inc	hl
   249A 77                 9614 	ld	(hl), a
   249B 06 00              9615 	ld	b, #0x00
   249D 7B                 9616 	ld	a, e
   249E E6 01              9617 	and	a, #0x01
   24A0 23                 9618 	inc	hl
   24A1 22                 9619 	ld	(hl+), a
   24A2 36 00              9620 	ld	(hl), #0x00
                           9621 ;..\/game.c:799: else if(get_tile_at((unsigned int) (hero.world_x + 8 - (movement & FACING_RIGHT)), (unsigned int) hero.world_y - 2) == 72)
   24A4 2B                 9622 	dec	hl
   24A5 2B                 9623 	dec	hl
   24A6 2B                 9624 	dec	hl
   24A7 5E                 9625 	ld	e, (hl)
   24A8 23                 9626 	inc	hl
   24A9 56                 9627 	ld	d, (hl)
   24AA 21 02 00           9628 	ld	hl, #0x0002
   24AD 7B                 9629 	ld	a, e
   24AE 95                 9630 	sub	a, l
   24AF 5F                 9631 	ld	e, a
   24B0 7A                 9632 	ld	a, d
   24B1 9C                 9633 	sbc	a, h
   24B2 F8 07              9634 	ldhl	sp,	#7
   24B4 32                 9635 	ld	(hl-), a
   24B5 73                 9636 	ld	(hl), e
   24B6 F8 01              9637 	ldhl	sp,	#1
   24B8 7E                 9638 	ld	a, (hl)
   24B9 D6 48              9639 	sub	a, #0x48
   24BB C2r2Cr25           9640 	jp	NZ,00185$
                           9641 ;..\/game.c:801: set_tile_at((unsigned int) (hero.world_x + 8 - (movement & FACING_RIGHT)), (unsigned int) hero.world_y - 2, 46); // replace with empty tile
   24BE 21 08 00           9642 	ld	hl, #0x0008
   24C1 09                 9643 	add	hl, bc
   24C2 4D                 9644 	ld	c, l
   24C3 44                 9645 	ld	b, h
   24C4 F8 04              9646 	ldhl	sp,#(5 - 1)
   24C6 5E                 9647 	ld	e, (hl)
   24C7 23                 9648 	inc	hl
   24C8 56                 9649 	ld	d, (hl)
   24C9 79                 9650 	ld	a, c
   24CA 93                 9651 	sub	a, e
   24CB 5F                 9652 	ld	e, a
   24CC 78                 9653 	ld	a, b
   24CD 9A                 9654 	sbc	a, d
   24CE 4B                 9655 	ld	c, e
   24CF 47                 9656 	ld	b, a
   24D0 21 2E 00           9657 	ld	hl, #0x002e
   24D3 E5                 9658 	push	hl
   24D4 F8 08              9659 	ldhl	sp,	#8
   24D6 2A                 9660 	ld	a, (hl+)
   24D7 66                 9661 	ld	h, (hl)
   24D8 6F                 9662 	ld	l, a
   24D9 E5                 9663 	push	hl
   24DA C5                 9664 	push	bc
   24DB CDr66r0C           9665 	call	_set_tile_at
   24DE E8 06              9666 	add	sp, #6
                           9667 ;..\/game.c:803: set_bkg_tiles(0, 0, level_width, level_height, level);
   24E0 21rB3r02           9668 	ld	hl, #_level
   24E3 E5                 9669 	push	hl
   24E4 21rF4r08           9670 	ld	hl, #_level_height
   24E7 7E                 9671 	ld	a, (hl)
   24E8 F5                 9672 	push	af
   24E9 33                 9673 	inc	sp
   24EA 21rF3r08           9674 	ld	hl, #_level_width
   24ED 7E                 9675 	ld	a, (hl)
   24EE F5                 9676 	push	af
   24EF 33                 9677 	inc	sp
   24F0 AF                 9678 	xor	a, a
   24F1 F5                 9679 	push	af
   24F2 33                 9680 	inc	sp
   24F3 AF                 9681 	xor	a, a
   24F4 F5                 9682 	push	af
   24F5 33                 9683 	inc	sp
   24F6 CDr00r00           9684 	call	_set_bkg_tiles
   24F9 E8 06              9685 	add	sp, #6
                           9686 ;..\/game.c:805: score += 10;
   24FB 21r02r09           9687 	ld	hl, #_score
   24FE 7E                 9688 	ld	a, (hl)
   24FF C6 0A              9689 	add	a, #0x0a
   2501 77                 9690 	ld	(hl), a
                           9691 ;..\/game.c:806: gems++;
   2502 21r01r09           9692 	ld	hl, #_gems
   2505 34                 9693 	inc	(hl)
                           9694 ;..\/game.c:807: update_gems();
   2506 CDrBEr09           9695 	call	_update_gems
                           9696 ;..\/game.c:808: update_score();
   2509 CDr2Fr0A           9697 	call	_update_score
                           9698 ;..\/game.c:809: if(gems >= gems_required[selected-1])
   250C 21r03r00           9699 	ld	hl, #_selected
   250F 7E                 9700 	ld	a, (hl)
   2510 3D                 9701 	dec	a
   2511 4F                 9702 	ld	c, a
   2512 17                 9703 	rla
   2513 9F                 9704 	sbc	a, a
   2514 47                 9705 	ld	b, a
   2515 21r7Cr09           9706 	ld	hl, #_gems_required
   2518 09                 9707 	add	hl, bc
   2519 4D                 9708 	ld	c,l
   251A 7C                 9709 	ld	a,h
   251B 4E                 9710 	ld	c, (hl)
   251C 21r01r09           9711 	ld	hl, #_gems
   251F 7E                 9712 	ld	a, (hl)
   2520 91                 9713 	sub	a, c
   2521 DArDAr25           9714 	jp	C, 00192$
                           9715 ;..\/game.c:811: requirement_met = TRUE;
   2524 21rFFr08           9716 	ld	hl, #_requirement_met
   2527 36 01              9717 	ld	(hl), #0x01
   2529 C3rDAr25           9718 	jp	00192$
   252C                    9719 00185$:
                           9720 ;..\/game.c:814: else if(get_tile_at((unsigned int) (hero.world_x + 4 - (movement & FACING_RIGHT)), (unsigned int) hero.world_y - 2) == 72)
   252C 03                 9721 	inc	bc
   252D 03                 9722 	inc	bc
   252E 03                 9723 	inc	bc
   252F 03                 9724 	inc	bc
   2530 F8 04              9725 	ldhl	sp,#(5 - 1)
   2532 5E                 9726 	ld	e, (hl)
   2533 23                 9727 	inc	hl
   2534 56                 9728 	ld	d, (hl)
   2535 79                 9729 	ld	a, c
   2536 93                 9730 	sub	a, e
   2537 5F                 9731 	ld	e, a
   2538 78                 9732 	ld	a, b
   2539 9A                 9733 	sbc	a, d
   253A 4B                 9734 	ld	c, e
   253B 47                 9735 	ld	b, a
   253C 23                 9736 	inc	hl
   253D 2A                 9737 	ld	a, (hl+)
   253E 66                 9738 	ld	h, (hl)
   253F 6F                 9739 	ld	l, a
   2540 E5                 9740 	push	hl
   2541 C5                 9741 	push	bc
   2542 CDr3Ar0B           9742 	call	_get_tile_at
   2545 E8 04              9743 	add	sp, #4
   2547 7B                 9744 	ld	a, e
   2548 D6 48              9745 	sub	a, #0x48
   254A C2rDAr25           9746 	jp	NZ,00192$
                           9747 ;..\/game.c:816: set_tile_at((unsigned int) (hero.world_x + 4 - (movement & FACING_RIGHT)), (unsigned int) hero.world_y - 2, 46); // replace with empty tile
   254D FAr15r09           9748 	ld	a, (#(_hero + 0x0011) + 0)
   2550 4F                 9749 	ld	c, a
   2551 06 00              9750 	ld	b, #0x00
   2553 11 02 00           9751 	ld	de, #0x0002
   2556 79                 9752 	ld	a, c
   2557 93                 9753 	sub	a, e
   2558 5F                 9754 	ld	e, a
   2559 78                 9755 	ld	a, b
   255A 9A                 9756 	sbc	a, d
   255B F8 05              9757 	ldhl	sp,	#5
   255D 32                 9758 	ld	(hl-), a
   255E 73                 9759 	ld	(hl), e
   255F FAr14r09           9760 	ld	a, (#(_hero + 0x0010) + 0)
   2562 4F                 9761 	ld	c, a
   2563 06 00              9762 	ld	b, #0x00
   2565 03                 9763 	inc	bc
   2566 03                 9764 	inc	bc
   2567 03                 9765 	inc	bc
   2568 03                 9766 	inc	bc
   2569 21rF6r08           9767 	ld	hl, #_movement
   256C 5E                 9768 	ld	e, (hl)
   256D 16 00              9769 	ld	d, #0x00
   256F 7B                 9770 	ld	a, e
   2570 E6 01              9771 	and	a, #0x01
   2572 F8 06              9772 	ldhl	sp,	#6
   2574 22                 9773 	ld	(hl+), a
   2575 36 00              9774 	ld	(hl), #0x00
   2577 2B                 9775 	dec	hl
   2578 5E                 9776 	ld	e, (hl)
   2579 23                 9777 	inc	hl
   257A 56                 9778 	ld	d, (hl)
   257B 79                 9779 	ld	a, c
   257C 93                 9780 	sub	a, e
   257D 5F                 9781 	ld	e, a
   257E 78                 9782 	ld	a, b
   257F 9A                 9783 	sbc	a, d
   2580 4B                 9784 	ld	c, e
   2581 47                 9785 	ld	b, a
   2582 21 2E 00           9786 	ld	hl, #0x002e
   2585 E5                 9787 	push	hl
   2586 F8 06              9788 	ldhl	sp,	#6
   2588 2A                 9789 	ld	a, (hl+)
   2589 66                 9790 	ld	h, (hl)
   258A 6F                 9791 	ld	l, a
   258B E5                 9792 	push	hl
   258C C5                 9793 	push	bc
   258D CDr66r0C           9794 	call	_set_tile_at
   2590 E8 06              9795 	add	sp, #6
                           9796 ;..\/game.c:818: set_bkg_tiles(0, 0, level_width, level_height, level);
   2592 21rB3r02           9797 	ld	hl, #_level
   2595 E5                 9798 	push	hl
   2596 21rF4r08           9799 	ld	hl, #_level_height
   2599 7E                 9800 	ld	a, (hl)
   259A F5                 9801 	push	af
   259B 33                 9802 	inc	sp
   259C 21rF3r08           9803 	ld	hl, #_level_width
   259F 7E                 9804 	ld	a, (hl)
   25A0 F5                 9805 	push	af
   25A1 33                 9806 	inc	sp
   25A2 AF                 9807 	xor	a, a
   25A3 F5                 9808 	push	af
   25A4 33                 9809 	inc	sp
   25A5 AF                 9810 	xor	a, a
   25A6 F5                 9811 	push	af
   25A7 33                 9812 	inc	sp
   25A8 CDr00r00           9813 	call	_set_bkg_tiles
   25AB E8 06              9814 	add	sp, #6
                           9815 ;..\/game.c:820: score += 10;
   25AD 21r02r09           9816 	ld	hl, #_score
   25B0 7E                 9817 	ld	a, (hl)
   25B1 C6 0A              9818 	add	a, #0x0a
   25B3 77                 9819 	ld	(hl), a
                           9820 ;..\/game.c:821: gems++;
   25B4 21r01r09           9821 	ld	hl, #_gems
   25B7 34                 9822 	inc	(hl)
                           9823 ;..\/game.c:822: update_gems();
   25B8 CDrBEr09           9824 	call	_update_gems
                           9825 ;..\/game.c:823: update_score();
   25BB CDr2Fr0A           9826 	call	_update_score
                           9827 ;..\/game.c:824: if(gems >= gems_required[selected-1])
   25BE 21r03r00           9828 	ld	hl, #_selected
   25C1 7E                 9829 	ld	a, (hl)
   25C2 3D                 9830 	dec	a
   25C3 4F                 9831 	ld	c, a
   25C4 17                 9832 	rla
   25C5 9F                 9833 	sbc	a, a
   25C6 47                 9834 	ld	b, a
   25C7 21r7Cr09           9835 	ld	hl, #_gems_required
   25CA 09                 9836 	add	hl, bc
   25CB 4D                 9837 	ld	c,l
   25CC 7C                 9838 	ld	a,h
   25CD 4E                 9839 	ld	c, (hl)
   25CE 21r01r09           9840 	ld	hl, #_gems
   25D1 7E                 9841 	ld	a, (hl)
   25D2 91                 9842 	sub	a, c
   25D3 38 05              9843 	jr	C,00192$
                           9844 ;..\/game.c:826: requirement_met = TRUE;
   25D5 21rFFr08           9845 	ld	hl, #_requirement_met
   25D8 36 01              9846 	ld	(hl), #0x01
   25DA                    9847 00192$:
                           9848 ;..\/game.c:831: if(get_tile_at((unsigned int) (hero.world_x + 8 - (movement & FACING_RIGHT)), (unsigned int) hero.world_y - 10) == 73)
   25DA FAr15r09           9849 	ld	a, (#(_hero + 0x0011) + 0)
   25DD 4F                 9850 	ld	c, a
   25DE 06 00              9851 	ld	b, #0x00
   25E0 11 0A 00           9852 	ld	de, #0x000a
   25E3 79                 9853 	ld	a, c
   25E4 93                 9854 	sub	a, e
   25E5 5F                 9855 	ld	e, a
   25E6 78                 9856 	ld	a, b
   25E7 9A                 9857 	sbc	a, d
   25E8 F8 05              9858 	ldhl	sp,	#5
   25EA 32                 9859 	ld	(hl-), a
   25EB 73                 9860 	ld	(hl), e
   25EC FAr14r09           9861 	ld	a, (#(_hero + 0x0010) + 0)
   25EF 4F                 9862 	ld	c, a
   25F0 06 00              9863 	ld	b, #0x00
   25F2 21 08 00           9864 	ld	hl, #0x0008
   25F5 09                 9865 	add	hl, bc
   25F6 4D                 9866 	ld	c, l
   25F7 44                 9867 	ld	b, h
   25F8 21rF6r08           9868 	ld	hl, #_movement
   25FB 5E                 9869 	ld	e, (hl)
   25FC 16 00              9870 	ld	d, #0x00
   25FE 7B                 9871 	ld	a, e
   25FF E6 01              9872 	and	a, #0x01
   2601 F8 06              9873 	ldhl	sp,	#6
   2603 22                 9874 	ld	(hl+), a
   2604 36 00              9875 	ld	(hl), #0x00
   2606 2B                 9876 	dec	hl
   2607 5E                 9877 	ld	e, (hl)
   2608 23                 9878 	inc	hl
   2609 56                 9879 	ld	d, (hl)
   260A 79                 9880 	ld	a, c
   260B 93                 9881 	sub	a, e
   260C 5F                 9882 	ld	e, a
   260D 78                 9883 	ld	a, b
   260E 9A                 9884 	sbc	a, d
   260F 4B                 9885 	ld	c, e
   2610 47                 9886 	ld	b, a
   2611 F8 04              9887 	ldhl	sp,	#4
   2613 2A                 9888 	ld	a, (hl+)
   2614 66                 9889 	ld	h, (hl)
   2615 6F                 9890 	ld	l, a
   2616 E5                 9891 	push	hl
   2617 C5                 9892 	push	bc
   2618 CDr3Ar0B           9893 	call	_get_tile_at
   261B E8 04              9894 	add	sp, #4
   261D F8 01              9895 	ldhl	sp,	#1
   261F 73                 9896 	ld	(hl), e
                           9897 ;..\/game.c:596: if(get_tile_at((unsigned int) (hero.world_x + 2 - (movement & FACING_RIGHT)), (unsigned int) hero.world_y) > 46)
   2620 21r15r09           9898 	ld	hl, #(_hero + 0x0011) + 0
   2623 46                 9899 	ld	b, (hl)
   2624 21r14r09           9900 	ld	hl, #(_hero + 0x0010) + 0
   2627 4E                 9901 	ld	c, (hl)
   2628 21rF6r08           9902 	ld	hl, #_movement
   262B 5E                 9903 	ld	e, (hl)
   262C 16 00              9904 	ld	d, #0x00
                           9905 ;..\/game.c:598: if(get_tile_at((unsigned int) (hero.world_x + 2 - (movement & FACING_RIGHT)), (unsigned int) hero.world_y) < 64)
   262E F8 02              9906 	ldhl	sp,	#2
   2630 70                 9907 	ld	(hl), b
   2631 AF                 9908 	xor	a, a
   2632 23                 9909 	inc	hl
   2633 77                 9910 	ld	(hl), a
   2634 06 00              9911 	ld	b, #0x00
   2636 7B                 9912 	ld	a, e
   2637 E6 01              9913 	and	a, #0x01
   2639 23                 9914 	inc	hl
   263A 22                 9915 	ld	(hl+), a
   263B 36 00              9916 	ld	(hl), #0x00
                           9917 ;..\/game.c:771: set_tile_at((unsigned int) (hero.world_x + 8 - (movement & FACING_RIGHT)), (unsigned int) hero.world_y - 10, 46); // replace with empty tile
   263D 2B                 9918 	dec	hl
   263E 2B                 9919 	dec	hl
   263F 2B                 9920 	dec	hl
   2640 5E                 9921 	ld	e, (hl)
   2641 23                 9922 	inc	hl
   2642 56                 9923 	ld	d, (hl)
   2643 21 0A 00           9924 	ld	hl, #0x000a
   2646 7B                 9925 	ld	a, e
   2647 95                 9926 	sub	a, l
   2648 5F                 9927 	ld	e, a
   2649 7A                 9928 	ld	a, d
   264A 9C                 9929 	sbc	a, h
   264B F8 07              9930 	ldhl	sp,	#7
   264D 32                 9931 	ld	(hl-), a
   264E 73                 9932 	ld	(hl), e
                           9933 ;..\/game.c:831: if(get_tile_at((unsigned int) (hero.world_x + 8 - (movement & FACING_RIGHT)), (unsigned int) hero.world_y - 10) == 73)
   264F F8 01              9934 	ldhl	sp,	#1
   2651 7E                 9935 	ld	a, (hl)
   2652 D6 49              9936 	sub	a, #0x49
   2654 C2rA8r26           9937 	jp	NZ,00202$
                           9938 ;..\/game.c:833: set_tile_at((unsigned int) (hero.world_x + 8 - (movement & FACING_RIGHT)), (unsigned int) hero.world_y - 10, 46); // replace with empty tile
   2657 21 08 00           9939 	ld	hl, #0x0008
   265A 09                 9940 	add	hl, bc
   265B 4D                 9941 	ld	c, l
   265C 44                 9942 	ld	b, h
   265D F8 04              9943 	ldhl	sp,#(5 - 1)
   265F 5E                 9944 	ld	e, (hl)
   2660 23                 9945 	inc	hl
   2661 56                 9946 	ld	d, (hl)
   2662 79                 9947 	ld	a, c
   2663 93                 9948 	sub	a, e
   2664 5F                 9949 	ld	e, a
   2665 78                 9950 	ld	a, b
   2666 9A                 9951 	sbc	a, d
   2667 4B                 9952 	ld	c, e
   2668 47                 9953 	ld	b, a
   2669 21 2E 00           9954 	ld	hl, #0x002e
   266C E5                 9955 	push	hl
   266D F8 08              9956 	ldhl	sp,	#8
   266F 2A                 9957 	ld	a, (hl+)
   2670 66                 9958 	ld	h, (hl)
   2671 6F                 9959 	ld	l, a
   2672 E5                 9960 	push	hl
   2673 C5                 9961 	push	bc
   2674 CDr66r0C           9962 	call	_set_tile_at
   2677 E8 06              9963 	add	sp, #6
                           9964 ;..\/game.c:835: set_bkg_tiles(0, 0, level_width, level_height, level);
   2679 21rB3r02           9965 	ld	hl, #_level
   267C E5                 9966 	push	hl
   267D 21rF4r08           9967 	ld	hl, #_level_height
   2680 7E                 9968 	ld	a, (hl)
   2681 F5                 9969 	push	af
   2682 33                 9970 	inc	sp
   2683 21rF3r08           9971 	ld	hl, #_level_width
   2686 7E                 9972 	ld	a, (hl)
   2687 F5                 9973 	push	af
   2688 33                 9974 	inc	sp
   2689 AF                 9975 	xor	a, a
   268A F5                 9976 	push	af
   268B 33                 9977 	inc	sp
   268C AF                 9978 	xor	a, a
   268D F5                 9979 	push	af
   268E 33                 9980 	inc	sp
   268F CDr00r00           9981 	call	_set_bkg_tiles
   2692 E8 06              9982 	add	sp, #6
                           9983 ;..\/game.c:837: score += 5;
   2694 21r02r09           9984 	ld	hl, #_score
   2697 7E                 9985 	ld	a, (hl)
   2698 C6 05              9986 	add	a, #0x05
   269A 77                 9987 	ld	(hl), a
                           9988 ;..\/game.c:838: chutes++;
   269B 21r03r09           9989 	ld	hl, #_chutes
   269E 34                 9990 	inc	(hl)
                           9991 ;..\/game.c:839: update_chutes();
   269F CDr0Fr0A           9992 	call	_update_chutes
                           9993 ;..\/game.c:840: update_score();
   26A2 CDr2Fr0A           9994 	call	_update_score
   26A5 C3r96r28           9995 	jp	00203$
   26A8                    9996 00202$:
                           9997 ;..\/game.c:842: else if(get_tile_at((unsigned int) (hero.world_x + 4 - (movement & FACING_RIGHT)), (unsigned int) hero.world_y - 10) == 73)
   26A8 03                 9998 	inc	bc
   26A9 03                 9999 	inc	bc
   26AA 03                10000 	inc	bc
   26AB 03                10001 	inc	bc
   26AC F8 04             10002 	ldhl	sp,#(5 - 1)
   26AE 5E                10003 	ld	e, (hl)
   26AF 23                10004 	inc	hl
   26B0 56                10005 	ld	d, (hl)
   26B1 79                10006 	ld	a, c
   26B2 93                10007 	sub	a, e
   26B3 5F                10008 	ld	e, a
   26B4 78                10009 	ld	a, b
   26B5 9A                10010 	sbc	a, d
   26B6 4B                10011 	ld	c, e
   26B7 47                10012 	ld	b, a
   26B8 23                10013 	inc	hl
   26B9 2A                10014 	ld	a, (hl+)
   26BA 66                10015 	ld	h, (hl)
   26BB 6F                10016 	ld	l, a
   26BC E5                10017 	push	hl
   26BD C5                10018 	push	bc
   26BE CDr3Ar0B          10019 	call	_get_tile_at
   26C1 E8 04             10020 	add	sp, #4
   26C3 F8 07             10021 	ldhl	sp,	#7
   26C5 73                10022 	ld	(hl), e
                          10023 ;..\/game.c:596: if(get_tile_at((unsigned int) (hero.world_x + 2 - (movement & FACING_RIGHT)), (unsigned int) hero.world_y) > 46)
   26C6 21r15r09          10024 	ld	hl, #(_hero + 0x0011) + 0
   26C9 46                10025 	ld	b, (hl)
   26CA 21r14r09          10026 	ld	hl, #(_hero + 0x0010) + 0
   26CD 4E                10027 	ld	c, (hl)
   26CE 21rF6r08          10028 	ld	hl, #_movement
   26D1 5E                10029 	ld	e, (hl)
   26D2 16 00             10030 	ld	d, #0x00
                          10031 ;..\/game.c:598: if(get_tile_at((unsigned int) (hero.world_x + 2 - (movement & FACING_RIGHT)), (unsigned int) hero.world_y) < 64)
   26D4 F8 02             10032 	ldhl	sp,	#2
   26D6 70                10033 	ld	(hl), b
   26D7 AF                10034 	xor	a, a
   26D8 23                10035 	inc	hl
   26D9 77                10036 	ld	(hl), a
   26DA 06 00             10037 	ld	b, #0x00
   26DC 7B                10038 	ld	a, e
   26DD E6 01             10039 	and	a, #0x01
   26DF 23                10040 	inc	hl
   26E0 22                10041 	ld	(hl+), a
   26E1 36 00             10042 	ld	(hl), #0x00
                          10043 ;..\/game.c:842: else if(get_tile_at((unsigned int) (hero.world_x + 4 - (movement & FACING_RIGHT)), (unsigned int) hero.world_y - 10) == 73)
   26E3 23                10044 	inc	hl
   26E4 23                10045 	inc	hl
   26E5 7E                10046 	ld	a, (hl)
   26E6 D6 49             10047 	sub	a, #0x49
   26E8 C2r4Br27          10048 	jp	NZ,00199$
                          10049 ;..\/game.c:844: set_tile_at((unsigned int) (hero.world_x + 4 - (movement & FACING_RIGHT)), (unsigned int) hero.world_y - 10, 46); // replace with empty tile
   26EB F8 02             10050 	ldhl	sp,#(3 - 1)
   26ED 5E                10051 	ld	e, (hl)
   26EE 23                10052 	inc	hl
   26EF 56                10053 	ld	d, (hl)
   26F0 21 0A 00          10054 	ld	hl, #0x000a
   26F3 7B                10055 	ld	a, e
   26F4 95                10056 	sub	a, l
   26F5 5F                10057 	ld	e, a
   26F6 7A                10058 	ld	a, d
   26F7 9C                10059 	sbc	a, h
   26F8 F8 07             10060 	ldhl	sp,	#7
   26FA 32                10061 	ld	(hl-), a
   26FB 73                10062 	ld	(hl), e
   26FC 03                10063 	inc	bc
   26FD 03                10064 	inc	bc
   26FE 03                10065 	inc	bc
   26FF 03                10066 	inc	bc
   2700 2B                10067 	dec	hl
   2701 2B                10068 	dec	hl
   2702 5E                10069 	ld	e, (hl)
   2703 23                10070 	inc	hl
   2704 56                10071 	ld	d, (hl)
   2705 79                10072 	ld	a, c
   2706 93                10073 	sub	a, e
   2707 5F                10074 	ld	e, a
   2708 78                10075 	ld	a, b
   2709 9A                10076 	sbc	a, d
   270A 4B                10077 	ld	c, e
   270B 47                10078 	ld	b, a
   270C 21 2E 00          10079 	ld	hl, #0x002e
   270F E5                10080 	push	hl
   2710 F8 08             10081 	ldhl	sp,	#8
   2712 2A                10082 	ld	a, (hl+)
   2713 66                10083 	ld	h, (hl)
   2714 6F                10084 	ld	l, a
   2715 E5                10085 	push	hl
   2716 C5                10086 	push	bc
   2717 CDr66r0C          10087 	call	_set_tile_at
   271A E8 06             10088 	add	sp, #6
                          10089 ;..\/game.c:846: set_bkg_tiles(0, 0, level_width, level_height, level);
   271C 21rB3r02          10090 	ld	hl, #_level
   271F E5                10091 	push	hl
   2720 21rF4r08          10092 	ld	hl, #_level_height
   2723 7E                10093 	ld	a, (hl)
   2724 F5                10094 	push	af
   2725 33                10095 	inc	sp
   2726 21rF3r08          10096 	ld	hl, #_level_width
   2729 7E                10097 	ld	a, (hl)
   272A F5                10098 	push	af
   272B 33                10099 	inc	sp
   272C AF                10100 	xor	a, a
   272D F5                10101 	push	af
   272E 33                10102 	inc	sp
   272F AF                10103 	xor	a, a
   2730 F5                10104 	push	af
   2731 33                10105 	inc	sp
   2732 CDr00r00          10106 	call	_set_bkg_tiles
   2735 E8 06             10107 	add	sp, #6
                          10108 ;..\/game.c:848: score += 5;
   2737 21r02r09          10109 	ld	hl, #_score
   273A 7E                10110 	ld	a, (hl)
   273B C6 05             10111 	add	a, #0x05
   273D 77                10112 	ld	(hl), a
                          10113 ;..\/game.c:849: chutes++;
   273E 21r03r09          10114 	ld	hl, #_chutes
   2741 34                10115 	inc	(hl)
                          10116 ;..\/game.c:850: update_chutes();
   2742 CDr0Fr0A          10117 	call	_update_chutes
                          10118 ;..\/game.c:851: update_score();
   2745 CDr2Fr0A          10119 	call	_update_score
   2748 C3r96r28          10120 	jp	00203$
   274B                   10121 00199$:
                          10122 ;..\/game.c:853: else if(get_tile_at((unsigned int) (hero.world_x + 8 - (movement & FACING_RIGHT)), (unsigned int) hero.world_y - 2) == 73)
   274B F8 02             10123 	ldhl	sp,#(3 - 1)
   274D 5E                10124 	ld	e, (hl)
   274E 23                10125 	inc	hl
   274F 56                10126 	ld	d, (hl)
   2750 21 02 00          10127 	ld	hl, #0x0002
   2753 7B                10128 	ld	a, e
   2754 95                10129 	sub	a, l
   2755 5F                10130 	ld	e, a
   2756 7A                10131 	ld	a, d
   2757 9C                10132 	sbc	a, h
   2758 F8 07             10133 	ldhl	sp,	#7
   275A 32                10134 	ld	(hl-), a
   275B 73                10135 	ld	(hl), e
   275C 21 08 00          10136 	ld	hl, #0x0008
   275F 09                10137 	add	hl, bc
   2760 4D                10138 	ld	c, l
   2761 44                10139 	ld	b, h
   2762 F8 04             10140 	ldhl	sp,#(5 - 1)
   2764 5E                10141 	ld	e, (hl)
   2765 23                10142 	inc	hl
   2766 56                10143 	ld	d, (hl)
   2767 79                10144 	ld	a, c
   2768 93                10145 	sub	a, e
   2769 5F                10146 	ld	e, a
   276A 78                10147 	ld	a, b
   276B 9A                10148 	sbc	a, d
   276C 4B                10149 	ld	c, e
   276D 47                10150 	ld	b, a
   276E 23                10151 	inc	hl
   276F 2A                10152 	ld	a, (hl+)
   2770 66                10153 	ld	h, (hl)
   2771 6F                10154 	ld	l, a
   2772 E5                10155 	push	hl
   2773 C5                10156 	push	bc
   2774 CDr3Ar0B          10157 	call	_get_tile_at
   2777 E8 04             10158 	add	sp, #4
   2779 F8 01             10159 	ldhl	sp,	#1
   277B 73                10160 	ld	(hl), e
                          10161 ;..\/game.c:596: if(get_tile_at((unsigned int) (hero.world_x + 2 - (movement & FACING_RIGHT)), (unsigned int) hero.world_y) > 46)
   277C 21r15r09          10162 	ld	hl, #(_hero + 0x0011) + 0
   277F 46                10163 	ld	b, (hl)
   2780 21r14r09          10164 	ld	hl, #(_hero + 0x0010) + 0
   2783 4E                10165 	ld	c, (hl)
   2784 21rF6r08          10166 	ld	hl, #_movement
   2787 5E                10167 	ld	e, (hl)
   2788 16 00             10168 	ld	d, #0x00
                          10169 ;..\/game.c:598: if(get_tile_at((unsigned int) (hero.world_x + 2 - (movement & FACING_RIGHT)), (unsigned int) hero.world_y) < 64)
   278A F8 02             10170 	ldhl	sp,	#2
   278C 70                10171 	ld	(hl), b
   278D AF                10172 	xor	a, a
   278E 23                10173 	inc	hl
   278F 77                10174 	ld	(hl), a
   2790 06 00             10175 	ld	b, #0x00
   2792 7B                10176 	ld	a, e
   2793 E6 01             10177 	and	a, #0x01
   2795 23                10178 	inc	hl
   2796 22                10179 	ld	(hl+), a
   2797 36 00             10180 	ld	(hl), #0x00
                          10181 ;..\/game.c:799: else if(get_tile_at((unsigned int) (hero.world_x + 8 - (movement & FACING_RIGHT)), (unsigned int) hero.world_y - 2) == 72)
   2799 2B                10182 	dec	hl
   279A 2B                10183 	dec	hl
   279B 2B                10184 	dec	hl
   279C 5E                10185 	ld	e, (hl)
   279D 23                10186 	inc	hl
   279E 56                10187 	ld	d, (hl)
   279F 21 02 00          10188 	ld	hl, #0x0002
   27A2 7B                10189 	ld	a, e
   27A3 95                10190 	sub	a, l
   27A4 5F                10191 	ld	e, a
   27A5 7A                10192 	ld	a, d
   27A6 9C                10193 	sbc	a, h
   27A7 F8 07             10194 	ldhl	sp,	#7
   27A9 32                10195 	ld	(hl-), a
   27AA 73                10196 	ld	(hl), e
                          10197 ;..\/game.c:853: else if(get_tile_at((unsigned int) (hero.world_x + 8 - (movement & FACING_RIGHT)), (unsigned int) hero.world_y - 2) == 73)
   27AB F8 01             10198 	ldhl	sp,	#1
   27AD 7E                10199 	ld	a, (hl)
   27AE D6 49             10200 	sub	a, #0x49
   27B0 C2r04r28          10201 	jp	NZ,00196$
                          10202 ;..\/game.c:855: set_tile_at((unsigned int) (hero.world_x + 8 - (movement & FACING_RIGHT)), (unsigned int) hero.world_y - 2, 46); // replace with empty tile
   27B3 21 08 00          10203 	ld	hl, #0x0008
   27B6 09                10204 	add	hl, bc
   27B7 4D                10205 	ld	c, l
   27B8 44                10206 	ld	b, h
   27B9 F8 04             10207 	ldhl	sp,#(5 - 1)
   27BB 5E                10208 	ld	e, (hl)
   27BC 23                10209 	inc	hl
   27BD 56                10210 	ld	d, (hl)
   27BE 79                10211 	ld	a, c
   27BF 93                10212 	sub	a, e
   27C0 5F                10213 	ld	e, a
   27C1 78                10214 	ld	a, b
   27C2 9A                10215 	sbc	a, d
   27C3 4B                10216 	ld	c, e
   27C4 47                10217 	ld	b, a
   27C5 21 2E 00          10218 	ld	hl, #0x002e
   27C8 E5                10219 	push	hl
   27C9 F8 08             10220 	ldhl	sp,	#8
   27CB 2A                10221 	ld	a, (hl+)
   27CC 66                10222 	ld	h, (hl)
   27CD 6F                10223 	ld	l, a
   27CE E5                10224 	push	hl
   27CF C5                10225 	push	bc
   27D0 CDr66r0C          10226 	call	_set_tile_at
   27D3 E8 06             10227 	add	sp, #6
                          10228 ;..\/game.c:857: set_bkg_tiles(0, 0, level_width, level_height, level);
   27D5 21rB3r02          10229 	ld	hl, #_level
   27D8 E5                10230 	push	hl
   27D9 21rF4r08          10231 	ld	hl, #_level_height
   27DC 7E                10232 	ld	a, (hl)
   27DD F5                10233 	push	af
   27DE 33                10234 	inc	sp
   27DF 21rF3r08          10235 	ld	hl, #_level_width
   27E2 7E                10236 	ld	a, (hl)
   27E3 F5                10237 	push	af
   27E4 33                10238 	inc	sp
   27E5 AF                10239 	xor	a, a
   27E6 F5                10240 	push	af
   27E7 33                10241 	inc	sp
   27E8 AF                10242 	xor	a, a
   27E9 F5                10243 	push	af
   27EA 33                10244 	inc	sp
   27EB CDr00r00          10245 	call	_set_bkg_tiles
   27EE E8 06             10246 	add	sp, #6
                          10247 ;..\/game.c:859: score += 5;
   27F0 21r02r09          10248 	ld	hl, #_score
   27F3 7E                10249 	ld	a, (hl)
   27F4 C6 05             10250 	add	a, #0x05
   27F6 77                10251 	ld	(hl), a
                          10252 ;..\/game.c:860: chutes++;
   27F7 21r03r09          10253 	ld	hl, #_chutes
   27FA 34                10254 	inc	(hl)
                          10255 ;..\/game.c:861: update_chutes();
   27FB CDr0Fr0A          10256 	call	_update_chutes
                          10257 ;..\/game.c:862: update_score();
   27FE CDr2Fr0A          10258 	call	_update_score
   2801 C3r96r28          10259 	jp	00203$
   2804                   10260 00196$:
                          10261 ;..\/game.c:864: else if(get_tile_at((unsigned int) (hero.world_x + 4 - (movement & FACING_RIGHT)), (unsigned int) hero.world_y - 2) == 73)
   2804 03                10262 	inc	bc
   2805 03                10263 	inc	bc
   2806 03                10264 	inc	bc
   2807 03                10265 	inc	bc
   2808 F8 04             10266 	ldhl	sp,#(5 - 1)
   280A 5E                10267 	ld	e, (hl)
   280B 23                10268 	inc	hl
   280C 56                10269 	ld	d, (hl)
   280D 79                10270 	ld	a, c
   280E 93                10271 	sub	a, e
   280F 5F                10272 	ld	e, a
   2810 78                10273 	ld	a, b
   2811 9A                10274 	sbc	a, d
   2812 4B                10275 	ld	c, e
   2813 47                10276 	ld	b, a
   2814 23                10277 	inc	hl
   2815 2A                10278 	ld	a, (hl+)
   2816 66                10279 	ld	h, (hl)
   2817 6F                10280 	ld	l, a
   2818 E5                10281 	push	hl
   2819 C5                10282 	push	bc
   281A CDr3Ar0B          10283 	call	_get_tile_at
   281D E8 04             10284 	add	sp, #4
   281F 7B                10285 	ld	a, e
   2820 D6 49             10286 	sub	a, #0x49
   2822 C2r96r28          10287 	jp	NZ,00203$
                          10288 ;..\/game.c:866: set_tile_at((unsigned int) (hero.world_x + 4 - (movement & FACING_RIGHT)), (unsigned int) hero.world_y - 2, 46); // replace with empty tile
   2825 FAr15r09          10289 	ld	a, (#(_hero + 0x0011) + 0)
   2828 4F                10290 	ld	c, a
   2829 06 00             10291 	ld	b, #0x00
   282B 11 02 00          10292 	ld	de, #0x0002
   282E 79                10293 	ld	a, c
   282F 93                10294 	sub	a, e
   2830 5F                10295 	ld	e, a
   2831 78                10296 	ld	a, b
   2832 9A                10297 	sbc	a, d
   2833 F8 05             10298 	ldhl	sp,	#5
   2835 32                10299 	ld	(hl-), a
   2836 73                10300 	ld	(hl), e
   2837 FAr14r09          10301 	ld	a, (#(_hero + 0x0010) + 0)
   283A 4F                10302 	ld	c, a
   283B 06 00             10303 	ld	b, #0x00
   283D 03                10304 	inc	bc
   283E 03                10305 	inc	bc
   283F 03                10306 	inc	bc
   2840 03                10307 	inc	bc
   2841 21rF6r08          10308 	ld	hl, #_movement
   2844 5E                10309 	ld	e, (hl)
   2845 16 00             10310 	ld	d, #0x00
   2847 7B                10311 	ld	a, e
   2848 E6 01             10312 	and	a, #0x01
   284A F8 06             10313 	ldhl	sp,	#6
   284C 22                10314 	ld	(hl+), a
   284D 36 00             10315 	ld	(hl), #0x00
   284F 2B                10316 	dec	hl
   2850 5E                10317 	ld	e, (hl)
   2851 23                10318 	inc	hl
   2852 56                10319 	ld	d, (hl)
   2853 79                10320 	ld	a, c
   2854 93                10321 	sub	a, e
   2855 5F                10322 	ld	e, a
   2856 78                10323 	ld	a, b
   2857 9A                10324 	sbc	a, d
   2858 4B                10325 	ld	c, e
   2859 47                10326 	ld	b, a
   285A 21 2E 00          10327 	ld	hl, #0x002e
   285D E5                10328 	push	hl
   285E F8 06             10329 	ldhl	sp,	#6
   2860 2A                10330 	ld	a, (hl+)
   2861 66                10331 	ld	h, (hl)
   2862 6F                10332 	ld	l, a
   2863 E5                10333 	push	hl
   2864 C5                10334 	push	bc
   2865 CDr66r0C          10335 	call	_set_tile_at
   2868 E8 06             10336 	add	sp, #6
                          10337 ;..\/game.c:868: set_bkg_tiles(0, 0, level_width, level_height, level);
   286A 21rB3r02          10338 	ld	hl, #_level
   286D E5                10339 	push	hl
   286E 21rF4r08          10340 	ld	hl, #_level_height
   2871 7E                10341 	ld	a, (hl)
   2872 F5                10342 	push	af
   2873 33                10343 	inc	sp
   2874 21rF3r08          10344 	ld	hl, #_level_width
   2877 7E                10345 	ld	a, (hl)
   2878 F5                10346 	push	af
   2879 33                10347 	inc	sp
   287A AF                10348 	xor	a, a
   287B F5                10349 	push	af
   287C 33                10350 	inc	sp
   287D AF                10351 	xor	a, a
   287E F5                10352 	push	af
   287F 33                10353 	inc	sp
   2880 CDr00r00          10354 	call	_set_bkg_tiles
   2883 E8 06             10355 	add	sp, #6
                          10356 ;..\/game.c:870: score += 5;
   2885 21r02r09          10357 	ld	hl, #_score
   2888 7E                10358 	ld	a, (hl)
   2889 C6 05             10359 	add	a, #0x05
   288B 77                10360 	ld	(hl), a
                          10361 ;..\/game.c:871: chutes++;
   288C 21r03r09          10362 	ld	hl, #_chutes
   288F 34                10363 	inc	(hl)
                          10364 ;..\/game.c:872: update_chutes();
   2890 CDr0Fr0A          10365 	call	_update_chutes
                          10366 ;..\/game.c:873: update_score();
   2893 CDr2Fr0A          10367 	call	_update_score
   2896                   10368 00203$:
                          10369 ;..\/game.c:876: if(standing)
   2896 21rFCr08          10370 	ld	hl, #_standing
   2899 7E                10371 	ld	a, (hl)
   289A B7                10372 	or	a, a
   289B 28 0C             10373 	jr	Z,00205$
                          10374 ;..\/game.c:878: movement = movement & ~MOVING_VERTICALLY;
   289D 21rF6r08          10375 	ld	hl, #_movement
   28A0 7E                10376 	ld	a, (hl)
   28A1 E6 F7             10377 	and	a, #0xf7
   28A3 77                10378 	ld	(hl), a
                          10379 ;..\/game.c:879: stop();
   28A4 CDr15r15          10380 	call	_stop
   28A7 18 07             10381 	jr	00207$
   28A9                   10382 00205$:
                          10383 ;..\/game.c:883: movement = movement | MOVING_VERTICALLY;
   28A9 21rF6r08          10384 	ld	hl, #_movement
   28AC 7E                10385 	ld	a, (hl)
   28AD F6 08             10386 	or	a, #0x08
   28AF 77                10387 	ld	(hl), a
   28B0                   10388 00207$:
                          10389 ;..\/game.c:885: }
   28B0 E8 08             10390 	add	sp, #8
   28B2 C9                10391 	ret
                          10392 ;..\/game.c:887: void animate_level()
                          10393 ;	---------------------------------
                          10394 ; Function animate_level
                          10395 ; ---------------------------------
   28B3                   10396 _animate_level::
                          10397 ;..\/game.c:889: if((game_refresh + 1) & 10)
   28B3 21rF7r08          10398 	ld	hl, #_game_refresh
   28B6 4E                10399 	ld	c, (hl)
   28B7 06 00             10400 	ld	b, #0x00
   28B9 03                10401 	inc	bc
   28BA 79                10402 	ld	a, c
   28BB E6 0A             10403 	and	a, #0x0a
   28BD C8                10404 	ret	Z
                          10405 ;..\/game.c:892: switch(game_refresh + 1)
   28BE 79                10406 	ld	a, c
   28BF D6 0A             10407 	sub	a, #0x0a
   28C1 B0                10408 	or	a, b
   28C2 28 2B             10409 	jr	Z,00101$
   28C4 79                10410 	ld	a, c
   28C5 D6 14             10411 	sub	a, #0x14
   28C7 B0                10412 	or	a, b
   28C8 CAr01r29          10413 	jp	Z,00102$
   28CB 79                10414 	ld	a, c
   28CC D6 1E             10415 	sub	a, #0x1e
   28CE B0                10416 	or	a, b
   28CF CAr13r29          10417 	jp	Z,00103$
   28D2 79                10418 	ld	a, c
   28D3 D6 28             10419 	sub	a, #0x28
   28D5 B0                10420 	or	a, b
   28D6 CAr25r29          10421 	jp	Z,00104$
   28D9 79                10422 	ld	a, c
   28DA D6 32             10423 	sub	a, #0x32
   28DC B0                10424 	or	a, b
   28DD CAr4Er29          10425 	jp	Z,00107$
   28E0 79                10426 	ld	a, c
   28E1 D6 3C             10427 	sub	a, #0x3c
   28E3 B0                10428 	or	a, b
   28E4 CAr60r29          10429 	jp	Z,00108$
   28E7 79                10430 	ld	a, c
   28E8 D6 46             10431 	sub	a, #0x46
   28EA B0                10432 	or	a, b
   28EB CAr72r29          10433 	jp	Z,00109$
   28EE C9                10434 	ret
                          10435 ;..\/game.c:894: case 10:
   28EF                   10436 00101$:
                          10437 ;..\/game.c:895: set_bkg_data(64, 5, lava_tiles+80);
   28EF 21rCCr34          10438 	ld	hl, #(_lava_tiles + 0x0050)
   28F2 E5                10439 	push	hl
   28F3 3E 05             10440 	ld	a, #0x05
   28F5 F5                10441 	push	af
   28F6 33                10442 	inc	sp
   28F7 3E 40             10443 	ld	a, #0x40
   28F9 F5                10444 	push	af
   28FA 33                10445 	inc	sp
   28FB CDr00r00          10446 	call	_set_bkg_data
   28FE E8 04             10447 	add	sp, #4
                          10448 ;..\/game.c:896: break;
   2900 C9                10449 	ret
                          10450 ;..\/game.c:898: case 20:
   2901                   10451 00102$:
                          10452 ;..\/game.c:899: set_bkg_data(64, 5, lava_tiles+160);
   2901 21r1Cr35          10453 	ld	hl, #(_lava_tiles + 0x00a0)
   2904 E5                10454 	push	hl
   2905 3E 05             10455 	ld	a, #0x05
   2907 F5                10456 	push	af
   2908 33                10457 	inc	sp
   2909 3E 40             10458 	ld	a, #0x40
   290B F5                10459 	push	af
   290C 33                10460 	inc	sp
   290D CDr00r00          10461 	call	_set_bkg_data
   2910 E8 04             10462 	add	sp, #4
                          10463 ;..\/game.c:900: break;
   2912 C9                10464 	ret
                          10465 ;..\/game.c:902: case 30:
   2913                   10466 00103$:
                          10467 ;..\/game.c:903: set_bkg_data(64, 5, lava_tiles+240);
   2913 21r6Cr35          10468 	ld	hl, #(_lava_tiles + 0x00f0)
   2916 E5                10469 	push	hl
   2917 3E 05             10470 	ld	a, #0x05
   2919 F5                10471 	push	af
   291A 33                10472 	inc	sp
   291B 3E 40             10473 	ld	a, #0x40
   291D F5                10474 	push	af
   291E 33                10475 	inc	sp
   291F CDr00r00          10476 	call	_set_bkg_data
   2922 E8 04             10477 	add	sp, #4
                          10478 ;..\/game.c:904: break;
   2924 C9                10479 	ret
                          10480 ;..\/game.c:906: case 40:
   2925                   10481 00104$:
                          10482 ;..\/game.c:907: set_bkg_data(64, 5, lava_tiles+320);
   2925 21rBCr35          10483 	ld	hl, #(_lava_tiles + 0x0140)
   2928 E5                10484 	push	hl
   2929 3E 05             10485 	ld	a, #0x05
   292B F5                10486 	push	af
   292C 33                10487 	inc	sp
   292D 3E 40             10488 	ld	a, #0x40
   292F F5                10489 	push	af
   2930 33                10490 	inc	sp
   2931 CDr00r00          10491 	call	_set_bkg_data
   2934 E8 04             10492 	add	sp, #4
                          10493 ;..\/game.c:908: if(requirement_met) //the exit is flashing when the requirement has been met
   2936 21rFFr08          10494 	ld	hl, #_requirement_met
   2939 7E                10495 	ld	a, (hl)
   293A B7                10496 	or	a, a
   293B C8                10497 	ret	Z
                          10498 ;..\/game.c:910: set_bkg_data(69, 2, exit_tiles+32);
   293C 21rCCr36          10499 	ld	hl, #(_exit_tiles + 0x0020)
   293F E5                10500 	push	hl
   2940 3E 02             10501 	ld	a, #0x02
   2942 F5                10502 	push	af
   2943 33                10503 	inc	sp
   2944 3E 45             10504 	ld	a, #0x45
   2946 F5                10505 	push	af
   2947 33                10506 	inc	sp
   2948 CDr00r00          10507 	call	_set_bkg_data
   294B E8 04             10508 	add	sp, #4
                          10509 ;..\/game.c:912: break;
   294D C9                10510 	ret
                          10511 ;..\/game.c:914: case 50:
   294E                   10512 00107$:
                          10513 ;..\/game.c:915: set_bkg_data(64, 5, lava_tiles+400);
   294E 21r0Cr36          10514 	ld	hl, #(_lava_tiles + 0x0190)
   2951 E5                10515 	push	hl
   2952 3E 05             10516 	ld	a, #0x05
   2954 F5                10517 	push	af
   2955 33                10518 	inc	sp
   2956 3E 40             10519 	ld	a, #0x40
   2958 F5                10520 	push	af
   2959 33                10521 	inc	sp
   295A CDr00r00          10522 	call	_set_bkg_data
   295D E8 04             10523 	add	sp, #4
                          10524 ;..\/game.c:916: break;
   295F C9                10525 	ret
                          10526 ;..\/game.c:918: case 60:
   2960                   10527 00108$:
                          10528 ;..\/game.c:919: set_bkg_data(64, 5, lava_tiles+480);
   2960 21r5Cr36          10529 	ld	hl, #(_lava_tiles + 0x01e0)
   2963 E5                10530 	push	hl
   2964 3E 05             10531 	ld	a, #0x05
   2966 F5                10532 	push	af
   2967 33                10533 	inc	sp
   2968 3E 40             10534 	ld	a, #0x40
   296A F5                10535 	push	af
   296B 33                10536 	inc	sp
   296C CDr00r00          10537 	call	_set_bkg_data
   296F E8 04             10538 	add	sp, #4
                          10539 ;..\/game.c:920: break;
   2971 C9                10540 	ret
                          10541 ;..\/game.c:922: case 70:
   2972                   10542 00109$:
                          10543 ;..\/game.c:923: set_bkg_data(64, 5, lava_tiles);
   2972 21r7Cr34          10544 	ld	hl, #_lava_tiles
   2975 E5                10545 	push	hl
   2976 3E 05             10546 	ld	a, #0x05
   2978 F5                10547 	push	af
   2979 33                10548 	inc	sp
   297A 3E 40             10549 	ld	a, #0x40
   297C F5                10550 	push	af
   297D 33                10551 	inc	sp
   297E CDr00r00          10552 	call	_set_bkg_data
   2981 E8 04             10553 	add	sp, #4
                          10554 ;..\/game.c:924: if(requirement_met) //the exit is flashing when the requirement has been met
   2983 21rFFr08          10555 	ld	hl, #_requirement_met
   2986 7E                10556 	ld	a, (hl)
   2987 B7                10557 	or	a, a
   2988 28 11             10558 	jr	Z,00111$
                          10559 ;..\/game.c:926: set_bkg_data(69, 2, exit_tiles);
   298A 21rACr36          10560 	ld	hl, #_exit_tiles
   298D E5                10561 	push	hl
   298E 3E 02             10562 	ld	a, #0x02
   2990 F5                10563 	push	af
   2991 33                10564 	inc	sp
   2992 3E 45             10565 	ld	a, #0x45
   2994 F5                10566 	push	af
   2995 33                10567 	inc	sp
   2996 CDr00r00          10568 	call	_set_bkg_data
   2999 E8 04             10569 	add	sp, #4
   299B                   10570 00111$:
                          10571 ;..\/game.c:928: game_refresh = 0;
   299B 21rF7r08          10572 	ld	hl, #_game_refresh
   299E 36 00             10573 	ld	(hl), #0x00
                          10574 ;..\/game.c:930: }
                          10575 ;..\/game.c:932: }
   29A0 C9                10576 	ret
                          10577 ;..\/game.c:934: void movement_update()
                          10578 ;	---------------------------------
                          10579 ; Function movement_update
                          10580 ; ---------------------------------
   29A1                   10581 _movement_update::
                          10582 ;..\/game.c:936: if(joypad() & J_LEFT)    
   29A1 CDr00r00          10583 	call	_joypad
   29A4 CB 4B             10584 	bit	1, e
   29A6 28 03             10585 	jr	Z,00102$
                          10586 ;..\/game.c:938: walk_left();
   29A8 CDr94r0E          10587 	call	_walk_left
   29AB                   10588 00102$:
                          10589 ;..\/game.c:941: if(joypad() & J_RIGHT)  
   29AB CDr00r00          10590 	call	_joypad
   29AE 7B                10591 	ld	a, e
   29AF 0F                10592 	rrca
   29B0 30 03             10593 	jr	NC,00104$
                          10594 ;..\/game.c:943: walk_right();
   29B2 CDrA8r10          10595 	call	_walk_right
   29B5                   10596 00104$:
                          10597 ;..\/game.c:946: if(movement & MOVING_VERTICALLY)
   29B5 21rF6r08          10598 	ld	hl, #_movement
   29B8 7E                10599 	ld	a, (hl)
   29B9 CB 5F             10600 	bit	3, a
   29BB 28 38             10601 	jr	Z,00114$
                          10602 ;..\/game.c:949: if(chutes > 0 && key_down(J_B))
   29BD 21r03r09          10603 	ld	hl, #_chutes
   29C0 7E                10604 	ld	a, (hl)
   29C1 B7                10605 	or	a, a
   29C2 28 1F             10606 	jr	Z,00106$
   29C4 3E 20             10607 	ld	a, #0x20
   29C6 F5                10608 	push	af
   29C7 33                10609 	inc	sp
   29C8 CDr00r00          10610 	call	_key_down
   29CB 33                10611 	inc	sp
   29CC 7B                10612 	ld	a, e
   29CD B7                10613 	or	a, a
   29CE 28 13             10614 	jr	Z,00106$
                          10615 ;..\/game.c:951: chutes--;
   29D0 21r03r09          10616 	ld	hl, #_chutes
   29D3 35                10617 	dec	(hl)
                          10618 ;..\/game.c:952: update_chutes();
   29D4 CDr0Fr0A          10619 	call	_update_chutes
                          10620 ;..\/game.c:953: movement = movement & ~JUMPING;
   29D7 21rF6r08          10621 	ld	hl, #_movement
   29DA 7E                10622 	ld	a, (hl)
   29DB E6 FD             10623 	and	a, #0xfd
   29DD 77                10624 	ld	(hl), a
                          10625 ;..\/game.c:954: gravity = 1;
   29DE 21rF5r08          10626 	ld	hl, #_gravity
   29E1 36 01             10627 	ld	(hl), #0x01
   29E3                   10628 00106$:
                          10629 ;..\/game.c:957: if(movement & JUMPING)
   29E3 21rF6r08          10630 	ld	hl, #_movement
   29E6 7E                10631 	ld	a, (hl)
   29E7 CB 4F             10632 	bit	1, a
   29E9 28 05             10633 	jr	Z,00109$
                          10634 ;..\/game.c:959: jump();
   29EB CDrE1r12          10635 	call	_jump
   29EE 18 1B             10636 	jr	00115$
   29F0                   10637 00109$:
                          10638 ;..\/game.c:963: fall();
   29F0 CDr4Dr14          10639 	call	_fall
   29F3 18 16             10640 	jr	00115$
   29F5                   10641 00114$:
                          10642 ;..\/game.c:966: else if(key_down(J_A))
   29F5 3E 10             10643 	ld	a, #0x10
   29F7 F5                10644 	push	af
   29F8 33                10645 	inc	sp
   29F9 CDr00r00          10646 	call	_key_down
   29FC 33                10647 	inc	sp
   29FD 7B                10648 	ld	a, e
   29FE B7                10649 	or	a, a
   29FF 28 0A             10650 	jr	Z,00115$
                          10651 ;..\/game.c:968: movement = movement | MOVING_VERTICALLY | JUMPING;
   2A01 21rF6r08          10652 	ld	hl, #_movement
   2A04 7E                10653 	ld	a, (hl)
   2A05 F6 0A             10654 	or	a, #0x0a
   2A07 77                10655 	ld	(hl), a
                          10656 ;..\/game.c:969: jump();
   2A08 CDrE1r12          10657 	call	_jump
   2A0B                   10658 00115$:
                          10659 ;..\/game.c:973: if((movement >> 4) != (movement & (MOVING_VERTICALLY | MOVING_HORIZONTALLY | JUMPING | FACING_RIGHT)))
   2A0B 21rF6r08          10660 	ld	hl, #_movement
   2A0E 7E                10661 	ld	a, (hl)
   2A0F CB 37             10662 	swap	a
   2A11 E6 0F             10663 	and	a, #0x0f
   2A13 F5                10664 	push	af
   2A14 7E                10665 	ld	a, (hl)
   2A15 E6 0F             10666 	and	a, #0x0f
   2A17 4F                10667 	ld	c, a
   2A18 F1                10668 	pop	af
   2A19 91                10669 	sub	a, c
   2A1A 28 08             10670 	jr	Z,00117$
                          10671 ;..\/game.c:976: walking_refresh = 3;
   2A1C 21rF8r08          10672 	ld	hl, #_walking_refresh
   2A1F 36 03             10673 	ld	(hl), #0x03
                          10674 ;..\/game.c:977: stop();
   2A21 CDr15r15          10675 	call	_stop
   2A24                   10676 00117$:
                          10677 ;..\/game.c:981: movement = (movement << 4) + (movement & (MOVING_VERTICALLY | JUMPING | FACING_RIGHT));
   2A24 21rF6r08          10678 	ld	hl, #_movement
   2A27 7E                10679 	ld	a, (hl)
   2A28 CB 37             10680 	swap	a
   2A2A E6 F0             10681 	and	a, #0xf0
   2A2C 4F                10682 	ld	c, a
   2A2D 7E                10683 	ld	a, (hl)
   2A2E E6 0B             10684 	and	a, #0x0b
   2A30 81                10685 	add	a, c
   2A31 77                10686 	ld	(hl), a
                          10687 ;..\/game.c:982: }
   2A32 C9                10688 	ret
                          10689 ;..\/game.c:984: void game_update()
                          10690 ;	---------------------------------
                          10691 ; Function game_update
                          10692 ; ---------------------------------
   2A33                   10693 _game_update::
                          10694 ;..\/game.c:986: check_collisions();
   2A33 CDr80r18          10695 	call	_check_collisions
                          10696 ;..\/game.c:987: movement_update();
   2A36 CDrA1r29          10697 	call	_movement_update
                          10698 ;..\/game.c:988: if((game_refresh + 1) % 2 == 0)
   2A39 21rF7r08          10699 	ld	hl, #_game_refresh
   2A3C 4E                10700 	ld	c, (hl)
   2A3D 06 00             10701 	ld	b, #0x00
   2A3F 03                10702 	inc	bc
   2A40 21 02 00          10703 	ld	hl, #0x0002
   2A43 E5                10704 	push	hl
   2A44 C5                10705 	push	bc
   2A45 CDr00r00          10706 	call	__modsint
   2A48 E8 04             10707 	add	sp, #4
   2A4A 7A                10708 	ld	a, d
   2A4B B3                10709 	or	a, e
   2A4C 20 03             10710 	jr	NZ,00102$
                          10711 ;..\/game.c:990: move_bubbles();
   2A4E CDr72r0E          10712 	call	_move_bubbles
   2A51                   10713 00102$:
                          10714 ;..\/game.c:992: animate_level();
   2A51 CDrB3r28          10715 	call	_animate_level
                          10716 ;..\/game.c:993: game_refresh++;
   2A54 21rF7r08          10717 	ld	hl, #_game_refresh
   2A57 34                10718 	inc	(hl)
                          10719 ;..\/game.c:994: }
   2A58 C9                10720 	ret
                          10721 ;..\/graphics.c:7: void vbl_wait(UINT8 frames)
                          10722 ;	---------------------------------
                          10723 ; Function vbl_wait
                          10724 ; ---------------------------------
   2A59                   10725 _vbl_wait::
   2A59 E8 FE             10726 	add	sp, #-2
                          10727 ;..\/graphics.c:9: for(int i = 0; i < frames; i++)
   2A5B 01 00 00          10728 	ld	bc, #0x0000
   2A5E                   10729 00103$:
   2A5E F8 04             10730 	ldhl	sp,	#4
   2A60 7E                10731 	ld	a, (hl)
   2A61 F8 00             10732 	ldhl	sp,	#0
   2A63 77                10733 	ld	(hl), a
   2A64 AF                10734 	xor	a, a
   2A65 23                10735 	inc	hl
   2A66 32                10736 	ld	(hl-), a
   2A67 79                10737 	ld	a, c
   2A68 96                10738 	sub	a, (hl)
   2A69 23                10739 	inc	hl
   2A6A 78                10740 	ld	a, b
   2A6B 9E                10741 	sbc	a, (hl)
   2A6C 78                10742 	ld	a, b
   2A6D 57                10743 	ld	d, a
   2A6E 5E                10744 	ld	e, (hl)
   2A6F CB 7B             10745 	bit	7, e
   2A71 28 07             10746 	jr	Z,00118$
   2A73 CB 7A             10747 	bit	7, d
   2A75 20 08             10748 	jr	NZ,00119$
   2A77 BF                10749 	cp	a, a
   2A78 18 05             10750 	jr	00119$
   2A7A                   10751 00118$:
   2A7A CB 7A             10752 	bit	7, d
   2A7C 28 01             10753 	jr	Z,00119$
   2A7E 37                10754 	scf
   2A7F                   10755 00119$:
   2A7F 30 08             10756 	jr	NC,00105$
                          10757 ;..\/graphics.c:11: wait_vbl_done();
   2A81 C5                10758 	push	bc
   2A82 CDr00r00          10759 	call	_wait_vbl_done
   2A85 C1                10760 	pop	bc
                          10761 ;..\/graphics.c:9: for(int i = 0; i < frames; i++)
   2A86 03                10762 	inc	bc
   2A87 18 D5             10763 	jr	00103$
   2A89                   10764 00105$:
                          10765 ;..\/graphics.c:13: }
   2A89 E8 02             10766 	add	sp, #2
   2A8B C9                10767 	ret
                          10768 ;..\/graphics.c:15: void fade_to_black(UINT8 interval)
                          10769 ;	---------------------------------
                          10770 ; Function fade_to_black
                          10771 ; ---------------------------------
   2A8C                   10772 _fade_to_black::
                          10773 ;..\/graphics.c:17: if(effects_refresh + 1 == interval)
   2A8C 21r2Dr09          10774 	ld	hl, #_effects_refresh
   2A8F 4E                10775 	ld	c, (hl)
   2A90 06 00             10776 	ld	b, #0x00
   2A92 03                10777 	inc	bc
   2A93 F8 02             10778 	ldhl	sp,	#2
   2A95 5E                10779 	ld	e, (hl)
   2A96 16 00             10780 	ld	d, #0x00
   2A98 7B                10781 	ld	a, e
   2A99 91                10782 	sub	a, c
   2A9A C2rE1r2A          10783 	jp	NZ,00106$
   2A9D 7A                10784 	ld	a, d
   2A9E 90                10785 	sub	a, b
   2A9F 20 40             10786 	jr	NZ,00106$
                          10787 ;..\/graphics.c:19: switch(BGP_REG)
   2AA1 F0r00             10788 	ldh	a, (_BGP_REG+0)
   2AA3 FE E4             10789 	cp	a, #0xe4
   2AA5 28 0A             10790 	jr	Z,00101$
   2AA7 FE F9             10791 	cp	a, #0xf9
   2AA9 28 15             10792 	jr	Z,00102$
   2AAB D6 FE             10793 	sub	a, #0xfe
   2AAD 28 20             10794 	jr	Z,00103$
   2AAF 18 30             10795 	jr	00106$
                          10796 ;..\/graphics.c:21: case 0b11100100:
   2AB1                   10797 00101$:
                          10798 ;..\/graphics.c:22: BGP_REG = 0b11111001;
   2AB1 3E F9             10799 	ld	a, #0xf9
   2AB3 E0r00             10800 	ldh	(_BGP_REG+0),a
                          10801 ;..\/graphics.c:23: OBP0_REG = 0b11110001;
   2AB5 3E F1             10802 	ld	a, #0xf1
   2AB7 E0r00             10803 	ldh	(_OBP0_REG+0),a
                          10804 ;..\/graphics.c:24: effects_refresh = 0;
   2AB9 21r2Dr09          10805 	ld	hl, #_effects_refresh
   2ABC 36 00             10806 	ld	(hl), #0x00
                          10807 ;..\/graphics.c:25: break;
   2ABE 18 21             10808 	jr	00106$
                          10809 ;..\/graphics.c:27: case 0b11111001:
   2AC0                   10810 00102$:
                          10811 ;..\/graphics.c:28: BGP_REG = 0b11111110;
   2AC0 3E FE             10812 	ld	a, #0xfe
   2AC2 E0r00             10813 	ldh	(_BGP_REG+0),a
                          10814 ;..\/graphics.c:29: OBP0_REG = 0b11111101;
   2AC4 3E FD             10815 	ld	a, #0xfd
   2AC6 E0r00             10816 	ldh	(_OBP0_REG+0),a
                          10817 ;..\/graphics.c:30: effects_refresh = 0;
   2AC8 21r2Dr09          10818 	ld	hl, #_effects_refresh
   2ACB 36 00             10819 	ld	(hl), #0x00
                          10820 ;..\/graphics.c:31: break;
   2ACD 18 12             10821 	jr	00106$
                          10822 ;..\/graphics.c:33: case 0b11111110:
   2ACF                   10823 00103$:
                          10824 ;..\/graphics.c:34: BGP_REG = 0b11111111;
   2ACF 3E FF             10825 	ld	a, #0xff
   2AD1 E0r00             10826 	ldh	(_BGP_REG+0),a
                          10827 ;..\/graphics.c:35: OBP0_REG = 0b11111101;				
   2AD3 3E FD             10828 	ld	a, #0xfd
   2AD5 E0r00             10829 	ldh	(_OBP0_REG+0),a
                          10830 ;..\/graphics.c:36: effects_refresh = 0;
   2AD7 21r2Dr09          10831 	ld	hl, #_effects_refresh
   2ADA 36 00             10832 	ld	(hl), #0x00
                          10833 ;..\/graphics.c:37: faded_out = TRUE;
   2ADC 21r2Er09          10834 	ld	hl, #_faded_out
   2ADF 36 01             10835 	ld	(hl), #0x01
                          10836 ;..\/graphics.c:39: }
   2AE1                   10837 00106$:
                          10838 ;..\/graphics.c:41: effects_refresh++;
   2AE1 21r2Dr09          10839 	ld	hl, #_effects_refresh
   2AE4 34                10840 	inc	(hl)
                          10841 ;..\/graphics.c:42: }
   2AE5 C9                10842 	ret
                          10843 ;..\/graphics.c:44: void fade_from_black(UINT8 interval)
                          10844 ;	---------------------------------
                          10845 ; Function fade_from_black
                          10846 ; ---------------------------------
   2AE6                   10847 _fade_from_black::
                          10848 ;..\/graphics.c:46: if(effects_refresh + 1 == interval)
   2AE6 21r2Dr09          10849 	ld	hl, #_effects_refresh
   2AE9 4E                10850 	ld	c, (hl)
   2AEA 06 00             10851 	ld	b, #0x00
   2AEC 03                10852 	inc	bc
   2AED F8 02             10853 	ldhl	sp,	#2
   2AEF 5E                10854 	ld	e, (hl)
   2AF0 16 00             10855 	ld	d, #0x00
   2AF2 7B                10856 	ld	a, e
   2AF3 91                10857 	sub	a, c
   2AF4 C2r38r2B          10858 	jp	NZ,00106$
   2AF7 7A                10859 	ld	a, d
   2AF8 90                10860 	sub	a, b
   2AF9 20 3D             10861 	jr	NZ,00106$
                          10862 ;..\/graphics.c:48: switch(BGP_REG)
   2AFB F0r00             10863 	ldh	a, (_BGP_REG+0)
   2AFD FE F9             10864 	cp	a, #0xf9
   2AFF 28 25             10865 	jr	Z,00103$
   2B01 FE FE             10866 	cp	a, #0xfe
   2B03 28 12             10867 	jr	Z,00102$
   2B05 3C                10868 	inc	a
   2B06 20 30             10869 	jr	NZ,00106$
                          10870 ;..\/graphics.c:51: BGP_REG = 0b11111110;
   2B08 3E FE             10871 	ld	a, #0xfe
   2B0A E0r00             10872 	ldh	(_BGP_REG+0),a
                          10873 ;..\/graphics.c:52: OBP0_REG = 0b11111101;
   2B0C 3E FD             10874 	ld	a, #0xfd
   2B0E E0r00             10875 	ldh	(_OBP0_REG+0),a
                          10876 ;..\/graphics.c:53: effects_refresh = 0;
   2B10 21r2Dr09          10877 	ld	hl, #_effects_refresh
   2B13 36 00             10878 	ld	(hl), #0x00
                          10879 ;..\/graphics.c:54: break;
   2B15 18 21             10880 	jr	00106$
                          10881 ;..\/graphics.c:56: case 0b11111110:
   2B17                   10882 00102$:
                          10883 ;..\/graphics.c:57: BGP_REG = 0b11111001;
   2B17 3E F9             10884 	ld	a, #0xf9
   2B19 E0r00             10885 	ldh	(_BGP_REG+0),a
                          10886 ;..\/graphics.c:58: OBP0_REG = 0b11111001;
   2B1B 3E F9             10887 	ld	a, #0xf9
   2B1D E0r00             10888 	ldh	(_OBP0_REG+0),a
                          10889 ;..\/graphics.c:59: effects_refresh = 0;
   2B1F 21r2Dr09          10890 	ld	hl, #_effects_refresh
   2B22 36 00             10891 	ld	(hl), #0x00
                          10892 ;..\/graphics.c:60: break;
   2B24 18 12             10893 	jr	00106$
                          10894 ;..\/graphics.c:62: case 0b11111001:
   2B26                   10895 00103$:
                          10896 ;..\/graphics.c:63: BGP_REG = 0b11100100;
   2B26 3E E4             10897 	ld	a, #0xe4
   2B28 E0r00             10898 	ldh	(_BGP_REG+0),a
                          10899 ;..\/graphics.c:64: OBP0_REG = 0b11100001;
   2B2A 3E E1             10900 	ld	a, #0xe1
   2B2C E0r00             10901 	ldh	(_OBP0_REG+0),a
                          10902 ;..\/graphics.c:65: effects_refresh = 0;
   2B2E 21r2Dr09          10903 	ld	hl, #_effects_refresh
   2B31 36 00             10904 	ld	(hl), #0x00
                          10905 ;..\/graphics.c:66: faded_out = FALSE;
   2B33 21r2Er09          10906 	ld	hl, #_faded_out
   2B36 36 00             10907 	ld	(hl), #0x00
                          10908 ;..\/graphics.c:68: }
   2B38                   10909 00106$:
                          10910 ;..\/graphics.c:70: effects_refresh++;
   2B38 21r2Dr09          10911 	ld	hl, #_effects_refresh
   2B3B 34                10912 	inc	(hl)
                          10913 ;..\/graphics.c:71: }
   2B3C C9                10914 	ret
                          10915 ;..\/graphics.c:73: void fade_to_white(UINT8 interval)
                          10916 ;	---------------------------------
                          10917 ; Function fade_to_white
                          10918 ; ---------------------------------
   2B3D                   10919 _fade_to_white::
                          10920 ;..\/graphics.c:75: if(effects_refresh + 1 == interval)
   2B3D 21r2Dr09          10921 	ld	hl, #_effects_refresh
   2B40 4E                10922 	ld	c, (hl)
   2B41 06 00             10923 	ld	b, #0x00
   2B43 03                10924 	inc	bc
   2B44 F8 02             10925 	ldhl	sp,	#2
   2B46 5E                10926 	ld	e, (hl)
   2B47 16 00             10927 	ld	d, #0x00
   2B49 7B                10928 	ld	a, e
   2B4A 91                10929 	sub	a, c
   2B4B 20 3E             10930 	jr	NZ,00106$
   2B4D 7A                10931 	ld	a, d
   2B4E 90                10932 	sub	a, b
   2B4F 20 3A             10933 	jr	NZ,00106$
                          10934 ;..\/graphics.c:77: switch(BGP_REG)
   2B51 F0r00             10935 	ldh	a, (_BGP_REG+0)
   2B53 FE 40             10936 	cp	a, #0x40
   2B55 28 26             10937 	jr	Z,00103$
   2B57 FE 90             10938 	cp	a, #0x90
   2B59 28 13             10939 	jr	Z,00102$
   2B5B D6 E4             10940 	sub	a, #0xe4
   2B5D 20 2C             10941 	jr	NZ,00106$
                          10942 ;..\/graphics.c:80: BGP_REG = 0b10010000;
   2B5F 3E 90             10943 	ld	a, #0x90
   2B61 E0r00             10944 	ldh	(_BGP_REG+0),a
                          10945 ;..\/graphics.c:81: OBP0_REG = 0b10000001;
   2B63 3E 81             10946 	ld	a, #0x81
   2B65 E0r00             10947 	ldh	(_OBP0_REG+0),a
                          10948 ;..\/graphics.c:82: effects_refresh = 0;
   2B67 21r2Dr09          10949 	ld	hl, #_effects_refresh
   2B6A 36 00             10950 	ld	(hl), #0x00
                          10951 ;..\/graphics.c:83: break;
   2B6C 18 1D             10952 	jr	00106$
                          10953 ;..\/graphics.c:85: case 0b10010000:
   2B6E                   10954 00102$:
                          10955 ;..\/graphics.c:86: BGP_REG = 0b01000000;
   2B6E 3E 40             10956 	ld	a, #0x40
   2B70 E0r00             10957 	ldh	(_BGP_REG+0),a
                          10958 ;..\/graphics.c:87: OBP0_REG = 0b00000001;
   2B72 3E 01             10959 	ld	a, #0x01
   2B74 E0r00             10960 	ldh	(_OBP0_REG+0),a
                          10961 ;..\/graphics.c:88: effects_refresh = 0;
   2B76 21r2Dr09          10962 	ld	hl, #_effects_refresh
   2B79 36 00             10963 	ld	(hl), #0x00
                          10964 ;..\/graphics.c:89: break;
   2B7B 18 0E             10965 	jr	00106$
                          10966 ;..\/graphics.c:91: case 0b01000000:
   2B7D                   10967 00103$:
                          10968 ;..\/graphics.c:92: BGP_REG = 0b00000000;				
   2B7D 3E 00             10969 	ld	a, #0x00
   2B7F E0r00             10970 	ldh	(_BGP_REG+0),a
                          10971 ;..\/graphics.c:93: effects_refresh = 0;
   2B81 21r2Dr09          10972 	ld	hl, #_effects_refresh
   2B84 36 00             10973 	ld	(hl), #0x00
                          10974 ;..\/graphics.c:94: faded_out = TRUE;
   2B86 21r2Er09          10975 	ld	hl, #_faded_out
   2B89 36 01             10976 	ld	(hl), #0x01
                          10977 ;..\/graphics.c:96: }
   2B8B                   10978 00106$:
                          10979 ;..\/graphics.c:98: effects_refresh++;
   2B8B 21r2Dr09          10980 	ld	hl, #_effects_refresh
   2B8E 34                10981 	inc	(hl)
                          10982 ;..\/graphics.c:99: }
   2B8F C9                10983 	ret
                          10984 ;..\/graphics.c:101: void fade_from_white(UINT8 interval)
                          10985 ;	---------------------------------
                          10986 ; Function fade_from_white
                          10987 ; ---------------------------------
   2B90                   10988 _fade_from_white::
                          10989 ;..\/graphics.c:103: if(effects_refresh + 1 == interval)
   2B90 21r2Dr09          10990 	ld	hl, #_effects_refresh
   2B93 4E                10991 	ld	c, (hl)
   2B94 06 00             10992 	ld	b, #0x00
   2B96 03                10993 	inc	bc
   2B97 F8 02             10994 	ldhl	sp,	#2
   2B99 5E                10995 	ld	e, (hl)
   2B9A 16 00             10996 	ld	d, #0x00
   2B9C 7B                10997 	ld	a, e
   2B9D 91                10998 	sub	a, c
   2B9E C2rE4r2B          10999 	jp	NZ,00106$
   2BA1 7A                11000 	ld	a, d
   2BA2 90                11001 	sub	a, b
   2BA3 20 3F             11002 	jr	NZ,00106$
                          11003 ;..\/graphics.c:105: switch(BGP_REG)
   2BA5 F0r00             11004 	ldh	a, (_BGP_REG+0)
   2BA7 B7                11005 	or	a, a
   2BA8 28 0A             11006 	jr	Z,00101$
   2BAA FE 40             11007 	cp	a, #0x40
   2BAC 28 15             11008 	jr	Z,00102$
   2BAE D6 90             11009 	sub	a, #0x90
   2BB0 28 20             11010 	jr	Z,00103$
   2BB2 18 30             11011 	jr	00106$
                          11012 ;..\/graphics.c:107: case 0b00000000:
   2BB4                   11013 00101$:
                          11014 ;..\/graphics.c:108: BGP_REG = 0b01000000;
   2BB4 3E 40             11015 	ld	a, #0x40
   2BB6 E0r00             11016 	ldh	(_BGP_REG+0),a
                          11017 ;..\/graphics.c:109: OBP0_REG = 0b00000001;
   2BB8 3E 01             11018 	ld	a, #0x01
   2BBA E0r00             11019 	ldh	(_OBP0_REG+0),a
                          11020 ;..\/graphics.c:110: effects_refresh = 0;
   2BBC 21r2Dr09          11021 	ld	hl, #_effects_refresh
   2BBF 36 00             11022 	ld	(hl), #0x00
                          11023 ;..\/graphics.c:111: break;
   2BC1 18 21             11024 	jr	00106$
                          11025 ;..\/graphics.c:113: case 0b01000000:
   2BC3                   11026 00102$:
                          11027 ;..\/graphics.c:114: BGP_REG = 0b10010000;
   2BC3 3E 90             11028 	ld	a, #0x90
   2BC5 E0r00             11029 	ldh	(_BGP_REG+0),a
                          11030 ;..\/graphics.c:115: OBP0_REG = 0b10000001;
   2BC7 3E 81             11031 	ld	a, #0x81
   2BC9 E0r00             11032 	ldh	(_OBP0_REG+0),a
                          11033 ;..\/graphics.c:116: effects_refresh = 0;
   2BCB 21r2Dr09          11034 	ld	hl, #_effects_refresh
   2BCE 36 00             11035 	ld	(hl), #0x00
                          11036 ;..\/graphics.c:117: break;
   2BD0 18 12             11037 	jr	00106$
                          11038 ;..\/graphics.c:119: case 0b10010000:
   2BD2                   11039 00103$:
                          11040 ;..\/graphics.c:120: BGP_REG = 0b11100100;
   2BD2 3E E4             11041 	ld	a, #0xe4
   2BD4 E0r00             11042 	ldh	(_BGP_REG+0),a
                          11043 ;..\/graphics.c:121: OBP0_REG = 0b11100001;				
   2BD6 3E E1             11044 	ld	a, #0xe1
   2BD8 E0r00             11045 	ldh	(_OBP0_REG+0),a
                          11046 ;..\/graphics.c:122: effects_refresh = 0;
   2BDA 21r2Dr09          11047 	ld	hl, #_effects_refresh
   2BDD 36 00             11048 	ld	(hl), #0x00
                          11049 ;..\/graphics.c:123: faded_out = FALSE;
   2BDF 21r2Er09          11050 	ld	hl, #_faded_out
   2BE2 36 00             11051 	ld	(hl), #0x00
                          11052 ;..\/graphics.c:125: }
   2BE4                   11053 00106$:
                          11054 ;..\/graphics.c:127: effects_refresh++;
   2BE4 21r2Dr09          11055 	ld	hl, #_effects_refresh
   2BE7 34                11056 	inc	(hl)
                          11057 ;..\/graphics.c:128: }
   2BE8 C9                11058 	ret
                          11059 ;..\main.c:15: void main()
                          11060 ;	---------------------------------
                          11061 ; Function main
                          11062 ; ---------------------------------
   2BE9                   11063 _main::
   2BE9 E8 F8             11064 	add	sp, #-8
                          11065 ;..\main.c:17: DISPLAY_ON;
   2BEB F0r00             11066 	ldh	a, (_LCDC_REG+0)
   2BED F6 80             11067 	or	a, #0x80
   2BEF E0r00             11068 	ldh	(_LCDC_REG+0),a
                          11069 ;..\main.c:20: STAT_REG = 0x44;
   2BF1 3E 44             11070 	ld	a, #0x44
   2BF3 E0r00             11071 	ldh	(_STAT_REG+0),a
                          11072 ;..\main.c:23: set_win_data(0, 46, hud_tiles);
   2BF5 21rDCr2F          11073 	ld	hl, #_hud_tiles
   2BF8 E5                11074 	push	hl
   2BF9 3E 2E             11075 	ld	a, #0x2e
   2BFB F5                11076 	push	af
   2BFC 33                11077 	inc	sp
   2BFD AF                11078 	xor	a, a
   2BFE F5                11079 	push	af
   2BFF 33                11080 	inc	sp
   2C00 CDr00r00          11081 	call	_set_win_data
   2C03 E8 04             11082 	add	sp, #4
                          11083 ;..\main.c:25: faded_out = FALSE;
   2C05 21r2Er09          11084 	ld	hl, #_faded_out
   2C08 36 00             11085 	ld	(hl), #0x00
                          11086 ;..\main.c:27: while(1)
   2C0A                   11087 00138$:
                          11088 ;..\main.c:29: switch(scene)
   2C0A 21r2Cr09          11089 	ld	hl, #_scene
   2C0D 7E                11090 	ld	a, (hl)
   2C0E B7                11091 	or	a, a
   2C0F 28 13             11092 	jr	Z,00101$
   2C11 21r2Cr09          11093 	ld	hl, #_scene
   2C14 7E                11094 	ld	a, (hl)
   2C15 3D                11095 	dec	a
   2C16 CAr3Cr2D          11096 	jp	Z,00114$
   2C19 21r2Cr09          11097 	ld	hl, #_scene
   2C1C 7E                11098 	ld	a, (hl)
   2C1D D6 02             11099 	sub	a, #0x02
   2C1F CArA3r2F          11100 	jp	Z,00130$
   2C22 18 E6             11101 	jr	00138$
                          11102 ;..\main.c:31: case TITLE:
   2C24                   11103 00101$:
                          11104 ;..\main.c:33: LYC_REG = 143;
   2C24 3E 8F             11105 	ld	a, #0x8f
   2C26 E0r00             11106 	ldh	(_LYC_REG+0),a
                          11107 ;..\main.c:35: disable_interrupts();
   2C28 CDr00r00          11108 	call	_disable_interrupts
                          11109 ;..\main.c:36: add_LCD(menu_LCD);
   2C2B 21r2Cr00          11110 	ld	hl, #_menu_LCD
   2C2E E5                11111 	push	hl
   2C2F CDr00r00          11112 	call	_add_LCD
   2C32 E8 02             11113 	add	sp, #2
                          11114 ;..\main.c:37: add_VBL(menu_VBL);
   2C34 21r55r00          11115 	ld	hl, #_menu_VBL
   2C37 E5                11116 	push	hl
   2C38 CDr00r00          11117 	call	_add_VBL
   2C3B E8 02             11118 	add	sp, #2
                          11119 ;..\main.c:38: enable_interrupts();
   2C3D CDr00r00          11120 	call	_enable_interrupts
                          11121 ;..\main.c:39: set_interrupts(VBL_IFLAG | LCD_IFLAG);
   2C40 3E 03             11122 	ld	a, #0x03
   2C42 F5                11123 	push	af
   2C43 33                11124 	inc	sp
   2C44 CDr00r00          11125 	call	_set_interrupts
   2C47 33                11126 	inc	sp
                          11127 ;..\main.c:42: set_win_tiles(0, 0, 20, 3, title_win);
   2C48 21r18r04          11128 	ld	hl, #_title_win
   2C4B E5                11129 	push	hl
   2C4C 3E 03             11130 	ld	a, #0x03
   2C4E F5                11131 	push	af
   2C4F 33                11132 	inc	sp
   2C50 3E 14             11133 	ld	a, #0x14
   2C52 F5                11134 	push	af
   2C53 33                11135 	inc	sp
   2C54 AF                11136 	xor	a, a
   2C55 F5                11137 	push	af
   2C56 33                11138 	inc	sp
   2C57 AF                11139 	xor	a, a
   2C58 F5                11140 	push	af
   2C59 33                11141 	inc	sp
   2C5A CDr00r00          11142 	call	_set_win_tiles
   2C5D E8 06             11143 	add	sp, #6
                          11144 ;..\main.c:43: set_bkg_data(46, 10, title_tiles);
   2C5F 21r2Fr09          11145 	ld	hl, #_title_tiles
   2C62 E5                11146 	push	hl
   2C63 3E 0A             11147 	ld	a, #0x0a
   2C65 F5                11148 	push	af
   2C66 33                11149 	inc	sp
   2C67 3E 2E             11150 	ld	a, #0x2e
   2C69 F5                11151 	push	af
   2C6A 33                11152 	inc	sp
   2C6B CDr00r00          11153 	call	_set_bkg_data
   2C6E E8 04             11154 	add	sp, #4
                          11155 ;..\main.c:44: set_bkg_tiles(0, 0, 20, 32, title_bkg);
   2C70 21r98r01          11156 	ld	hl, #_title_bkg
   2C73 E5                11157 	push	hl
   2C74 3E 20             11158 	ld	a, #0x20
   2C76 F5                11159 	push	af
   2C77 33                11160 	inc	sp
   2C78 3E 14             11161 	ld	a, #0x14
   2C7A F5                11162 	push	af
   2C7B 33                11163 	inc	sp
   2C7C AF                11164 	xor	a, a
   2C7D F5                11165 	push	af
   2C7E 33                11166 	inc	sp
   2C7F AF                11167 	xor	a, a
   2C80 F5                11168 	push	af
   2C81 33                11169 	inc	sp
   2C82 CDr00r00          11170 	call	_set_bkg_tiles
   2C85 E8 06             11171 	add	sp, #6
                          11172 ;..\main.c:46: move_win(7, 40);
   2C87 3E 28             11173 	ld	a, #0x28
   2C89 F5                11174 	push	af
   2C8A 33                11175 	inc	sp
   2C8B 3E 07             11176 	ld	a, #0x07
   2C8D F5                11177 	push	af
   2C8E 33                11178 	inc	sp
   2C8F CDr00r00          11179 	call	_move_win
   2C92 E8 02             11180 	add	sp, #2
                          11181 ;..\main.c:47: move_bkg(0, 0);
   2C94 AF                11182 	xor	a, a
   2C95 F5                11183 	push	af
   2C96 33                11184 	inc	sp
   2C97 AF                11185 	xor	a, a
   2C98 F5                11186 	push	af
   2C99 33                11187 	inc	sp
   2C9A CDr00r00          11188 	call	_move_bkg
   2C9D E8 02             11189 	add	sp, #2
                          11190 ;..\main.c:49: SHOW_WIN;
   2C9F F0r00             11191 	ldh	a, (_LCDC_REG+0)
   2CA1 F6 20             11192 	or	a, #0x20
   2CA3 E0r00             11193 	ldh	(_LCDC_REG+0),a
                          11194 ;..\main.c:50: SHOW_BKG;
   2CA5 F0r00             11195 	ldh	a, (_LCDC_REG+0)
   2CA7 F6 01             11196 	or	a, #0x01
   2CA9 E0r00             11197 	ldh	(_LCDC_REG+0),a
                          11198 ;..\main.c:51: HIDE_SPRITES;
   2CAB F0r00             11199 	ldh	a, (_LCDC_REG+0)
   2CAD E6 FD             11200 	and	a, #0xfd
   2CAF E0r00             11201 	ldh	(_LCDC_REG+0),a
                          11202 ;..\main.c:54: while(faded_out == TRUE)
   2CB1                   11203 00102$:
   2CB1 21r2Er09          11204 	ld	hl, #_faded_out
   2CB4 7E                11205 	ld	a, (hl)
   2CB5 3D                11206 	dec	a
   2CB6 20 15             11207 	jr	NZ,00112$
                          11208 ;..\main.c:56: menu_update();
   2CB8 CDr5Cr00          11209 	call	_menu_update
                          11210 ;..\main.c:57: fade_from_white(4);
   2CBB 3E 04             11211 	ld	a, #0x04
   2CBD F5                11212 	push	af
   2CBE 33                11213 	inc	sp
   2CBF CDr90r2B          11214 	call	_fade_from_white
   2CC2 33                11215 	inc	sp
                          11216 ;..\main.c:58: vbl_wait(2);
   2CC3 3E 02             11217 	ld	a, #0x02
   2CC5 F5                11218 	push	af
   2CC6 33                11219 	inc	sp
   2CC7 CDr59r2A          11220 	call	_vbl_wait
   2CCA 33                11221 	inc	sp
   2CCB 18 E4             11222 	jr	00102$
                          11223 ;..\main.c:62: while(1)
   2CCD                   11224 00112$:
                          11225 ;..\main.c:64: menu_update();
   2CCD CDr5Cr00          11226 	call	_menu_update
                          11227 ;..\main.c:67: if(key_down(J_A) || key_down(J_START))  
   2CD0 3E 10             11228 	ld	a, #0x10
   2CD2 F5                11229 	push	af
   2CD3 33                11230 	inc	sp
   2CD4 CDr00r00          11231 	call	_key_down
   2CD7 33                11232 	inc	sp
   2CD8 7B                11233 	ld	a, e
   2CD9 B7                11234 	or	a, a
   2CDA 20 0D             11235 	jr	NZ,00105$
   2CDC 3E 80             11236 	ld	a, #0x80
   2CDE F5                11237 	push	af
   2CDF 33                11238 	inc	sp
   2CE0 CDr00r00          11239 	call	_key_down
   2CE3 33                11240 	inc	sp
   2CE4 7B                11241 	ld	a, e
   2CE5 B7                11242 	or	a, a
   2CE6 CAr2Ar2D          11243 	jp	Z, 00109$
                          11244 ;..\main.c:70: while(faded_out == FALSE)
   2CE9                   11245 00105$:
   2CE9 21r2Er09          11246 	ld	hl, #_faded_out
   2CEC 7E                11247 	ld	a, (hl)
   2CED B7                11248 	or	a, a
   2CEE 20 15             11249 	jr	NZ,00107$
                          11250 ;..\main.c:72: menu_update();
   2CF0 CDr5Cr00          11251 	call	_menu_update
                          11252 ;..\main.c:73: fade_to_black(4);
   2CF3 3E 04             11253 	ld	a, #0x04
   2CF5 F5                11254 	push	af
   2CF6 33                11255 	inc	sp
   2CF7 CDr8Cr2A          11256 	call	_fade_to_black
   2CFA 33                11257 	inc	sp
                          11258 ;..\main.c:74: vbl_wait(2);
   2CFB 3E 02             11259 	ld	a, #0x02
   2CFD F5                11260 	push	af
   2CFE 33                11261 	inc	sp
   2CFF CDr59r2A          11262 	call	_vbl_wait
   2D02 33                11263 	inc	sp
   2D03 18 E4             11264 	jr	00105$
   2D05                   11265 00107$:
                          11266 ;..\main.c:79: remove_LCD(menu_LCD);
   2D05 21r2Cr00          11267 	ld	hl, #_menu_LCD
   2D08 E5                11268 	push	hl
   2D09 CDr00r00          11269 	call	_remove_LCD
   2D0C E8 02             11270 	add	sp, #2
                          11271 ;..\main.c:80: remove_VBL(menu_VBL);
   2D0E 21r55r00          11272 	ld	hl, #_menu_VBL
   2D11 E5                11273 	push	hl
   2D12 CDr00r00          11274 	call	_remove_VBL
   2D15 E8 02             11275 	add	sp, #2
                          11276 ;..\main.c:84: move_bkg(0, 0);
   2D17 AF                11277 	xor	a, a
   2D18 F5                11278 	push	af
   2D19 33                11279 	inc	sp
   2D1A AF                11280 	xor	a, a
   2D1B F5                11281 	push	af
   2D1C 33                11282 	inc	sp
   2D1D CDr00r00          11283 	call	_move_bkg
   2D20 E8 02             11284 	add	sp, #2
                          11285 ;..\main.c:86: scene = SELECTION;
   2D22 21r2Cr09          11286 	ld	hl, #_scene
   2D25 36 01             11287 	ld	(hl), #0x01
                          11288 ;..\main.c:87: break;
   2D27 C3r0Ar2C          11289 	jp	00138$
   2D2A                   11290 00109$:
                          11291 ;..\main.c:89: previous_keys = joypad();
   2D2A CDr00r00          11292 	call	_joypad
   2D2D 21r00r00          11293 	ld	hl, #_previous_keys
   2D30 73                11294 	ld	(hl), e
                          11295 ;..\main.c:90: vbl_wait(2);
   2D31 3E 02             11296 	ld	a, #0x02
   2D33 F5                11297 	push	af
   2D34 33                11298 	inc	sp
   2D35 CDr59r2A          11299 	call	_vbl_wait
   2D38 33                11300 	inc	sp
   2D39 C3rCDr2C          11301 	jp	00112$
                          11302 ;..\main.c:94: case SELECTION:
   2D3C                   11303 00114$:
                          11304 ;..\main.c:96: HIDE_WIN;
   2D3C F0r00             11305 	ldh	a, (_LCDC_REG+0)
   2D3E E6 DF             11306 	and	a, #0xdf
   2D40 E0r00             11307 	ldh	(_LCDC_REG+0),a
                          11308 ;..\main.c:99: selection_bkg[172] = 0x04 + selected / 10;
   2D42 21r03r00          11309 	ld	hl, #_selected
   2D45 4E                11310 	ld	c, (hl)
   2D46 06 00             11311 	ld	b, #0x00
   2D48 21 0A 00          11312 	ld	hl, #0x000a
   2D4B E5                11313 	push	hl
   2D4C C5                11314 	push	bc
   2D4D CDr00r00          11315 	call	__divsint
   2D50 E8 04             11316 	add	sp, #4
   2D52 7B                11317 	ld	a, e
   2D53 C6 04             11318 	add	a, #0x04
   2D55 21rB1r00          11319 	ld	hl, #(_selection_bkg + 0x00ac)
   2D58 77                11320 	ld	(hl), a
                          11321 ;..\main.c:100: selection_bkg[173] = 0x04 + selected % 10;
   2D59 21r03r00          11322 	ld	hl, #_selected
   2D5C 4E                11323 	ld	c, (hl)
   2D5D 06 00             11324 	ld	b, #0x00
   2D5F 21 0A 00          11325 	ld	hl, #0x000a
   2D62 E5                11326 	push	hl
   2D63 C5                11327 	push	bc
   2D64 CDr00r00          11328 	call	__modsint
   2D67 E8 04             11329 	add	sp, #4
   2D69 7B                11330 	ld	a, e
   2D6A C6 04             11331 	add	a, #0x04
   2D6C 21rB2r00          11332 	ld	hl, #(_selection_bkg + 0x00ad)
   2D6F 77                11333 	ld	(hl), a
                          11334 ;..\main.c:102: set_bkg_tiles(0, 0, 20, 18, selection_bkg);
   2D70 21r05r00          11335 	ld	hl, #_selection_bkg
   2D73 E5                11336 	push	hl
   2D74 3E 12             11337 	ld	a, #0x12
   2D76 F5                11338 	push	af
   2D77 33                11339 	inc	sp
   2D78 3E 14             11340 	ld	a, #0x14
   2D7A F5                11341 	push	af
   2D7B 33                11342 	inc	sp
   2D7C AF                11343 	xor	a, a
   2D7D F5                11344 	push	af
   2D7E 33                11345 	inc	sp
   2D7F AF                11346 	xor	a, a
   2D80 F5                11347 	push	af
   2D81 33                11348 	inc	sp
   2D82 CDr00r00          11349 	call	_set_bkg_tiles
   2D85 E8 06             11350 	add	sp, #6
                          11351 ;..\main.c:105: while(faded_out == TRUE)
   2D87                   11352 00115$:
   2D87 21r2Er09          11353 	ld	hl, #_faded_out
   2D8A 7E                11354 	ld	a, (hl)
   2D8B 3D                11355 	dec	a
   2D8C 20 12             11356 	jr	NZ,00127$
                          11357 ;..\main.c:107: fade_from_black(4);
   2D8E 3E 04             11358 	ld	a, #0x04
   2D90 F5                11359 	push	af
   2D91 33                11360 	inc	sp
   2D92 CDrE6r2A          11361 	call	_fade_from_black
   2D95 33                11362 	inc	sp
                          11363 ;..\main.c:108: vbl_wait(2);
   2D96 3E 02             11364 	ld	a, #0x02
   2D98 F5                11365 	push	af
   2D99 33                11366 	inc	sp
   2D9A CDr59r2A          11367 	call	_vbl_wait
   2D9D 33                11368 	inc	sp
   2D9E 18 E7             11369 	jr	00115$
                          11370 ;..\main.c:111: while(1)
   2DA0                   11371 00127$:
                          11372 ;..\main.c:113: selection_update();
   2DA0 CDrADr00          11373 	call	_selection_update
                          11374 ;..\main.c:116: if(key_down(J_A) || key_down(J_START))
   2DA3 3E 10             11375 	ld	a, #0x10
   2DA5 F5                11376 	push	af
   2DA6 33                11377 	inc	sp
   2DA7 CDr00r00          11378 	call	_key_down
   2DAA 33                11379 	inc	sp
   2DAB 7B                11380 	ld	a, e
   2DAC B7                11381 	or	a, a
   2DAD 20 0D             11382 	jr	NZ,00118$
   2DAF 3E 80             11383 	ld	a, #0x80
   2DB1 F5                11384 	push	af
   2DB2 33                11385 	inc	sp
   2DB3 CDr00r00          11386 	call	_key_down
   2DB6 33                11387 	inc	sp
   2DB7 7B                11388 	ld	a, e
   2DB8 B7                11389 	or	a, a
   2DB9 CAr91r2F          11390 	jp	Z, 00124$
                          11391 ;..\main.c:118: while(faded_out == FALSE)
   2DBC                   11392 00118$:
   2DBC 21r2Er09          11393 	ld	hl, #_faded_out
   2DBF 7E                11394 	ld	a, (hl)
   2DC0 B7                11395 	or	a, a
   2DC1 20 12             11396 	jr	NZ,00120$
                          11397 ;..\main.c:120: fade_to_black(4);
   2DC3 3E 04             11398 	ld	a, #0x04
   2DC5 F5                11399 	push	af
   2DC6 33                11400 	inc	sp
   2DC7 CDr8Cr2A          11401 	call	_fade_to_black
   2DCA 33                11402 	inc	sp
                          11403 ;..\main.c:121: vbl_wait(2);
   2DCB 3E 02             11404 	ld	a, #0x02
   2DCD F5                11405 	push	af
   2DCE 33                11406 	inc	sp
   2DCF CDr59r2A          11407 	call	_vbl_wait
   2DD2 33                11408 	inc	sp
   2DD3 18 E7             11409 	jr	00118$
   2DD5                   11410 00120$:
                          11411 ;..\main.c:125: move_win(7, 0);
   2DD5 AF                11412 	xor	a, a
   2DD6 F5                11413 	push	af
   2DD7 33                11414 	inc	sp
   2DD8 3E 07             11415 	ld	a, #0x07
   2DDA F5                11416 	push	af
   2DDB 33                11417 	inc	sp
   2DDC CDr00r00          11418 	call	_move_win
   2DDF E8 02             11419 	add	sp, #2
                          11420 ;..\main.c:126: move_bkg(0, 0);
   2DE1 AF                11421 	xor	a, a
   2DE2 F5                11422 	push	af
   2DE3 33                11423 	inc	sp
   2DE4 AF                11424 	xor	a, a
   2DE5 F5                11425 	push	af
   2DE6 33                11426 	inc	sp
   2DE7 CDr00r00          11427 	call	_move_bkg
   2DEA E8 02             11428 	add	sp, #2
                          11429 ;..\main.c:128: set_win_tiles(0, 0, 20, 2, game_win);
   2DEC 21r6Dr01          11430 	ld	hl, #_game_win
   2DEF E5                11431 	push	hl
   2DF0 3E 02             11432 	ld	a, #0x02
   2DF2 F5                11433 	push	af
   2DF3 33                11434 	inc	sp
   2DF4 3E 14             11435 	ld	a, #0x14
   2DF6 F5                11436 	push	af
   2DF7 33                11437 	inc	sp
   2DF8 AF                11438 	xor	a, a
   2DF9 F5                11439 	push	af
   2DFA 33                11440 	inc	sp
   2DFB AF                11441 	xor	a, a
   2DFC F5                11442 	push	af
   2DFD 33                11443 	inc	sp
   2DFE CDr00r00          11444 	call	_set_win_tiles
   2E01 E8 06             11445 	add	sp, #6
                          11446 ;..\main.c:131: set_bkg_data(46, 28, cave_tiles);
   2E03 21rBCr32          11447 	ld	hl, #_cave_tiles
   2E06 E5                11448 	push	hl
   2E07 3E 1C             11449 	ld	a, #0x1c
   2E09 F5                11450 	push	af
   2E0A 33                11451 	inc	sp
   2E0B 3E 2E             11452 	ld	a, #0x2e
   2E0D F5                11453 	push	af
   2E0E 33                11454 	inc	sp
   2E0F CDr00r00          11455 	call	_set_bkg_data
   2E12 E8 04             11456 	add	sp, #4
                          11457 ;..\main.c:133: level_width = levels_width[selected-1];
   2E14 21r03r00          11458 	ld	hl, #_selected
   2E17 7E                11459 	ld	a, (hl)
   2E18 3D                11460 	dec	a
   2E19 4F                11461 	ld	c, a
   2E1A 17                11462 	rla
   2E1B 9F                11463 	sbc	a, a
   2E1C 47                11464 	ld	b, a
   2E1D 21r76r09          11465 	ld	hl, #_levels_width
   2E20 09                11466 	add	hl, bc
   2E21 7D                11467 	ld	a, l
   2E22 54                11468 	ld	d, h
   2E23 F8 06             11469 	ldhl	sp,	#6
   2E25 22                11470 	ld	(hl+), a
   2E26 72                11471 	ld	(hl), d
   2E27 2B                11472 	dec	hl
   2E28 5E                11473 	ld	e, (hl)
   2E29 23                11474 	inc	hl
   2E2A 56                11475 	ld	d, (hl)
   2E2B 1A                11476 	ld	a,(de)
   2E2C 21rF3r08          11477 	ld	hl, #_level_width
   2E2F 77                11478 	ld	(hl), a
                          11479 ;..\main.c:134: level_height = levels_height[selected-1];
   2E30 21r79r09          11480 	ld	hl, #_levels_height
   2E33 09                11481 	add	hl, bc
   2E34 4D                11482 	ld	c, l
   2E35 44                11483 	ld	b, h
   2E36 0A                11484 	ld	a, (bc)
   2E37 21rF4r08          11485 	ld	hl, #_level_height
   2E3A 77                11486 	ld	(hl), a
                          11487 ;..\main.c:137: for(int j = 0; j < level_height; j++)
   2E3B AF                11488 	xor	a, a
   2E3C F8 04             11489 	ldhl	sp,	#4
   2E3E 22                11490 	ld	(hl+), a
   2E3F 77                11491 	ld	(hl), a
   2E40                   11492 00144$:
   2E40 21rF4r08          11493 	ld	hl, #_level_height
   2E43 4E                11494 	ld	c, (hl)
   2E44 06 00             11495 	ld	b, #0x00
   2E46 F8 04             11496 	ldhl	sp,	#4
   2E48 7E                11497 	ld	a, (hl)
   2E49 91                11498 	sub	a, c
   2E4A 23                11499 	inc	hl
   2E4B 7E                11500 	ld	a, (hl)
   2E4C 98                11501 	sbc	a, b
   2E4D 56                11502 	ld	d, (hl)
   2E4E 78                11503 	ld	a, b
   2E4F 5F                11504 	ld	e, a
   2E50 CB 7B             11505 	bit	7, e
   2E52 28 07             11506 	jr	Z,00277$
   2E54 CB 7A             11507 	bit	7, d
   2E56 20 08             11508 	jr	NZ,00278$
   2E58 BF                11509 	cp	a, a
   2E59 18 05             11510 	jr	00278$
   2E5B                   11511 00277$:
   2E5B CB 7A             11512 	bit	7, d
   2E5D 28 01             11513 	jr	Z,00278$
   2E5F 37                11514 	scf
   2E60                   11515 00278$:
   2E60 D2rF5r2E          11516 	jp	NC, 00122$
                          11517 ;..\main.c:139: for(int i = 0; i < level_width; i++)
   2E63 AF                11518 	xor	a, a
   2E64 F8 06             11519 	ldhl	sp,	#6
   2E66 22                11520 	ld	(hl+), a
   2E67 77                11521 	ld	(hl), a
   2E68                   11522 00141$:
   2E68 21rF3r08          11523 	ld	hl, #_level_width
   2E6B 7E                11524 	ld	a, (hl)
   2E6C F8 02             11525 	ldhl	sp,	#2
   2E6E 77                11526 	ld	(hl), a
   2E6F AF                11527 	xor	a, a
   2E70 23                11528 	inc	hl
   2E71 77                11529 	ld	(hl), a
   2E72 F8 06             11530 	ldhl	sp,	#6
   2E74 5D                11531 	ld	e, l
   2E75 54                11532 	ld	d, h
   2E76 F8 02             11533 	ldhl	sp,	#2
   2E78 1A                11534 	ld	a, (de)
   2E79 96                11535 	sub	a, (hl)
   2E7A 23                11536 	inc	hl
   2E7B 13                11537 	inc	de
   2E7C 1A                11538 	ld	a, (de)
   2E7D 9E                11539 	sbc	a, (hl)
   2E7E 1A                11540 	ld	a, (de)
   2E7F 57                11541 	ld	d, a
   2E80 5E                11542 	ld	e, (hl)
   2E81 CB 7B             11543 	bit	7, e
   2E83 28 07             11544 	jr	Z,00279$
   2E85 CB 7A             11545 	bit	7, d
   2E87 20 08             11546 	jr	NZ,00280$
   2E89 BF                11547 	cp	a, a
   2E8A 18 05             11548 	jr	00280$
   2E8C                   11549 00279$:
   2E8C CB 7A             11550 	bit	7, d
   2E8E 28 01             11551 	jr	Z,00280$
   2E90 37                11552 	scf
   2E91                   11553 00280$:
   2E91 D2rEAr2E          11554 	jp	NC, 00145$
                          11555 ;..\main.c:141: level[level_width * j + i] = levels[selected-1][level_width * j + i];
   2E94 F8 04             11556 	ldhl	sp,	#4
   2E96 2A                11557 	ld	a, (hl+)
   2E97 66                11558 	ld	h, (hl)
   2E98 6F                11559 	ld	l, a
   2E99 E5                11560 	push	hl
   2E9A F8 04             11561 	ldhl	sp,	#4
   2E9C 2A                11562 	ld	a, (hl+)
   2E9D 66                11563 	ld	h, (hl)
   2E9E 6F                11564 	ld	l, a
   2E9F E5                11565 	push	hl
   2EA0 CDr00r00          11566 	call	__mulint
   2EA3 E8 04             11567 	add	sp, #4
   2EA5 4B                11568 	ld	c, e
   2EA6 42                11569 	ld	b, d
   2EA7 F8 06             11570 	ldhl	sp,	#6
   2EA9 2A                11571 	ld	a, (hl+)
   2EAA 66                11572 	ld	h, (hl)
   2EAB 6F                11573 	ld	l, a
   2EAC 09                11574 	add	hl, bc
   2EAD 33                11575 	inc	sp
   2EAE 33                11576 	inc	sp
   2EAF E5                11577 	push	hl
   2EB0 D1                11578 	pop	de
   2EB1 D5                11579 	push	de
   2EB2 21rB3r02          11580 	ld	hl, #_level
   2EB5 19                11581 	add	hl, de
   2EB6 7D                11582 	ld	a, l
   2EB7 54                11583 	ld	d, h
   2EB8 F8 02             11584 	ldhl	sp,	#2
   2EBA 22                11585 	ld	(hl+), a
   2EBB 72                11586 	ld	(hl), d
   2EBC 21r03r00          11587 	ld	hl, #_selected
   2EBF 7E                11588 	ld	a, (hl)
   2EC0 3D                11589 	dec	a
   2EC1 4F                11590 	ld	c, a
   2EC2 17                11591 	rla
   2EC3 9F                11592 	sbc	a, a
   2EC4 47                11593 	ld	b, a
   2EC5 CB 21             11594 	sla	c
   2EC7 CB 10             11595 	rl	b
   2EC9 21rADr02          11596 	ld	hl, #_levels
   2ECC 09                11597 	add	hl, bc
   2ECD 4D                11598 	ld	c,l
   2ECE 44                11599 	ld	b,h
   2ECF 4E                11600 	ld	c, (hl)
   2ED0 23                11601 	inc	hl
   2ED1 46                11602 	ld	b, (hl)
   2ED2 E1                11603 	pop	hl
   2ED3 E5                11604 	push	hl
   2ED4 09                11605 	add	hl, bc
   2ED5 4D                11606 	ld	c, l
   2ED6 44                11607 	ld	b, h
   2ED7 0A                11608 	ld	a, (bc)
   2ED8 4F                11609 	ld	c, a
   2ED9 F8 02             11610 	ldhl	sp,	#2
   2EDB 2A                11611 	ld	a, (hl+)
   2EDC 66                11612 	ld	h, (hl)
   2EDD 6F                11613 	ld	l, a
   2EDE 71                11614 	ld	(hl), c
                          11615 ;..\main.c:139: for(int i = 0; i < level_width; i++)
   2EDF F8 06             11616 	ldhl	sp,	#6
   2EE1 34                11617 	inc	(hl)
   2EE2 C2r68r2E          11618 	jp	NZ,00141$
   2EE5 23                11619 	inc	hl
   2EE6 34                11620 	inc	(hl)
   2EE7 C3r68r2E          11621 	jp	00141$
   2EEA                   11622 00145$:
                          11623 ;..\main.c:137: for(int j = 0; j < level_height; j++)
   2EEA F8 04             11624 	ldhl	sp,	#4
   2EEC 34                11625 	inc	(hl)
   2EED C2r40r2E          11626 	jp	NZ,00144$
   2EF0 23                11627 	inc	hl
   2EF1 34                11628 	inc	(hl)
   2EF2 C3r40r2E          11629 	jp	00144$
   2EF5                   11630 00122$:
                          11631 ;..\main.c:145: set_bkg_tiles(0, 0, level_width, level_height, level);
   2EF5 21rB3r02          11632 	ld	hl, #_level
   2EF8 E5                11633 	push	hl
   2EF9 21rF4r08          11634 	ld	hl, #_level_height
   2EFC 7E                11635 	ld	a, (hl)
   2EFD F5                11636 	push	af
   2EFE 33                11637 	inc	sp
   2EFF 21rF3r08          11638 	ld	hl, #_level_width
   2F02 7E                11639 	ld	a, (hl)
   2F03 F5                11640 	push	af
   2F04 33                11641 	inc	sp
   2F05 AF                11642 	xor	a, a
   2F06 F5                11643 	push	af
   2F07 33                11644 	inc	sp
   2F08 AF                11645 	xor	a, a
   2F09 F5                11646 	push	af
   2F0A 33                11647 	inc	sp
   2F0B CDr00r00          11648 	call	_set_bkg_tiles
   2F0E E8 06             11649 	add	sp, #6
                          11650 ;..\main.c:147: set_sprite_data(0, 16, hero_tiles);
   2F10 21rECr36          11651 	ld	hl, #_hero_tiles
   2F13 E5                11652 	push	hl
   2F14 3E 10             11653 	ld	a, #0x10
   2F16 F5                11654 	push	af
   2F17 33                11655 	inc	sp
   2F18 AF                11656 	xor	a, a
   2F19 F5                11657 	push	af
   2F1A 33                11658 	inc	sp
   2F1B CDr00r00          11659 	call	_set_sprite_data
   2F1E E8 04             11660 	add	sp, #4
                          11661 ;..\main.c:148: set_sprite_data(16, 8, bubble_tiles);
   2F20 21rCFr09          11662 	ld	hl, #_bubble_tiles
   2F23 E5                11663 	push	hl
   2F24 3E 08             11664 	ld	a, #0x08
   2F26 F5                11665 	push	af
   2F27 33                11666 	inc	sp
   2F28 3E 10             11667 	ld	a, #0x10
   2F2A F5                11668 	push	af
   2F2B 33                11669 	inc	sp
   2F2C CDr00r00          11670 	call	_set_sprite_data
   2F2F E8 04             11671 	add	sp, #4
                          11672 ;..\main.c:149: setup(spawns_x[selected-1], spawns_y[selected-1]);
   2F31 21r03r00          11673 	ld	hl, #_selected
   2F34 7E                11674 	ld	a, (hl)
   2F35 3D                11675 	dec	a
   2F36 4F                11676 	ld	c, a
   2F37 17                11677 	rla
   2F38 9F                11678 	sbc	a, a
   2F39 47                11679 	ld	b, a
   2F3A 21r82r09          11680 	ld	hl, #_spawns_y
   2F3D 09                11681 	add	hl, bc
   2F3E 7D                11682 	ld	a, l
   2F3F 54                11683 	ld	d, h
   2F40 F8 06             11684 	ldhl	sp,	#6
   2F42 22                11685 	ld	(hl+), a
   2F43 72                11686 	ld	(hl), d
   2F44 2B                11687 	dec	hl
   2F45 5E                11688 	ld	e, (hl)
   2F46 23                11689 	inc	hl
   2F47 56                11690 	ld	d, (hl)
   2F48 1A                11691 	ld	a,(de)
   2F49 77                11692 	ld	(hl), a
   2F4A 21r7Fr09          11693 	ld	hl, #_spawns_x
   2F4D 09                11694 	add	hl, bc
   2F4E 4D                11695 	ld	c, l
   2F4F 44                11696 	ld	b, h
   2F50 0A                11697 	ld	a, (bc)
   2F51 4F                11698 	ld	c, a
   2F52 F8 07             11699 	ldhl	sp,	#7
   2F54 7E                11700 	ld	a, (hl)
   2F55 F5                11701 	push	af
   2F56 33                11702 	inc	sp
   2F57 79                11703 	ld	a, c
   2F58 F5                11704 	push	af
   2F59 33                11705 	inc	sp
   2F5A CDr49r0D          11706 	call	_setup
   2F5D E8 02             11707 	add	sp, #2
                          11708 ;..\main.c:150: LYC_REG = 9;
   2F5F 3E 09             11709 	ld	a, #0x09
   2F61 E0r00             11710 	ldh	(_LYC_REG+0),a
                          11711 ;..\main.c:151: disable_interrupts();
   2F63 CDr00r00          11712 	call	_disable_interrupts
                          11713 ;..\main.c:152: add_LCD(game_LCD);
   2F66 21r6Dr01          11714 	ld	hl, #_game_LCD
   2F69 E5                11715 	push	hl
   2F6A CDr00r00          11716 	call	_add_LCD
   2F6D E8 02             11717 	add	sp, #2
                          11718 ;..\main.c:153: add_VBL(game_VBL);
   2F6F 21r85r09          11719 	ld	hl, #_game_VBL
   2F72 E5                11720 	push	hl
   2F73 CDr00r00          11721 	call	_add_VBL
   2F76 E8 02             11722 	add	sp, #2
                          11723 ;..\main.c:154: enable_interrupts();
   2F78 CDr00r00          11724 	call	_enable_interrupts
                          11725 ;..\main.c:155: set_interrupts(VBL_IFLAG | LCD_IFLAG);
   2F7B 3E 03             11726 	ld	a, #0x03
   2F7D F5                11727 	push	af
   2F7E 33                11728 	inc	sp
   2F7F CDr00r00          11729 	call	_set_interrupts
   2F82 33                11730 	inc	sp
                          11731 ;..\main.c:156: SHOW_WIN;
   2F83 F0r00             11732 	ldh	a, (_LCDC_REG+0)
   2F85 F6 20             11733 	or	a, #0x20
   2F87 E0r00             11734 	ldh	(_LCDC_REG+0),a
                          11735 ;..\main.c:157: scene = GAME;
   2F89 21r2Cr09          11736 	ld	hl, #_scene
   2F8C 36 02             11737 	ld	(hl), #0x02
                          11738 ;..\main.c:158: break;
   2F8E C3r0Ar2C          11739 	jp	00138$
   2F91                   11740 00124$:
                          11741 ;..\main.c:160: previous_keys = joypad();
   2F91 CDr00r00          11742 	call	_joypad
   2F94 21r00r00          11743 	ld	hl, #_previous_keys
   2F97 73                11744 	ld	(hl), e
                          11745 ;..\main.c:161: vbl_wait(4);
   2F98 3E 04             11746 	ld	a, #0x04
   2F9A F5                11747 	push	af
   2F9B 33                11748 	inc	sp
   2F9C CDr59r2A          11749 	call	_vbl_wait
   2F9F 33                11750 	inc	sp
   2FA0 C3rA0r2D          11751 	jp	00127$
                          11752 ;..\main.c:167: while(faded_out == TRUE)
   2FA3                   11753 00130$:
   2FA3 21r2Er09          11754 	ld	hl, #_faded_out
   2FA6 7E                11755 	ld	a, (hl)
   2FA7 3D                11756 	dec	a
   2FA8 20 12             11757 	jr	NZ,00133$
                          11758 ;..\main.c:169: fade_from_black(4);
   2FAA 3E 04             11759 	ld	a, #0x04
   2FAC F5                11760 	push	af
   2FAD 33                11761 	inc	sp
   2FAE CDrE6r2A          11762 	call	_fade_from_black
   2FB1 33                11763 	inc	sp
                          11764 ;..\main.c:170: vbl_wait(2);
   2FB2 3E 02             11765 	ld	a, #0x02
   2FB4 F5                11766 	push	af
   2FB5 33                11767 	inc	sp
   2FB6 CDr59r2A          11768 	call	_vbl_wait
   2FB9 33                11769 	inc	sp
   2FBA 18 E7             11770 	jr	00130$
                          11771 ;..\main.c:173: while(scene == GAME)
   2FBC                   11772 00133$:
   2FBC 21r2Cr09          11773 	ld	hl, #_scene
   2FBF 7E                11774 	ld	a, (hl)
   2FC0 D6 02             11775 	sub	a, #0x02
   2FC2 C2r0Ar2C          11776 	jp	NZ,00138$
                          11777 ;..\main.c:175: game_update();
   2FC5 CDr33r2A          11778 	call	_game_update
                          11779 ;..\main.c:176: previous_keys = joypad();
   2FC8 CDr00r00          11780 	call	_joypad
   2FCB 21r00r00          11781 	ld	hl, #_previous_keys
   2FCE 73                11782 	ld	(hl), e
                          11783 ;..\main.c:177: vbl_wait(1);
   2FCF 3E 01             11784 	ld	a, #0x01
   2FD1 F5                11785 	push	af
   2FD2 33                11786 	inc	sp
   2FD3 CDr59r2A          11787 	call	_vbl_wait
   2FD6 33                11788 	inc	sp
   2FD7 18 E3             11789 	jr	00133$
                          11790 ;..\main.c:180: }
                          11791 ;..\main.c:182: }
   2FD9 E8 08             11792 	add	sp, #8
   2FDB C9                11793 	ret
   2FDC                   11794 _hud_tiles:
   2FDC 00                11795 	.db #0x00	; 0
   2FDD 00                11796 	.db #0x00	; 0
   2FDE 00                11797 	.db #0x00	; 0
   2FDF 00                11798 	.db #0x00	; 0
   2FE0 00                11799 	.db #0x00	; 0
   2FE1 00                11800 	.db #0x00	; 0
   2FE2 00                11801 	.db #0x00	; 0
   2FE3 00                11802 	.db #0x00	; 0
   2FE4 00                11803 	.db #0x00	; 0
   2FE5 00                11804 	.db #0x00	; 0
   2FE6 00                11805 	.db #0x00	; 0
   2FE7 00                11806 	.db #0x00	; 0
   2FE8 00                11807 	.db #0x00	; 0
   2FE9 00                11808 	.db #0x00	; 0
   2FEA 00                11809 	.db #0x00	; 0
   2FEB 00                11810 	.db #0x00	; 0
   2FEC 00                11811 	.db #0x00	; 0
   2FED 00                11812 	.db #0x00	; 0
   2FEE 18                11813 	.db #0x18	; 24
   2FEF 18                11814 	.db #0x18	; 24
   2FF0 2C                11815 	.db #0x2c	; 44
   2FF1 24                11816 	.db #0x24	; 36
   2FF2 4A                11817 	.db #0x4a	; 74	'J'
   2FF3 46                11818 	.db #0x46	; 70	'F'
   2FF4 7A                11819 	.db #0x7a	; 122	'z'
   2FF5 46                11820 	.db #0x46	; 70	'F'
   2FF6 34                11821 	.db #0x34	; 52	'4'
   2FF7 2C                11822 	.db #0x2c	; 44
   2FF8 18                11823 	.db #0x18	; 24
   2FF9 18                11824 	.db #0x18	; 24
   2FFA 00                11825 	.db #0x00	; 0
   2FFB 00                11826 	.db #0x00	; 0
   2FFC 3C                11827 	.db #0x3c	; 60
   2FFD 3C                11828 	.db #0x3c	; 60
   2FFE 7E                11829 	.db #0x7e	; 126
   2FFF 42                11830 	.db #0x42	; 66	'B'
   3000 4E                11831 	.db #0x4e	; 78	'N'
   3001 72                11832 	.db #0x72	; 114	'r'
   3002 E7                11833 	.db #0xe7	; 231
   3003 FF                11834 	.db #0xff	; 255
   3004 99                11835 	.db #0x99	; 153
   3005 FF                11836 	.db #0xff	; 255
   3006 BB                11837 	.db #0xbb	; 187
   3007 DD                11838 	.db #0xdd	; 221
   3008 87                11839 	.db #0x87	; 135
   3009 F9                11840 	.db #0xf9	; 249
   300A 7E                11841 	.db #0x7e	; 126
   300B 7E                11842 	.db #0x7e	; 126
   300C 00                11843 	.db #0x00	; 0
   300D 00                11844 	.db #0x00	; 0
   300E 6C                11845 	.db #0x6c	; 108	'l'
   300F 6C                11846 	.db #0x6c	; 108	'l'
   3010 FE                11847 	.db #0xfe	; 254
   3011 92                11848 	.db #0x92	; 146
   3012 EA                11849 	.db #0xea	; 234
   3013 96                11850 	.db #0x96	; 150
   3014 F2                11851 	.db #0xf2	; 242
   3015 8E                11852 	.db #0x8e	; 142
   3016 64                11853 	.db #0x64	; 100	'd'
   3017 5C                11854 	.db #0x5c	; 92
   3018 28                11855 	.db #0x28	; 40
   3019 38                11856 	.db #0x38	; 56	'8'
   301A 10                11857 	.db #0x10	; 16
   301B 10                11858 	.db #0x10	; 16
   301C 00                11859 	.db #0x00	; 0
   301D 38                11860 	.db #0x38	; 56	'8'
   301E 38                11861 	.db #0x38	; 56	'8'
   301F 44                11862 	.db #0x44	; 68	'D'
   3020 2A                11863 	.db #0x2a	; 42
   3021 56                11864 	.db #0x56	; 86	'V'
   3022 2A                11865 	.db #0x2a	; 42
   3023 56                11866 	.db #0x56	; 86	'V'
   3024 2A                11867 	.db #0x2a	; 42
   3025 56                11868 	.db #0x56	; 86	'V'
   3026 3A                11869 	.db #0x3a	; 58
   3027 46                11870 	.db #0x46	; 70	'F'
   3028 06                11871 	.db #0x06	; 6
   3029 3E                11872 	.db #0x3e	; 62
   302A 1C                11873 	.db #0x1c	; 28
   302B 1C                11874 	.db #0x1c	; 28
   302C 00                11875 	.db #0x00	; 0
   302D 1C                11876 	.db #0x1c	; 28
   302E 0A                11877 	.db #0x0a	; 10
   302F 36                11878 	.db #0x36	; 54	'6'
   3030 1A                11879 	.db #0x1a	; 26
   3031 26                11880 	.db #0x26	; 38
   3032 0A                11881 	.db #0x0a	; 10
   3033 36                11882 	.db #0x36	; 54	'6'
   3034 0A                11883 	.db #0x0a	; 10
   3035 16                11884 	.db #0x16	; 22
   3036 0A                11885 	.db #0x0a	; 10
   3037 16                11886 	.db #0x16	; 22
   3038 02                11887 	.db #0x02	; 2
   3039 1E                11888 	.db #0x1e	; 30
   303A 0E                11889 	.db #0x0e	; 14
   303B 0E                11890 	.db #0x0e	; 14
   303C 00                11891 	.db #0x00	; 0
   303D 78                11892 	.db #0x78	; 120	'x'
   303E 30                11893 	.db #0x30	; 48	'0'
   303F 4C                11894 	.db #0x4c	; 76	'L'
   3040 0A                11895 	.db #0x0a	; 10
   3041 76                11896 	.db #0x76	; 118	'v'
   3042 16                11897 	.db #0x16	; 22
   3043 2E                11898 	.db #0x2e	; 46
   3044 20                11899 	.db #0x20	; 32
   3045 5C                11900 	.db #0x5c	; 92
   3046 3A                11901 	.db #0x3a	; 58
   3047 46                11902 	.db #0x46	; 70	'F'
   3048 02                11903 	.db #0x02	; 2
   3049 7E                11904 	.db #0x7e	; 126
   304A 3E                11905 	.db #0x3e	; 62
   304B 3E                11906 	.db #0x3e	; 62
   304C 00                11907 	.db #0x00	; 0
   304D 78                11908 	.db #0x78	; 120	'x'
   304E 30                11909 	.db #0x30	; 48	'0'
   304F 4C                11910 	.db #0x4c	; 76	'L'
   3050 0A                11911 	.db #0x0a	; 10
   3051 76                11912 	.db #0x76	; 118	'v'
   3052 16                11913 	.db #0x16	; 22
   3053 2E                11914 	.db #0x2e	; 46
   3054 08                11915 	.db #0x08	; 8
   3055 74                11916 	.db #0x74	; 116	't'
   3056 32                11917 	.db #0x32	; 50	'2'
   3057 4E                11918 	.db #0x4e	; 78	'N'
   3058 06                11919 	.db #0x06	; 6
   3059 7E                11920 	.db #0x7e	; 126
   305A 3C                11921 	.db #0x3c	; 60
   305B 3C                11922 	.db #0x3c	; 60
   305C 00                11923 	.db #0x00	; 0
   305D 7C                11924 	.db #0x7c	; 124
   305E 2A                11925 	.db #0x2a	; 42
   305F 56                11926 	.db #0x56	; 86	'V'
   3060 2A                11927 	.db #0x2a	; 42
   3061 56                11928 	.db #0x56	; 86	'V'
   3062 3A                11929 	.db #0x3a	; 58
   3063 46                11930 	.db #0x46	; 70	'F'
   3064 0A                11931 	.db #0x0a	; 10
   3065 76                11932 	.db #0x76	; 118	'v'
   3066 2A                11933 	.db #0x2a	; 42
   3067 36                11934 	.db #0x36	; 54	'6'
   3068 22                11935 	.db #0x22	; 34
   3069 3E                11936 	.db #0x3e	; 62
   306A 0E                11937 	.db #0x0e	; 14
   306B 0E                11938 	.db #0x0e	; 14
   306C 00                11939 	.db #0x00	; 0
   306D 7C                11940 	.db #0x7c	; 124
   306E 3A                11941 	.db #0x3a	; 58
   306F 46                11942 	.db #0x46	; 70	'F'
   3070 26                11943 	.db #0x26	; 38
   3071 5E                11944 	.db #0x5e	; 94
   3072 38                11945 	.db #0x38	; 56	'8'
   3073 44                11946 	.db #0x44	; 68	'D'
   3074 0A                11947 	.db #0x0a	; 10
   3075 36                11948 	.db #0x36	; 54	'6'
   3076 3A                11949 	.db #0x3a	; 58
   3077 46                11950 	.db #0x46	; 70	'F'
   3078 02                11951 	.db #0x02	; 2
   3079 7E                11952 	.db #0x7e	; 126
   307A 3E                11953 	.db #0x3e	; 62
   307B 3E                11954 	.db #0x3e	; 62
   307C 00                11955 	.db #0x00	; 0
   307D 1C                11956 	.db #0x1c	; 28
   307E 1A                11957 	.db #0x1a	; 26
   307F 26                11958 	.db #0x26	; 38
   3080 26                11959 	.db #0x26	; 38
   3081 5E                11960 	.db #0x5e	; 94
   3082 38                11961 	.db #0x38	; 56	'8'
   3083 44                11962 	.db #0x44	; 68	'D'
   3084 2A                11963 	.db #0x2a	; 42
   3085 56                11964 	.db #0x56	; 86	'V'
   3086 3A                11965 	.db #0x3a	; 58
   3087 46                11966 	.db #0x46	; 70	'F'
   3088 02                11967 	.db #0x02	; 2
   3089 7E                11968 	.db #0x7e	; 126
   308A 3E                11969 	.db #0x3e	; 62
   308B 3E                11970 	.db #0x3e	; 62
   308C 00                11971 	.db #0x00	; 0
   308D 7C                11972 	.db #0x7c	; 124
   308E 3A                11973 	.db #0x3a	; 58
   308F 46                11974 	.db #0x46	; 70	'F'
   3090 0A                11975 	.db #0x0a	; 10
   3091 76                11976 	.db #0x76	; 118	'v'
   3092 2A                11977 	.db #0x2a	; 42
   3093 36                11978 	.db #0x36	; 54	'6'
   3094 0A                11979 	.db #0x0a	; 10
   3095 16                11980 	.db #0x16	; 22
   3096 0A                11981 	.db #0x0a	; 10
   3097 16                11982 	.db #0x16	; 22
   3098 02                11983 	.db #0x02	; 2
   3099 1E                11984 	.db #0x1e	; 30
   309A 0E                11985 	.db #0x0e	; 14
   309B 0E                11986 	.db #0x0e	; 14
   309C 00                11987 	.db #0x00	; 0
   309D 38                11988 	.db #0x38	; 56	'8'
   309E 38                11989 	.db #0x38	; 56	'8'
   309F 44                11990 	.db #0x44	; 68	'D'
   30A0 2A                11991 	.db #0x2a	; 42
   30A1 56                11992 	.db #0x56	; 86	'V'
   30A2 16                11993 	.db #0x16	; 22
   30A3 2E                11994 	.db #0x2e	; 46
   30A4 28                11995 	.db #0x28	; 40
   30A5 54                11996 	.db #0x54	; 84	'T'
   30A6 3A                11997 	.db #0x3a	; 58
   30A7 46                11998 	.db #0x46	; 70	'F'
   30A8 06                11999 	.db #0x06	; 6
   30A9 3E                12000 	.db #0x3e	; 62
   30AA 3C                12001 	.db #0x3c	; 60
   30AB 3C                12002 	.db #0x3c	; 60
   30AC 00                12003 	.db #0x00	; 0
   30AD 7C                12004 	.db #0x7c	; 124
   30AE 3A                12005 	.db #0x3a	; 58
   30AF 46                12006 	.db #0x46	; 70	'F'
   30B0 2A                12007 	.db #0x2a	; 42
   30B1 56                12008 	.db #0x56	; 86	'V'
   30B2 3A                12009 	.db #0x3a	; 58
   30B3 46                12010 	.db #0x46	; 70	'F'
   30B4 0A                12011 	.db #0x0a	; 10
   30B5 76                12012 	.db #0x76	; 118	'v'
   30B6 2A                12013 	.db #0x2a	; 42
   30B7 36                12014 	.db #0x36	; 54	'6'
   30B8 02                12015 	.db #0x02	; 2
   30B9 1E                12016 	.db #0x1e	; 30
   30BA 0E                12017 	.db #0x0e	; 14
   30BB 0E                12018 	.db #0x0e	; 14
   30BC 00                12019 	.db #0x00	; 0
   30BD 00                12020 	.db #0x00	; 0
   30BE FF                12021 	.db #0xff	; 255
   30BF FF                12022 	.db #0xff	; 255
   30C0 FF                12023 	.db #0xff	; 255
   30C1 FF                12024 	.db #0xff	; 255
   30C2 FF                12025 	.db #0xff	; 255
   30C3 FF                12026 	.db #0xff	; 255
   30C4 FF                12027 	.db #0xff	; 255
   30C5 FF                12028 	.db #0xff	; 255
   30C6 FF                12029 	.db #0xff	; 255
   30C7 FF                12030 	.db #0xff	; 255
   30C8 FF                12031 	.db #0xff	; 255
   30C9 FF                12032 	.db #0xff	; 255
   30CA FF                12033 	.db #0xff	; 255
   30CB FF                12034 	.db #0xff	; 255
   30CC FF                12035 	.db #0xff	; 255
   30CD FF                12036 	.db #0xff	; 255
   30CE FF                12037 	.db #0xff	; 255
   30CF FF                12038 	.db #0xff	; 255
   30D0 FF                12039 	.db #0xff	; 255
   30D1 FF                12040 	.db #0xff	; 255
   30D2 FF                12041 	.db #0xff	; 255
   30D3 FF                12042 	.db #0xff	; 255
   30D4 FF                12043 	.db #0xff	; 255
   30D5 FF                12044 	.db #0xff	; 255
   30D6 FF                12045 	.db #0xff	; 255
   30D7 FF                12046 	.db #0xff	; 255
   30D8 FF                12047 	.db #0xff	; 255
   30D9 FF                12048 	.db #0xff	; 255
   30DA FF                12049 	.db #0xff	; 255
   30DB FF                12050 	.db #0xff	; 255
   30DC 00                12051 	.db #0x00	; 0
   30DD 7C                12052 	.db #0x7c	; 124
   30DE 3A                12053 	.db #0x3a	; 58
   30DF 46                12054 	.db #0x46	; 70	'F'
   30E0 2A                12055 	.db #0x2a	; 42
   30E1 56                12056 	.db #0x56	; 86	'V'
   30E2 2A                12057 	.db #0x2a	; 42
   30E3 56                12058 	.db #0x56	; 86	'V'
   30E4 3A                12059 	.db #0x3a	; 58
   30E5 46                12060 	.db #0x46	; 70	'F'
   30E6 2A                12061 	.db #0x2a	; 42
   30E7 56                12062 	.db #0x56	; 86	'V'
   30E8 12                12063 	.db #0x12	; 18
   30E9 7E                12064 	.db #0x7e	; 126
   30EA 36                12065 	.db #0x36	; 54	'6'
   30EB 36                12066 	.db #0x36	; 54	'6'
   30EC 00                12067 	.db #0x00	; 0
   30ED 78                12068 	.db #0x78	; 120	'x'
   30EE 38                12069 	.db #0x38	; 56	'8'
   30EF 44                12070 	.db #0x44	; 68	'D'
   30F0 2A                12071 	.db #0x2a	; 42
   30F1 56                12072 	.db #0x56	; 86	'V'
   30F2 36                12073 	.db #0x36	; 54	'6'
   30F3 4E                12074 	.db #0x4e	; 78	'N'
   30F4 28                12075 	.db #0x28	; 40
   30F5 54                12076 	.db #0x54	; 84	'T'
   30F6 3A                12077 	.db #0x3a	; 58
   30F7 46                12078 	.db #0x46	; 70	'F'
   30F8 06                12079 	.db #0x06	; 6
   30F9 7E                12080 	.db #0x7e	; 126
   30FA 3C                12081 	.db #0x3c	; 60
   30FB 3C                12082 	.db #0x3c	; 60
   30FC 00                12083 	.db #0x00	; 0
   30FD 7C                12084 	.db #0x7c	; 124
   30FE 3A                12085 	.db #0x3a	; 58
   30FF 46                12086 	.db #0x46	; 70	'F'
   3100 22                12087 	.db #0x22	; 34
   3101 5E                12088 	.db #0x5e	; 94
   3102 2E                12089 	.db #0x2e	; 46
   3103 5E                12090 	.db #0x5e	; 94
   3104 20                12091 	.db #0x20	; 32
   3105 5C                12092 	.db #0x5c	; 92
   3106 3A                12093 	.db #0x3a	; 58
   3107 46                12094 	.db #0x46	; 70	'F'
   3108 02                12095 	.db #0x02	; 2
   3109 7E                12096 	.db #0x7e	; 126
   310A 3E                12097 	.db #0x3e	; 62
   310B 3E                12098 	.db #0x3e	; 62
   310C 00                12099 	.db #0x00	; 0
   310D 78                12100 	.db #0x78	; 120	'x'
   310E 30                12101 	.db #0x30	; 48	'0'
   310F 4C                12102 	.db #0x4c	; 76	'L'
   3110 2A                12103 	.db #0x2a	; 42
   3111 56                12104 	.db #0x56	; 86	'V'
   3112 2A                12105 	.db #0x2a	; 42
   3113 56                12106 	.db #0x56	; 86	'V'
   3114 2A                12107 	.db #0x2a	; 42
   3115 56                12108 	.db #0x56	; 86	'V'
   3116 32                12109 	.db #0x32	; 50	'2'
   3117 4E                12110 	.db #0x4e	; 78	'N'
   3118 06                12111 	.db #0x06	; 6
   3119 7E                12112 	.db #0x7e	; 126
   311A 3C                12113 	.db #0x3c	; 60
   311B 3C                12114 	.db #0x3c	; 60
   311C 00                12115 	.db #0x00	; 0
   311D 7C                12116 	.db #0x7c	; 124
   311E 3A                12117 	.db #0x3a	; 58
   311F 46                12118 	.db #0x46	; 70	'F'
   3120 26                12119 	.db #0x26	; 38
   3121 5E                12120 	.db #0x5e	; 94
   3122 38                12121 	.db #0x38	; 56	'8'
   3123 44                12122 	.db #0x44	; 68	'D'
   3124 26                12123 	.db #0x26	; 38
   3125 5E                12124 	.db #0x5e	; 94
   3126 38                12125 	.db #0x38	; 56	'8'
   3127 44                12126 	.db #0x44	; 68	'D'
   3128 02                12127 	.db #0x02	; 2
   3129 7E                12128 	.db #0x7e	; 126
   312A 3E                12129 	.db #0x3e	; 62
   312B 3E                12130 	.db #0x3e	; 62
   312C 00                12131 	.db #0x00	; 0
   312D 7C                12132 	.db #0x7c	; 124
   312E 3A                12133 	.db #0x3a	; 58
   312F 46                12134 	.db #0x46	; 70	'F'
   3130 26                12135 	.db #0x26	; 38
   3131 5E                12136 	.db #0x5e	; 94
   3132 38                12137 	.db #0x38	; 56	'8'
   3133 44                12138 	.db #0x44	; 68	'D'
   3134 22                12139 	.db #0x22	; 34
   3135 5E                12140 	.db #0x5e	; 94
   3136 2E                12141 	.db #0x2e	; 46
   3137 5E                12142 	.db #0x5e	; 94
   3138 08                12143 	.db #0x08	; 8
   3139 78                12144 	.db #0x78	; 120	'x'
   313A 38                12145 	.db #0x38	; 56	'8'
   313B 38                12146 	.db #0x38	; 56	'8'
   313C 00                12147 	.db #0x00	; 0
   313D 3C                12148 	.db #0x3c	; 60
   313E 1A                12149 	.db #0x1a	; 26
   313F 66                12150 	.db #0x66	; 102	'f'
   3140 22                12151 	.db #0x22	; 34
   3141 5E                12152 	.db #0x5e	; 94
   3142 2A                12153 	.db #0x2a	; 42
   3143 56                12154 	.db #0x56	; 86	'V'
   3144 2A                12155 	.db #0x2a	; 42
   3145 56                12156 	.db #0x56	; 86	'V'
   3146 1A                12157 	.db #0x1a	; 26
   3147 66                12158 	.db #0x66	; 102	'f'
   3148 02                12159 	.db #0x02	; 2
   3149 3E                12160 	.db #0x3e	; 62
   314A 1E                12161 	.db #0x1e	; 30
   314B 1E                12162 	.db #0x1e	; 30
   314C 00                12163 	.db #0x00	; 0
   314D 7C                12164 	.db #0x7c	; 124
   314E 2A                12165 	.db #0x2a	; 42
   314F 56                12166 	.db #0x56	; 86	'V'
   3150 2A                12167 	.db #0x2a	; 42
   3151 56                12168 	.db #0x56	; 86	'V'
   3152 3A                12169 	.db #0x3a	; 58
   3153 46                12170 	.db #0x46	; 70	'F'
   3154 2A                12171 	.db #0x2a	; 42
   3155 56                12172 	.db #0x56	; 86	'V'
   3156 2A                12173 	.db #0x2a	; 42
   3157 56                12174 	.db #0x56	; 86	'V'
   3158 12                12175 	.db #0x12	; 18
   3159 7E                12176 	.db #0x7e	; 126
   315A 36                12177 	.db #0x36	; 54	'6'
   315B 36                12178 	.db #0x36	; 54	'6'
   315C 00                12179 	.db #0x00	; 0
   315D 38                12180 	.db #0x38	; 56	'8'
   315E 14                12181 	.db #0x14	; 20
   315F 2C                12182 	.db #0x2c	; 44
   3160 14                12183 	.db #0x14	; 20
   3161 2C                12184 	.db #0x2c	; 44
   3162 14                12185 	.db #0x14	; 20
   3163 2C                12186 	.db #0x2c	; 44
   3164 14                12187 	.db #0x14	; 20
   3165 2C                12188 	.db #0x2c	; 44
   3166 14                12189 	.db #0x14	; 20
   3167 2C                12190 	.db #0x2c	; 44
   3168 04                12191 	.db #0x04	; 4
   3169 3C                12192 	.db #0x3c	; 60
   316A 1C                12193 	.db #0x1c	; 28
   316B 1C                12194 	.db #0x1c	; 28
   316C 00                12195 	.db #0x00	; 0
   316D 1C                12196 	.db #0x1c	; 28
   316E 0A                12197 	.db #0x0a	; 10
   316F 16                12198 	.db #0x16	; 22
   3170 0A                12199 	.db #0x0a	; 10
   3171 16                12200 	.db #0x16	; 22
   3172 0A                12201 	.db #0x0a	; 10
   3173 76                12202 	.db #0x76	; 118	'v'
   3174 2A                12203 	.db #0x2a	; 42
   3175 56                12204 	.db #0x56	; 86	'V'
   3176 12                12205 	.db #0x12	; 18
   3177 6E                12206 	.db #0x6e	; 110	'n'
   3178 06                12207 	.db #0x06	; 6
   3179 3E                12208 	.db #0x3e	; 62
   317A 1C                12209 	.db #0x1c	; 28
   317B 1C                12210 	.db #0x1c	; 28
   317C 00                12211 	.db #0x00	; 0
   317D 7C                12212 	.db #0x7c	; 124
   317E 2A                12213 	.db #0x2a	; 42
   317F 56                12214 	.db #0x56	; 86	'V'
   3180 2A                12215 	.db #0x2a	; 42
   3181 56                12216 	.db #0x56	; 86	'V'
   3182 36                12217 	.db #0x36	; 54	'6'
   3183 4E                12218 	.db #0x4e	; 78	'N'
   3184 28                12219 	.db #0x28	; 40
   3185 54                12220 	.db #0x54	; 84	'T'
   3186 2A                12221 	.db #0x2a	; 42
   3187 56                12222 	.db #0x56	; 86	'V'
   3188 12                12223 	.db #0x12	; 18
   3189 7E                12224 	.db #0x7e	; 126
   318A 36                12225 	.db #0x36	; 54	'6'
   318B 36                12226 	.db #0x36	; 54	'6'
   318C 00                12227 	.db #0x00	; 0
   318D 70                12228 	.db #0x70	; 112	'p'
   318E 28                12229 	.db #0x28	; 40
   318F 58                12230 	.db #0x58	; 88	'X'
   3190 28                12231 	.db #0x28	; 40
   3191 58                12232 	.db #0x58	; 88	'X'
   3192 28                12233 	.db #0x28	; 40
   3193 58                12234 	.db #0x58	; 88	'X'
   3194 20                12235 	.db #0x20	; 32
   3195 5C                12236 	.db #0x5c	; 92
   3196 3A                12237 	.db #0x3a	; 58
   3197 46                12238 	.db #0x46	; 70	'F'
   3198 02                12239 	.db #0x02	; 2
   3199 7E                12240 	.db #0x7e	; 126
   319A 3E                12241 	.db #0x3e	; 62
   319B 3E                12242 	.db #0x3e	; 62
   319C 00                12243 	.db #0x00	; 0
   319D 6C                12244 	.db #0x6c	; 108	'l'
   319E 2A                12245 	.db #0x2a	; 42
   319F 56                12246 	.db #0x56	; 86	'V'
   31A0 3A                12247 	.db #0x3a	; 58
   31A1 46                12248 	.db #0x46	; 70	'F'
   31A2 2A                12249 	.db #0x2a	; 42
   31A3 56                12250 	.db #0x56	; 86	'V'
   31A4 2A                12251 	.db #0x2a	; 42
   31A5 56                12252 	.db #0x56	; 86	'V'
   31A6 2A                12253 	.db #0x2a	; 42
   31A7 56                12254 	.db #0x56	; 86	'V'
   31A8 12                12255 	.db #0x12	; 18
   31A9 7E                12256 	.db #0x7e	; 126
   31AA 36                12257 	.db #0x36	; 54	'6'
   31AB 36                12258 	.db #0x36	; 54	'6'
   31AC 00                12259 	.db #0x00	; 0
   31AD 6C                12260 	.db #0x6c	; 108	'l'
   31AE 2A                12261 	.db #0x2a	; 42
   31AF 56                12262 	.db #0x56	; 86	'V'
   31B0 3A                12263 	.db #0x3a	; 58
   31B1 46                12264 	.db #0x46	; 70	'F'
   31B2 3A                12265 	.db #0x3a	; 58
   31B3 46                12266 	.db #0x46	; 70	'F'
   31B4 2A                12267 	.db #0x2a	; 42
   31B5 56                12268 	.db #0x56	; 86	'V'
   31B6 2A                12269 	.db #0x2a	; 42
   31B7 56                12270 	.db #0x56	; 86	'V'
   31B8 12                12271 	.db #0x12	; 18
   31B9 7E                12272 	.db #0x7e	; 126
   31BA 36                12273 	.db #0x36	; 54	'6'
   31BB 36                12274 	.db #0x36	; 54	'6'
   31BC 00                12275 	.db #0x00	; 0
   31BD 38                12276 	.db #0x38	; 56	'8'
   31BE 38                12277 	.db #0x38	; 56	'8'
   31BF 44                12278 	.db #0x44	; 68	'D'
   31C0 2A                12279 	.db #0x2a	; 42
   31C1 56                12280 	.db #0x56	; 86	'V'
   31C2 2A                12281 	.db #0x2a	; 42
   31C3 56                12282 	.db #0x56	; 86	'V'
   31C4 2A                12283 	.db #0x2a	; 42
   31C5 56                12284 	.db #0x56	; 86	'V'
   31C6 3A                12285 	.db #0x3a	; 58
   31C7 46                12286 	.db #0x46	; 70	'F'
   31C8 06                12287 	.db #0x06	; 6
   31C9 3E                12288 	.db #0x3e	; 62
   31CA 1C                12289 	.db #0x1c	; 28
   31CB 1C                12290 	.db #0x1c	; 28
   31CC 00                12291 	.db #0x00	; 0
   31CD 78                12292 	.db #0x78	; 120	'x'
   31CE 38                12293 	.db #0x38	; 56	'8'
   31CF 44                12294 	.db #0x44	; 68	'D'
   31D0 2A                12295 	.db #0x2a	; 42
   31D1 56                12296 	.db #0x56	; 86	'V'
   31D2 3A                12297 	.db #0x3a	; 58
   31D3 46                12298 	.db #0x46	; 70	'F'
   31D4 26                12299 	.db #0x26	; 38
   31D5 5E                12300 	.db #0x5e	; 94
   31D6 2C                12301 	.db #0x2c	; 44
   31D7 5C                12302 	.db #0x5c	; 92
   31D8 08                12303 	.db #0x08	; 8
   31D9 78                12304 	.db #0x78	; 120	'x'
   31DA 38                12305 	.db #0x38	; 56	'8'
   31DB 38                12306 	.db #0x38	; 56	'8'
   31DC 00                12307 	.db #0x00	; 0
   31DD 38                12308 	.db #0x38	; 56	'8'
   31DE 38                12309 	.db #0x38	; 56	'8'
   31DF 44                12310 	.db #0x44	; 68	'D'
   31E0 2A                12311 	.db #0x2a	; 42
   31E1 56                12312 	.db #0x56	; 86	'V'
   31E2 2A                12313 	.db #0x2a	; 42
   31E3 56                12314 	.db #0x56	; 86	'V'
   31E4 2A                12315 	.db #0x2a	; 42
   31E5 56                12316 	.db #0x56	; 86	'V'
   31E6 3E                12317 	.db #0x3e	; 62
   31E7 42                12318 	.db #0x42	; 66	'B'
   31E8 02                12319 	.db #0x02	; 2
   31E9 3E                12320 	.db #0x3e	; 62
   31EA 1E                12321 	.db #0x1e	; 30
   31EB 1E                12322 	.db #0x1e	; 30
   31EC 00                12323 	.db #0x00	; 0
   31ED 78                12324 	.db #0x78	; 120	'x'
   31EE 38                12325 	.db #0x38	; 56	'8'
   31EF 44                12326 	.db #0x44	; 68	'D'
   31F0 2A                12327 	.db #0x2a	; 42
   31F1 56                12328 	.db #0x56	; 86	'V'
   31F2 36                12329 	.db #0x36	; 54	'6'
   31F3 4E                12330 	.db #0x4e	; 78	'N'
   31F4 28                12331 	.db #0x28	; 40
   31F5 54                12332 	.db #0x54	; 84	'T'
   31F6 2A                12333 	.db #0x2a	; 42
   31F7 56                12334 	.db #0x56	; 86	'V'
   31F8 12                12335 	.db #0x12	; 18
   31F9 7E                12336 	.db #0x7e	; 126
   31FA 36                12337 	.db #0x36	; 54	'6'
   31FB 36                12338 	.db #0x36	; 54	'6'
   31FC 00                12339 	.db #0x00	; 0
   31FD 1C                12340 	.db #0x1c	; 28
   31FE 1A                12341 	.db #0x1a	; 26
   31FF 26                12342 	.db #0x26	; 38
   3200 22                12343 	.db #0x22	; 34
   3201 5E                12344 	.db #0x5e	; 94
   3202 16                12345 	.db #0x16	; 22
   3203 2E                12346 	.db #0x2e	; 46
   3204 08                12347 	.db #0x08	; 8
   3205 74                12348 	.db #0x74	; 116	't'
   3206 32                12349 	.db #0x32	; 50	'2'
   3207 4E                12350 	.db #0x4e	; 78	'N'
   3208 06                12351 	.db #0x06	; 6
   3209 7E                12352 	.db #0x7e	; 126
   320A 3C                12353 	.db #0x3c	; 60
   320B 3C                12354 	.db #0x3c	; 60
   320C 00                12355 	.db #0x00	; 0
   320D 7C                12356 	.db #0x7c	; 124
   320E 3A                12357 	.db #0x3a	; 58
   320F 46                12358 	.db #0x46	; 70	'F'
   3210 12                12359 	.db #0x12	; 18
   3211 6E                12360 	.db #0x6e	; 110	'n'
   3212 16                12361 	.db #0x16	; 22
   3213 2E                12362 	.db #0x2e	; 46
   3214 14                12363 	.db #0x14	; 20
   3215 2C                12364 	.db #0x2c	; 44
   3216 14                12365 	.db #0x14	; 20
   3217 2C                12366 	.db #0x2c	; 44
   3218 04                12367 	.db #0x04	; 4
   3219 3C                12368 	.db #0x3c	; 60
   321A 1C                12369 	.db #0x1c	; 28
   321B 1C                12370 	.db #0x1c	; 28
   321C 00                12371 	.db #0x00	; 0
   321D 7C                12372 	.db #0x7c	; 124
   321E 2A                12373 	.db #0x2a	; 42
   321F 56                12374 	.db #0x56	; 86	'V'
   3220 2A                12375 	.db #0x2a	; 42
   3221 56                12376 	.db #0x56	; 86	'V'
   3222 2A                12377 	.db #0x2a	; 42
   3223 56                12378 	.db #0x56	; 86	'V'
   3224 2A                12379 	.db #0x2a	; 42
   3225 56                12380 	.db #0x56	; 86	'V'
   3226 3A                12381 	.db #0x3a	; 58
   3227 46                12382 	.db #0x46	; 70	'F'
   3228 02                12383 	.db #0x02	; 2
   3229 7E                12384 	.db #0x7e	; 126
   322A 3E                12385 	.db #0x3e	; 62
   322B 3E                12386 	.db #0x3e	; 62
   322C 00                12387 	.db #0x00	; 0
   322D 6C                12388 	.db #0x6c	; 108	'l'
   322E 2A                12389 	.db #0x2a	; 42
   322F 56                12390 	.db #0x56	; 86	'V'
   3230 2A                12391 	.db #0x2a	; 42
   3231 56                12392 	.db #0x56	; 86	'V'
   3232 2A                12393 	.db #0x2a	; 42
   3233 56                12394 	.db #0x56	; 86	'V'
   3234 2A                12395 	.db #0x2a	; 42
   3235 56                12396 	.db #0x56	; 86	'V'
   3236 16                12397 	.db #0x16	; 22
   3237 2E                12398 	.db #0x2e	; 46
   3238 0C                12399 	.db #0x0c	; 12
   3239 1C                12400 	.db #0x1c	; 28
   323A 08                12401 	.db #0x08	; 8
   323B 08                12402 	.db #0x08	; 8
   323C 00                12403 	.db #0x00	; 0
   323D 6C                12404 	.db #0x6c	; 108	'l'
   323E 2A                12405 	.db #0x2a	; 42
   323F 56                12406 	.db #0x56	; 86	'V'
   3240 2A                12407 	.db #0x2a	; 42
   3241 56                12408 	.db #0x56	; 86	'V'
   3242 2A                12409 	.db #0x2a	; 42
   3243 56                12410 	.db #0x56	; 86	'V'
   3244 3A                12411 	.db #0x3a	; 58
   3245 46                12412 	.db #0x46	; 70	'F'
   3246 2A                12413 	.db #0x2a	; 42
   3247 56                12414 	.db #0x56	; 86	'V'
   3248 12                12415 	.db #0x12	; 18
   3249 7E                12416 	.db #0x7e	; 126
   324A 36                12417 	.db #0x36	; 54	'6'
   324B 36                12418 	.db #0x36	; 54	'6'
   324C 00                12419 	.db #0x00	; 0
   324D 6C                12420 	.db #0x6c	; 108	'l'
   324E 2A                12421 	.db #0x2a	; 42
   324F 56                12422 	.db #0x56	; 86	'V'
   3250 2A                12423 	.db #0x2a	; 42
   3251 56                12424 	.db #0x56	; 86	'V'
   3252 16                12425 	.db #0x16	; 22
   3253 2E                12426 	.db #0x2e	; 46
   3254 28                12427 	.db #0x28	; 40
   3255 54                12428 	.db #0x54	; 84	'T'
   3256 2A                12429 	.db #0x2a	; 42
   3257 56                12430 	.db #0x56	; 86	'V'
   3258 12                12431 	.db #0x12	; 18
   3259 7E                12432 	.db #0x7e	; 126
   325A 36                12433 	.db #0x36	; 54	'6'
   325B 36                12434 	.db #0x36	; 54	'6'
   325C 00                12435 	.db #0x00	; 0
   325D 6C                12436 	.db #0x6c	; 108	'l'
   325E 2A                12437 	.db #0x2a	; 42
   325F 56                12438 	.db #0x56	; 86	'V'
   3260 2A                12439 	.db #0x2a	; 42
   3261 56                12440 	.db #0x56	; 86	'V'
   3262 12                12441 	.db #0x12	; 18
   3263 6E                12442 	.db #0x6e	; 110	'n'
   3264 16                12443 	.db #0x16	; 22
   3265 2E                12444 	.db #0x2e	; 46
   3266 14                12445 	.db #0x14	; 20
   3267 2C                12446 	.db #0x2c	; 44
   3268 04                12447 	.db #0x04	; 4
   3269 3C                12448 	.db #0x3c	; 60
   326A 1C                12449 	.db #0x1c	; 28
   326B 1C                12450 	.db #0x1c	; 28
   326C 00                12451 	.db #0x00	; 0
   326D 7C                12452 	.db #0x7c	; 124
   326E 3A                12453 	.db #0x3a	; 58
   326F 46                12454 	.db #0x46	; 70	'F'
   3270 0A                12455 	.db #0x0a	; 10
   3271 76                12456 	.db #0x76	; 118	'v'
   3272 16                12457 	.db #0x16	; 22
   3273 2E                12458 	.db #0x2e	; 46
   3274 20                12459 	.db #0x20	; 32
   3275 5C                12460 	.db #0x5c	; 92
   3276 3A                12461 	.db #0x3a	; 58
   3277 46                12462 	.db #0x46	; 70	'F'
   3278 02                12463 	.db #0x02	; 2
   3279 7E                12464 	.db #0x7e	; 126
   327A 3E                12465 	.db #0x3e	; 62
   327B 3E                12466 	.db #0x3e	; 62
   327C 00                12467 	.db #0x00	; 0
   327D 0C                12468 	.db #0x0c	; 12
   327E 0A                12469 	.db #0x0a	; 10
   327F 16                12470 	.db #0x16	; 22
   3280 1A                12471 	.db #0x1a	; 26
   3281 26                12472 	.db #0x26	; 38
   3282 3A                12473 	.db #0x3a	; 58
   3283 46                12474 	.db #0x46	; 70	'F'
   3284 1A                12475 	.db #0x1a	; 26
   3285 26                12476 	.db #0x26	; 38
   3286 0A                12477 	.db #0x0a	; 10
   3287 16                12478 	.db #0x16	; 22
   3288 02                12479 	.db #0x02	; 2
   3289 0E                12480 	.db #0x0e	; 14
   328A 06                12481 	.db #0x06	; 6
   328B 06                12482 	.db #0x06	; 6
   328C 0C                12483 	.db #0x0c	; 12
   328D 00                12484 	.db #0x00	; 0
   328E 16                12485 	.db #0x16	; 22
   328F 0A                12486 	.db #0x0a	; 10
   3290 26                12487 	.db #0x26	; 38
   3291 1A                12488 	.db #0x1a	; 26
   3292 46                12489 	.db #0x46	; 70	'F'
   3293 3A                12490 	.db #0x3a	; 58
   3294 26                12491 	.db #0x26	; 38
   3295 1A                12492 	.db #0x1a	; 26
   3296 16                12493 	.db #0x16	; 22
   3297 0A                12494 	.db #0x0a	; 10
   3298 0E                12495 	.db #0x0e	; 14
   3299 02                12496 	.db #0x02	; 2
   329A 06                12497 	.db #0x06	; 6
   329B 06                12498 	.db #0x06	; 6
   329C 00                12499 	.db #0x00	; 0
   329D 30                12500 	.db #0x30	; 48	'0'
   329E 10                12501 	.db #0x10	; 16
   329F 28                12502 	.db #0x28	; 40
   32A0 18                12503 	.db #0x18	; 24
   32A1 24                12504 	.db #0x24	; 36
   32A2 1C                12505 	.db #0x1c	; 28
   32A3 22                12506 	.db #0x22	; 34
   32A4 1B                12507 	.db #0x1b	; 27
   32A5 27                12508 	.db #0x27	; 39
   32A6 16                12509 	.db #0x16	; 22
   32A7 2E                12510 	.db #0x2e	; 46
   32A8 0C                12511 	.db #0x0c	; 12
   32A9 3C                12512 	.db #0x3c	; 60
   32AA 18                12513 	.db #0x18	; 24
   32AB 18                12514 	.db #0x18	; 24
   32AC 30                12515 	.db #0x30	; 48	'0'
   32AD 00                12516 	.db #0x00	; 0
   32AE 28                12517 	.db #0x28	; 40
   32AF 10                12518 	.db #0x10	; 16
   32B0 24                12519 	.db #0x24	; 36
   32B1 18                12520 	.db #0x18	; 24
   32B2 22                12521 	.db #0x22	; 34
   32B3 1C                12522 	.db #0x1c	; 28
   32B4 27                12523 	.db #0x27	; 39
   32B5 1B                12524 	.db #0x1b	; 27
   32B6 2E                12525 	.db #0x2e	; 46
   32B7 16                12526 	.db #0x16	; 22
   32B8 3C                12527 	.db #0x3c	; 60
   32B9 0C                12528 	.db #0x0c	; 12
   32BA 18                12529 	.db #0x18	; 24
   32BB 18                12530 	.db #0x18	; 24
   32BC                   12531 _cave_tiles:
   32BC FF                12532 	.db #0xff	; 255
   32BD 00                12533 	.db #0x00	; 0
   32BE FF                12534 	.db #0xff	; 255
   32BF 00                12535 	.db #0x00	; 0
   32C0 FF                12536 	.db #0xff	; 255
   32C1 00                12537 	.db #0x00	; 0
   32C2 FF                12538 	.db #0xff	; 255
   32C3 00                12539 	.db #0x00	; 0
   32C4 FF                12540 	.db #0xff	; 255
   32C5 00                12541 	.db #0x00	; 0
   32C6 FF                12542 	.db #0xff	; 255
   32C7 00                12543 	.db #0x00	; 0
   32C8 FF                12544 	.db #0xff	; 255
   32C9 00                12545 	.db #0x00	; 0
   32CA FF                12546 	.db #0xff	; 255
   32CB 00                12547 	.db #0x00	; 0
   32CC 80                12548 	.db #0x80	; 128
   32CD 95                12549 	.db #0x95	; 149
   32CE 81                12550 	.db #0x81	; 129
   32CF DF                12551 	.db #0xdf	; 223
   32D0 CF                12552 	.db #0xcf	; 207
   32D1 7E                12553 	.db #0x7e	; 126
   32D2 DF                12554 	.db #0xdf	; 223
   32D3 70                12555 	.db #0x70	; 112	'p'
   32D4 DF                12556 	.db #0xdf	; 223
   32D5 70                12557 	.db #0x70	; 112	'p'
   32D6 FF                12558 	.db #0xff	; 255
   32D7 20                12559 	.db #0x20	; 32
   32D8 FF                12560 	.db #0xff	; 255
   32D9 20                12561 	.db #0x20	; 32
   32DA FF                12562 	.db #0xff	; 255
   32DB 00                12563 	.db #0x00	; 0
   32DC 01                12564 	.db #0x01	; 1
   32DD 5F                12565 	.db #0x5f	; 95
   32DE 13                12566 	.db #0x13	; 19
   32DF B6                12567 	.db #0xb6	; 182
   32E0 FB                12568 	.db #0xfb	; 251
   32E1 EE                12569 	.db #0xee	; 238
   32E2 FB                12570 	.db #0xfb	; 251
   32E3 0E                12571 	.db #0x0e	; 14
   32E4 FB                12572 	.db #0xfb	; 251
   32E5 0E                12573 	.db #0x0e	; 14
   32E6 FF                12574 	.db #0xff	; 255
   32E7 04                12575 	.db #0x04	; 4
   32E8 FF                12576 	.db #0xff	; 255
   32E9 04                12577 	.db #0x04	; 4
   32EA FF                12578 	.db #0xff	; 255
   32EB 00                12579 	.db #0x00	; 0
   32EC 00                12580 	.db #0x00	; 0
   32ED 9A                12581 	.db #0x9a	; 154
   32EE 08                12582 	.db #0x08	; 8
   32EF 6A                12583 	.db #0x6a	; 106	'j'
   32F0 9E                12584 	.db #0x9e	; 158
   32F1 DF                12585 	.db #0xdf	; 223
   32F2 BE                12586 	.db #0xbe	; 190
   32F3 B3                12587 	.db #0xb3	; 179
   32F4 BE                12588 	.db #0xbe	; 190
   32F5 E3                12589 	.db #0xe3	; 227
   32F6 BF                12590 	.db #0xbf	; 191
   32F7 E1                12591 	.db #0xe1	; 225
   32F8 FF                12592 	.db #0xff	; 255
   32F9 60                12593 	.db #0x60	; 96
   32FA FF                12594 	.db #0xff	; 255
   32FB 40                12595 	.db #0x40	; 64
   32FC 11                12596 	.db #0x11	; 17
   32FD F5                12597 	.db #0xf5	; 245
   32FE 20                12598 	.db #0x20	; 32
   32FF 39                12599 	.db #0x39	; 57	'9'
   3300 71                12600 	.db #0x71	; 113	'q'
   3301 D3                12601 	.db #0xd3	; 211
   3302 7B                12602 	.db #0x7b	; 123
   3303 5F                12603 	.db #0x5f	; 95
   3304 FF                12604 	.db #0xff	; 255
   3305 86                12605 	.db #0x86	; 134
   3306 FF                12606 	.db #0xff	; 255
   3307 00                12607 	.db #0x00	; 0
   3308 FF                12608 	.db #0xff	; 255
   3309 00                12609 	.db #0x00	; 0
   330A FF                12610 	.db #0xff	; 255
   330B 00                12611 	.db #0x00	; 0
   330C FF                12612 	.db #0xff	; 255
   330D FF                12613 	.db #0xff	; 255
   330E 00                12614 	.db #0x00	; 0
   330F 00                12615 	.db #0x00	; 0
   3310 00                12616 	.db #0x00	; 0
   3311 04                12617 	.db #0x04	; 4
   3312 00                12618 	.db #0x00	; 0
   3313 AE                12619 	.db #0xae	; 174
   3314 00                12620 	.db #0x00	; 0
   3315 14                12621 	.db #0x14	; 20
   3316 00                12622 	.db #0x00	; 0
   3317 B2                12623 	.db #0xb2	; 178
   3318 00                12624 	.db #0x00	; 0
   3319 AD                12625 	.db #0xad	; 173
   331A 00                12626 	.db #0x00	; 0
   331B 7B                12627 	.db #0x7b	; 123
   331C 01                12628 	.db #0x01	; 1
   331D DB                12629 	.db #0xdb	; 219
   331E 01                12630 	.db #0x01	; 1
   331F EB                12631 	.db #0xeb	; 235
   3320 01                12632 	.db #0x01	; 1
   3321 4D                12633 	.db #0x4d	; 77	'M'
   3322 01                12634 	.db #0x01	; 1
   3323 EF                12635 	.db #0xef	; 239
   3324 01                12636 	.db #0x01	; 1
   3325 15                12637 	.db #0x15	; 21
   3326 01                12638 	.db #0x01	; 1
   3327 B3                12639 	.db #0xb3	; 179
   3328 01                12640 	.db #0x01	; 1
   3329 AD                12641 	.db #0xad	; 173
   332A 01                12642 	.db #0x01	; 1
   332B 7B                12643 	.db #0x7b	; 123
   332C 00                12644 	.db #0x00	; 0
   332D DA                12645 	.db #0xda	; 218
   332E 00                12646 	.db #0x00	; 0
   332F EB                12647 	.db #0xeb	; 235
   3330 00                12648 	.db #0x00	; 0
   3331 4D                12649 	.db #0x4d	; 77	'M'
   3332 00                12650 	.db #0x00	; 0
   3333 EE                12651 	.db #0xee	; 238
   3334 00                12652 	.db #0x00	; 0
   3335 14                12653 	.db #0x14	; 20
   3336 00                12654 	.db #0x00	; 0
   3337 B2                12655 	.db #0xb2	; 178
   3338 00                12656 	.db #0x00	; 0
   3339 AD                12657 	.db #0xad	; 173
   333A FF                12658 	.db #0xff	; 255
   333B FF                12659 	.db #0xff	; 255
   333C 80                12660 	.db #0x80	; 128
   333D DA                12661 	.db #0xda	; 218
   333E 80                12662 	.db #0x80	; 128
   333F EB                12663 	.db #0xeb	; 235
   3340 80                12664 	.db #0x80	; 128
   3341 CD                12665 	.db #0xcd	; 205
   3342 80                12666 	.db #0x80	; 128
   3343 EE                12667 	.db #0xee	; 238
   3344 80                12668 	.db #0x80	; 128
   3345 94                12669 	.db #0x94	; 148
   3346 80                12670 	.db #0x80	; 128
   3347 B2                12671 	.db #0xb2	; 178
   3348 80                12672 	.db #0x80	; 128
   3349 AD                12673 	.db #0xad	; 173
   334A 80                12674 	.db #0x80	; 128
   334B FB                12675 	.db #0xfb	; 251
   334C 00                12676 	.db #0x00	; 0
   334D DA                12677 	.db #0xda	; 218
   334E 00                12678 	.db #0x00	; 0
   334F EB                12679 	.db #0xeb	; 235
   3350 00                12680 	.db #0x00	; 0
   3351 4D                12681 	.db #0x4d	; 77	'M'
   3352 00                12682 	.db #0x00	; 0
   3353 EE                12683 	.db #0xee	; 238
   3354 00                12684 	.db #0x00	; 0
   3355 14                12685 	.db #0x14	; 20
   3356 00                12686 	.db #0x00	; 0
   3357 B2                12687 	.db #0xb2	; 178
   3358 00                12688 	.db #0x00	; 0
   3359 AD                12689 	.db #0xad	; 173
   335A 00                12690 	.db #0x00	; 0
   335B 7B                12691 	.db #0x7b	; 123
   335C E0                12692 	.db #0xe0	; 224
   335D 3A                12693 	.db #0x3a	; 58
   335E F8                12694 	.db #0xf8	; 248
   335F 1B                12695 	.db #0x1b	; 27
   3360 FC                12696 	.db #0xfc	; 252
   3361 05                12697 	.db #0x05	; 5
   3362 FE                12698 	.db #0xfe	; 254
   3363 02                12699 	.db #0x02	; 2
   3364 FE                12700 	.db #0xfe	; 254
   3365 02                12701 	.db #0x02	; 2
   3366 FC                12702 	.db #0xfc	; 252
   3367 06                12703 	.db #0x06	; 6
   3368 FC                12704 	.db #0xfc	; 252
   3369 0D                12705 	.db #0x0d	; 13
   336A F8                12706 	.db #0xf8	; 248
   336B 0B                12707 	.db #0x0b	; 11
   336C F8                12708 	.db #0xf8	; 248
   336D 0A                12709 	.db #0x0a	; 10
   336E F0                12710 	.db #0xf0	; 240
   336F 1B                12711 	.db #0x1b	; 27
   3370 F0                12712 	.db #0xf0	; 240
   3371 1D                12713 	.db #0x1d	; 29
   3372 F0                12714 	.db #0xf0	; 240
   3373 1E                12715 	.db #0x1e	; 30
   3374 F0                12716 	.db #0xf0	; 240
   3375 14                12717 	.db #0x14	; 20
   3376 F0                12718 	.db #0xf0	; 240
   3377 32                12719 	.db #0x32	; 50	'2'
   3378 E0                12720 	.db #0xe0	; 224
   3379 6D                12721 	.db #0x6d	; 109	'm'
   337A 80                12722 	.db #0x80	; 128
   337B FB                12723 	.db #0xfb	; 251
   337C F0                12724 	.db #0xf0	; 240
   337D 1A                12725 	.db #0x1a	; 26
   337E E0                12726 	.db #0xe0	; 224
   337F 2B                12727 	.db #0x2b	; 43
   3380 E0                12728 	.db #0xe0	; 224
   3381 2D                12729 	.db #0x2d	; 45
   3382 E0                12730 	.db #0xe0	; 224
   3383 2E                12731 	.db #0x2e	; 46
   3384 E0                12732 	.db #0xe0	; 224
   3385 34                12733 	.db #0x34	; 52	'4'
   3386 F0                12734 	.db #0xf0	; 240
   3387 32                12735 	.db #0x32	; 50	'2'
   3388 FC                12736 	.db #0xfc	; 252
   3389 0D                12737 	.db #0x0d	; 13
   338A FC                12738 	.db #0xfc	; 252
   338B 07                12739 	.db #0x07	; 7
   338C E0                12740 	.db #0xe0	; 224
   338D 3A                12741 	.db #0x3a	; 58
   338E F0                12742 	.db #0xf0	; 240
   338F 1B                12743 	.db #0x1b	; 27
   3390 F8                12744 	.db #0xf8	; 248
   3391 0D                12745 	.db #0x0d	; 13
   3392 F8                12746 	.db #0xf8	; 248
   3393 0E                12747 	.db #0x0e	; 14
   3394 F8                12748 	.db #0xf8	; 248
   3395 1C                12749 	.db #0x1c	; 28
   3396 F0                12750 	.db #0xf0	; 240
   3397 32                12751 	.db #0x32	; 50	'2'
   3398 E0                12752 	.db #0xe0	; 224
   3399 6D                12753 	.db #0x6d	; 109	'm'
   339A C0                12754 	.db #0xc0	; 192
   339B FB                12755 	.db #0xfb	; 251
   339C 07                12756 	.db #0x07	; 7
   339D 5C                12757 	.db #0x5c	; 92
   339E 1F                12758 	.db #0x1f	; 31
   339F D8                12759 	.db #0xd8	; 216
   33A0 3F                12760 	.db #0x3f	; 63
   33A1 A0                12761 	.db #0xa0	; 160
   33A2 7F                12762 	.db #0x7f	; 127
   33A3 40                12763 	.db #0x40	; 64
   33A4 7F                12764 	.db #0x7f	; 127
   33A5 40                12765 	.db #0x40	; 64
   33A6 3F                12766 	.db #0x3f	; 63
   33A7 60                12767 	.db #0x60	; 96
   33A8 3F                12768 	.db #0x3f	; 63
   33A9 B0                12769 	.db #0xb0	; 176
   33AA 1F                12770 	.db #0x1f	; 31
   33AB D0                12771 	.db #0xd0	; 208
   33AC 1F                12772 	.db #0x1f	; 31
   33AD D0                12773 	.db #0xd0	; 208
   33AE 0F                12774 	.db #0x0f	; 15
   33AF E8                12775 	.db #0xe8	; 232
   33B0 0F                12776 	.db #0x0f	; 15
   33B1 48                12777 	.db #0x48	; 72	'H'
   33B2 0F                12778 	.db #0x0f	; 15
   33B3 E8                12779 	.db #0xe8	; 232
   33B4 0F                12780 	.db #0x0f	; 15
   33B5 18                12781 	.db #0x18	; 24
   33B6 0F                12782 	.db #0x0f	; 15
   33B7 BC                12783 	.db #0xbc	; 188
   33B8 07                12784 	.db #0x07	; 7
   33B9 AE                12785 	.db #0xae	; 174
   33BA 01                12786 	.db #0x01	; 1
   33BB 7B                12787 	.db #0x7b	; 123
   33BC 0F                12788 	.db #0x0f	; 15
   33BD D8                12789 	.db #0xd8	; 216
   33BE 07                12790 	.db #0x07	; 7
   33BF EC                12791 	.db #0xec	; 236
   33C0 07                12792 	.db #0x07	; 7
   33C1 4C                12793 	.db #0x4c	; 76	'L'
   33C2 07                12794 	.db #0x07	; 7
   33C3 EC                12795 	.db #0xec	; 236
   33C4 07                12796 	.db #0x07	; 7
   33C5 14                12797 	.db #0x14	; 20
   33C6 0F                12798 	.db #0x0f	; 15
   33C7 BC                12799 	.db #0xbc	; 188
   33C8 3F                12800 	.db #0x3f	; 63
   33C9 B0                12801 	.db #0xb0	; 176
   33CA 3F                12802 	.db #0x3f	; 63
   33CB 60                12803 	.db #0x60	; 96
   33CC 07                12804 	.db #0x07	; 7
   33CD DC                12805 	.db #0xdc	; 220
   33CE 0F                12806 	.db #0x0f	; 15
   33CF E8                12807 	.db #0xe8	; 232
   33D0 1F                12808 	.db #0x1f	; 31
   33D1 50                12809 	.db #0x50	; 80	'P'
   33D2 1F                12810 	.db #0x1f	; 31
   33D3 F0                12811 	.db #0xf0	; 240
   33D4 1F                12812 	.db #0x1f	; 31
   33D5 18                12813 	.db #0x18	; 24
   33D6 0F                12814 	.db #0x0f	; 15
   33D7 BC                12815 	.db #0xbc	; 188
   33D8 07                12816 	.db #0x07	; 7
   33D9 AE                12817 	.db #0xae	; 174
   33DA 03                12818 	.db #0x03	; 3
   33DB 7B                12819 	.db #0x7b	; 123
   33DC FF                12820 	.db #0xff	; 255
   33DD 00                12821 	.db #0x00	; 0
   33DE 7F                12822 	.db #0x7f	; 127
   33DF 00                12823 	.db #0x00	; 0
   33E0 1F                12824 	.db #0x1f	; 31
   33E1 80                12825 	.db #0x80	; 128
   33E2 03                12826 	.db #0x03	; 3
   33E3 E0                12827 	.db #0xe0	; 224
   33E4 00                12828 	.db #0x00	; 0
   33E5 F8                12829 	.db #0xf8	; 248
   33E6 00                12830 	.db #0x00	; 0
   33E7 FF                12831 	.db #0xff	; 255
   33E8 00                12832 	.db #0x00	; 0
   33E9 FF                12833 	.db #0xff	; 255
   33EA 00                12834 	.db #0x00	; 0
   33EB FF                12835 	.db #0xff	; 255
   33EC FF                12836 	.db #0xff	; 255
   33ED 00                12837 	.db #0x00	; 0
   33EE FE                12838 	.db #0xfe	; 254
   33EF 00                12839 	.db #0x00	; 0
   33F0 F8                12840 	.db #0xf8	; 248
   33F1 01                12841 	.db #0x01	; 1
   33F2 C0                12842 	.db #0xc0	; 192
   33F3 07                12843 	.db #0x07	; 7
   33F4 00                12844 	.db #0x00	; 0
   33F5 3B                12845 	.db #0x3b	; 59
   33F6 00                12846 	.db #0x00	; 0
   33F7 FF                12847 	.db #0xff	; 255
   33F8 00                12848 	.db #0x00	; 0
   33F9 FF                12849 	.db #0xff	; 255
   33FA 00                12850 	.db #0x00	; 0
   33FB FF                12851 	.db #0xff	; 255
   33FC 00                12852 	.db #0x00	; 0
   33FD FB                12853 	.db #0xfb	; 251
   33FE 00                12854 	.db #0x00	; 0
   33FF DF                12855 	.db #0xdf	; 223
   3400 00                12856 	.db #0x00	; 0
   3401 FF                12857 	.db #0xff	; 255
   3402 00                12858 	.db #0x00	; 0
   3403 FF                12859 	.db #0xff	; 255
   3404 00                12860 	.db #0x00	; 0
   3405 FB                12861 	.db #0xfb	; 251
   3406 00                12862 	.db #0x00	; 0
   3407 FF                12863 	.db #0xff	; 255
   3408 00                12864 	.db #0x00	; 0
   3409 FF                12865 	.db #0xff	; 255
   340A 00                12866 	.db #0x00	; 0
   340B FF                12867 	.db #0xff	; 255
   340C 00                12868 	.db #0x00	; 0
   340D DA                12869 	.db #0xda	; 218
   340E 00                12870 	.db #0x00	; 0
   340F 6B                12871 	.db #0x6b	; 107	'k'
   3410 00                12872 	.db #0x00	; 0
   3411 8D                12873 	.db #0x8d	; 141
   3412 00                12874 	.db #0x00	; 0
   3413 E2                12875 	.db #0xe2	; 226
   3414 00                12876 	.db #0x00	; 0
   3415 F8                12877 	.db #0xf8	; 248
   3416 00                12878 	.db #0x00	; 0
   3417 FF                12879 	.db #0xff	; 255
   3418 00                12880 	.db #0x00	; 0
   3419 FF                12881 	.db #0xff	; 255
   341A 00                12882 	.db #0x00	; 0
   341B FF                12883 	.db #0xff	; 255
   341C 00                12884 	.db #0x00	; 0
   341D DA                12885 	.db #0xda	; 218
   341E 00                12886 	.db #0x00	; 0
   341F EA                12887 	.db #0xea	; 234
   3420 00                12888 	.db #0x00	; 0
   3421 49                12889 	.db #0x49	; 73	'I'
   3422 00                12890 	.db #0x00	; 0
   3423 C7                12891 	.db #0xc7	; 199
   3424 00                12892 	.db #0x00	; 0
   3425 3B                12893 	.db #0x3b	; 59
   3426 00                12894 	.db #0x00	; 0
   3427 FF                12895 	.db #0xff	; 255
   3428 00                12896 	.db #0x00	; 0
   3429 FF                12897 	.db #0xff	; 255
   342A 00                12898 	.db #0x00	; 0
   342B FF                12899 	.db #0xff	; 255
   342C FF                12900 	.db #0xff	; 255
   342D 00                12901 	.db #0x00	; 0
   342E FF                12902 	.db #0xff	; 255
   342F 3C                12903 	.db #0x3c	; 60
   3430 EF                12904 	.db #0xef	; 239
   3431 66                12905 	.db #0x66	; 102	'f'
   3432 DF                12906 	.db #0xdf	; 223
   3433 E2                12907 	.db #0xe2	; 226
   3434 DB                12908 	.db #0xdb	; 219
   3435 E7                12909 	.db #0xe7	; 231
   3436 A5                12910 	.db #0xa5	; 165
   3437 BF                12911 	.db #0xbf	; 191
   3438 99                12912 	.db #0x99	; 153
   3439 BD                12913 	.db #0xbd	; 189
   343A 01                12914 	.db #0x01	; 1
   343B 7B                12915 	.db #0x7b	; 123
   343C 01                12916 	.db #0x01	; 1
   343D DB                12917 	.db #0xdb	; 219
   343E 99                12918 	.db #0x99	; 153
   343F FB                12919 	.db #0xfb	; 251
   3440 A5                12920 	.db #0xa5	; 165
   3441 FD                12921 	.db #0xfd	; 253
   3442 DB                12922 	.db #0xdb	; 219
   3443 E7                12923 	.db #0xe7	; 231
   3444 DF                12924 	.db #0xdf	; 223
   3445 E2                12925 	.db #0xe2	; 226
   3446 EF                12926 	.db #0xef	; 239
   3447 66                12927 	.db #0x66	; 102	'f'
   3448 FF                12928 	.db #0xff	; 255
   3449 3C                12929 	.db #0x3c	; 60
   344A FF                12930 	.db #0xff	; 255
   344B 00                12931 	.db #0x00	; 0
   344C FF                12932 	.db #0xff	; 255
   344D 00                12933 	.db #0x00	; 0
   344E FF                12934 	.db #0xff	; 255
   344F 00                12935 	.db #0x00	; 0
   3450 FF                12936 	.db #0xff	; 255
   3451 00                12937 	.db #0x00	; 0
   3452 FF                12938 	.db #0xff	; 255
   3453 00                12939 	.db #0x00	; 0
   3454 FF                12940 	.db #0xff	; 255
   3455 00                12941 	.db #0x00	; 0
   3456 FF                12942 	.db #0xff	; 255
   3457 00                12943 	.db #0x00	; 0
   3458 FF                12944 	.db #0xff	; 255
   3459 00                12945 	.db #0x00	; 0
   345A FF                12946 	.db #0xff	; 255
   345B 00                12947 	.db #0x00	; 0
   345C FF                12948 	.db #0xff	; 255
   345D 00                12949 	.db #0x00	; 0
   345E FF                12950 	.db #0xff	; 255
   345F 18                12951 	.db #0x18	; 24
   3460 EF                12952 	.db #0xef	; 239
   3461 24                12953 	.db #0x24	; 36
   3462 CB                12954 	.db #0xcb	; 203
   3463 46                12955 	.db #0x46	; 70	'F'
   3464 FB                12956 	.db #0xfb	; 251
   3465 46                12957 	.db #0x46	; 70	'F'
   3466 F7                12958 	.db #0xf7	; 247
   3467 2C                12959 	.db #0x2c	; 44
   3468 FF                12960 	.db #0xff	; 255
   3469 18                12961 	.db #0x18	; 24
   346A FF                12962 	.db #0xff	; 255
   346B 00                12963 	.db #0x00	; 0
   346C FF                12964 	.db #0xff	; 255
   346D 3C                12965 	.db #0x3c	; 60
   346E FF                12966 	.db #0xff	; 255
   346F 42                12967 	.db #0x42	; 66	'B'
   3470 CF                12968 	.db #0xcf	; 207
   3471 72                12969 	.db #0x72	; 114	'r'
   3472 E7                12970 	.db #0xe7	; 231
   3473 FF                12971 	.db #0xff	; 255
   3474 99                12972 	.db #0x99	; 153
   3475 FF                12973 	.db #0xff	; 255
   3476 BB                12974 	.db #0xbb	; 187
   3477 DD                12975 	.db #0xdd	; 221
   3478 87                12976 	.db #0x87	; 135
   3479 F9                12977 	.db #0xf9	; 249
   347A FF                12978 	.db #0xff	; 255
   347B 7E                12979 	.db #0x7e	; 126
   347C                   12980 _lava_tiles:
   347C FF                12981 	.db #0xff	; 255
   347D 00                12982 	.db #0x00	; 0
   347E 7F                12983 	.db #0x7f	; 127
   347F 80                12984 	.db #0x80	; 128
   3480 1F                12985 	.db #0x1f	; 31
   3481 60                12986 	.db #0x60	; 96
   3482 03                12987 	.db #0x03	; 3
   3483 1C                12988 	.db #0x1c	; 28
   3484 00                12989 	.db #0x00	; 0
   3485 07                12990 	.db #0x07	; 7
   3486 00                12991 	.db #0x00	; 0
   3487 00                12992 	.db #0x00	; 0
   3488 00                12993 	.db #0x00	; 0
   3489 00                12994 	.db #0x00	; 0
   348A 00                12995 	.db #0x00	; 0
   348B 00                12996 	.db #0x00	; 0
   348C FF                12997 	.db #0xff	; 255
   348D 00                12998 	.db #0x00	; 0
   348E FE                12999 	.db #0xfe	; 254
   348F 01                13000 	.db #0x01	; 1
   3490 F8                13001 	.db #0xf8	; 248
   3491 06                13002 	.db #0x06	; 6
   3492 C0                13003 	.db #0xc0	; 192
   3493 38                13004 	.db #0x38	; 56	'8'
   3494 00                13005 	.db #0x00	; 0
   3495 C4                13006 	.db #0xc4	; 196
   3496 00                13007 	.db #0x00	; 0
   3497 00                13008 	.db #0x00	; 0
   3498 00                13009 	.db #0x00	; 0
   3499 00                13010 	.db #0x00	; 0
   349A 00                13011 	.db #0x00	; 0
   349B 00                13012 	.db #0x00	; 0
   349C 00                13013 	.db #0x00	; 0
   349D 04                13014 	.db #0x04	; 4
   349E 00                13015 	.db #0x00	; 0
   349F 20                13016 	.db #0x20	; 32
   34A0 00                13017 	.db #0x00	; 0
   34A1 00                13018 	.db #0x00	; 0
   34A2 00                13019 	.db #0x00	; 0
   34A3 00                13020 	.db #0x00	; 0
   34A4 00                13021 	.db #0x00	; 0
   34A5 04                13022 	.db #0x04	; 4
   34A6 00                13023 	.db #0x00	; 0
   34A7 00                13024 	.db #0x00	; 0
   34A8 00                13025 	.db #0x00	; 0
   34A9 00                13026 	.db #0x00	; 0
   34AA 00                13027 	.db #0x00	; 0
   34AB 00                13028 	.db #0x00	; 0
   34AC 00                13029 	.db #0x00	; 0
   34AD 25                13030 	.db #0x25	; 37
   34AE 00                13031 	.db #0x00	; 0
   34AF 94                13032 	.db #0x94	; 148
   34B0 00                13033 	.db #0x00	; 0
   34B1 72                13034 	.db #0x72	; 114	'r'
   34B2 00                13035 	.db #0x00	; 0
   34B3 1D                13036 	.db #0x1d	; 29
   34B4 00                13037 	.db #0x00	; 0
   34B5 07                13038 	.db #0x07	; 7
   34B6 00                13039 	.db #0x00	; 0
   34B7 00                13040 	.db #0x00	; 0
   34B8 00                13041 	.db #0x00	; 0
   34B9 00                13042 	.db #0x00	; 0
   34BA 00                13043 	.db #0x00	; 0
   34BB 00                13044 	.db #0x00	; 0
   34BC 00                13045 	.db #0x00	; 0
   34BD 25                13046 	.db #0x25	; 37
   34BE 00                13047 	.db #0x00	; 0
   34BF 15                13048 	.db #0x15	; 21
   34C0 00                13049 	.db #0x00	; 0
   34C1 B6                13050 	.db #0xb6	; 182
   34C2 00                13051 	.db #0x00	; 0
   34C3 38                13052 	.db #0x38	; 56	'8'
   34C4 00                13053 	.db #0x00	; 0
   34C5 C4                13054 	.db #0xc4	; 196
   34C6 00                13055 	.db #0x00	; 0
   34C7 00                13056 	.db #0x00	; 0
   34C8 00                13057 	.db #0x00	; 0
   34C9 00                13058 	.db #0x00	; 0
   34CA 00                13059 	.db #0x00	; 0
   34CB 00                13060 	.db #0x00	; 0
   34CC FF                13061 	.db #0xff	; 255
   34CD 00                13062 	.db #0x00	; 0
   34CE FF                13063 	.db #0xff	; 255
   34CF 00                13064 	.db #0x00	; 0
   34D0 0F                13065 	.db #0x0f	; 15
   34D1 F0                13066 	.db #0xf0	; 240
   34D2 01                13067 	.db #0x01	; 1
   34D3 0E                13068 	.db #0x0e	; 14
   34D4 00                13069 	.db #0x00	; 0
   34D5 03                13070 	.db #0x03	; 3
   34D6 00                13071 	.db #0x00	; 0
   34D7 00                13072 	.db #0x00	; 0
   34D8 00                13073 	.db #0x00	; 0
   34D9 00                13074 	.db #0x00	; 0
   34DA 00                13075 	.db #0x00	; 0
   34DB 00                13076 	.db #0x00	; 0
   34DC FF                13077 	.db #0xff	; 255
   34DD 00                13078 	.db #0x00	; 0
   34DE FF                13079 	.db #0xff	; 255
   34DF 00                13080 	.db #0x00	; 0
   34E0 F0                13081 	.db #0xf0	; 240
   34E1 0F                13082 	.db #0x0f	; 15
   34E2 80                13083 	.db #0x80	; 128
   34E3 70                13084 	.db #0x70	; 112	'p'
   34E4 00                13085 	.db #0x00	; 0
   34E5 82                13086 	.db #0x82	; 130
   34E6 00                13087 	.db #0x00	; 0
   34E7 00                13088 	.db #0x00	; 0
   34E8 00                13089 	.db #0x00	; 0
   34E9 00                13090 	.db #0x00	; 0
   34EA 00                13091 	.db #0x00	; 0
   34EB 00                13092 	.db #0x00	; 0
   34EC 00                13093 	.db #0x00	; 0
   34ED 22                13094 	.db #0x22	; 34
   34EE 00                13095 	.db #0x00	; 0
   34EF 00                13096 	.db #0x00	; 0
   34F0 00                13097 	.db #0x00	; 0
   34F1 00                13098 	.db #0x00	; 0
   34F2 00                13099 	.db #0x00	; 0
   34F3 00                13100 	.db #0x00	; 0
   34F4 00                13101 	.db #0x00	; 0
   34F5 02                13102 	.db #0x02	; 2
   34F6 00                13103 	.db #0x00	; 0
   34F7 00                13104 	.db #0x00	; 0
   34F8 00                13105 	.db #0x00	; 0
   34F9 00                13106 	.db #0x00	; 0
   34FA 00                13107 	.db #0x00	; 0
   34FB 00                13108 	.db #0x00	; 0
   34FC 00                13109 	.db #0x00	; 0
   34FD 25                13110 	.db #0x25	; 37
   34FE 00                13111 	.db #0x00	; 0
   34FF 14                13112 	.db #0x14	; 20
   3500 00                13113 	.db #0x00	; 0
   3501 F2                13114 	.db #0xf2	; 242
   3502 00                13115 	.db #0x00	; 0
   3503 0F                13116 	.db #0x0f	; 15
   3504 00                13117 	.db #0x00	; 0
   3505 03                13118 	.db #0x03	; 3
   3506 00                13119 	.db #0x00	; 0
   3507 00                13120 	.db #0x00	; 0
   3508 00                13121 	.db #0x00	; 0
   3509 00                13122 	.db #0x00	; 0
   350A 00                13123 	.db #0x00	; 0
   350B 00                13124 	.db #0x00	; 0
   350C 00                13125 	.db #0x00	; 0
   350D 25                13126 	.db #0x25	; 37
   350E 00                13127 	.db #0x00	; 0
   350F 14                13128 	.db #0x14	; 20
   3510 00                13129 	.db #0x00	; 0
   3511 BF                13130 	.db #0xbf	; 191
   3512 00                13131 	.db #0x00	; 0
   3513 70                13132 	.db #0x70	; 112	'p'
   3514 00                13133 	.db #0x00	; 0
   3515 82                13134 	.db #0x82	; 130
   3516 00                13135 	.db #0x00	; 0
   3517 00                13136 	.db #0x00	; 0
   3518 00                13137 	.db #0x00	; 0
   3519 00                13138 	.db #0x00	; 0
   351A 00                13139 	.db #0x00	; 0
   351B 00                13140 	.db #0x00	; 0
   351C FF                13141 	.db #0xff	; 255
   351D 00                13142 	.db #0x00	; 0
   351E FF                13143 	.db #0xff	; 255
   351F 00                13144 	.db #0x00	; 0
   3520 07                13145 	.db #0x07	; 7
   3521 F8                13146 	.db #0xf8	; 248
   3522 00                13147 	.db #0x00	; 0
   3523 27                13148 	.db #0x27	; 39
   3524 00                13149 	.db #0x00	; 0
   3525 00                13150 	.db #0x00	; 0
   3526 00                13151 	.db #0x00	; 0
   3527 00                13152 	.db #0x00	; 0
   3528 00                13153 	.db #0x00	; 0
   3529 00                13154 	.db #0x00	; 0
   352A 00                13155 	.db #0x00	; 0
   352B 20                13156 	.db #0x20	; 32
   352C FF                13157 	.db #0xff	; 255
   352D 00                13158 	.db #0x00	; 0
   352E FF                13159 	.db #0xff	; 255
   352F 00                13160 	.db #0x00	; 0
   3530 E0                13161 	.db #0xe0	; 224
   3531 1F                13162 	.db #0x1f	; 31
   3532 00                13163 	.db #0x00	; 0
   3533 E0                13164 	.db #0xe0	; 224
   3534 00                13165 	.db #0x00	; 0
   3535 00                13166 	.db #0x00	; 0
   3536 00                13167 	.db #0x00	; 0
   3537 00                13168 	.db #0x00	; 0
   3538 00                13169 	.db #0x00	; 0
   3539 00                13170 	.db #0x00	; 0
   353A 00                13171 	.db #0x00	; 0
   353B 22                13172 	.db #0x22	; 34
   353C 00                13173 	.db #0x00	; 0
   353D 00                13174 	.db #0x00	; 0
   353E 00                13175 	.db #0x00	; 0
   353F 00                13176 	.db #0x00	; 0
   3540 00                13177 	.db #0x00	; 0
   3541 00                13178 	.db #0x00	; 0
   3542 00                13179 	.db #0x00	; 0
   3543 22                13180 	.db #0x22	; 34
   3544 00                13181 	.db #0x00	; 0
   3545 00                13182 	.db #0x00	; 0
   3546 00                13183 	.db #0x00	; 0
   3547 00                13184 	.db #0x00	; 0
   3548 00                13185 	.db #0x00	; 0
   3549 00                13186 	.db #0x00	; 0
   354A 00                13187 	.db #0x00	; 0
   354B 02                13188 	.db #0x02	; 2
   354C 00                13189 	.db #0x00	; 0
   354D 25                13190 	.db #0x25	; 37
   354E 00                13191 	.db #0x00	; 0
   354F 14                13192 	.db #0x14	; 20
   3550 00                13193 	.db #0x00	; 0
   3551 FA                13194 	.db #0xfa	; 250
   3552 00                13195 	.db #0x00	; 0
   3553 27                13196 	.db #0x27	; 39
   3554 00                13197 	.db #0x00	; 0
   3555 00                13198 	.db #0x00	; 0
   3556 00                13199 	.db #0x00	; 0
   3557 00                13200 	.db #0x00	; 0
   3558 00                13201 	.db #0x00	; 0
   3559 00                13202 	.db #0x00	; 0
   355A 00                13203 	.db #0x00	; 0
   355B 22                13204 	.db #0x22	; 34
   355C 00                13205 	.db #0x00	; 0
   355D 25                13206 	.db #0x25	; 37
   355E 00                13207 	.db #0x00	; 0
   355F 14                13208 	.db #0x14	; 20
   3560 00                13209 	.db #0x00	; 0
   3561 BF                13210 	.db #0xbf	; 191
   3562 00                13211 	.db #0x00	; 0
   3563 E0                13212 	.db #0xe0	; 224
   3564 00                13213 	.db #0x00	; 0
   3565 00                13214 	.db #0x00	; 0
   3566 00                13215 	.db #0x00	; 0
   3567 00                13216 	.db #0x00	; 0
   3568 00                13217 	.db #0x00	; 0
   3569 00                13218 	.db #0x00	; 0
   356A 00                13219 	.db #0x00	; 0
   356B 22                13220 	.db #0x22	; 34
   356C FF                13221 	.db #0xff	; 255
   356D 00                13222 	.db #0x00	; 0
   356E FF                13223 	.db #0xff	; 255
   356F 00                13224 	.db #0x00	; 0
   3570 3F                13225 	.db #0x3f	; 63
   3571 C0                13226 	.db #0xc0	; 192
   3572 C7                13227 	.db #0xc7	; 199
   3573 38                13228 	.db #0x38	; 56	'8'
   3574 F8                13229 	.db #0xf8	; 248
   3575 07                13230 	.db #0x07	; 7
   3576 FF                13231 	.db #0xff	; 255
   3577 00                13232 	.db #0x00	; 0
   3578 DF                13233 	.db #0xdf	; 223
   3579 20                13234 	.db #0x20	; 32
   357A FB                13235 	.db #0xfb	; 251
   357B 04                13236 	.db #0x04	; 4
   357C FF                13237 	.db #0xff	; 255
   357D 00                13238 	.db #0x00	; 0
   357E FF                13239 	.db #0xff	; 255
   357F 00                13240 	.db #0x00	; 0
   3580 FC                13241 	.db #0xfc	; 252
   3581 03                13242 	.db #0x03	; 3
   3582 E3                13243 	.db #0xe3	; 227
   3583 1C                13244 	.db #0x1c	; 28
   3584 1F                13245 	.db #0x1f	; 31
   3585 E0                13246 	.db #0xe0	; 224
   3586 FF                13247 	.db #0xff	; 255
   3587 00                13248 	.db #0x00	; 0
   3588 DF                13249 	.db #0xdf	; 223
   3589 20                13250 	.db #0x20	; 32
   358A FB                13251 	.db #0xfb	; 251
   358B 04                13252 	.db #0x04	; 4
   358C FF                13253 	.db #0xff	; 255
   358D 00                13254 	.db #0x00	; 0
   358E FF                13255 	.db #0xff	; 255
   358F 00                13256 	.db #0x00	; 0
   3590 FF                13257 	.db #0xff	; 255
   3591 00                13258 	.db #0x00	; 0
   3592 FB                13259 	.db #0xfb	; 251
   3593 04                13260 	.db #0x04	; 4
   3594 FF                13261 	.db #0xff	; 255
   3595 00                13262 	.db #0x00	; 0
   3596 FF                13263 	.db #0xff	; 255
   3597 00                13264 	.db #0x00	; 0
   3598 DF                13265 	.db #0xdf	; 223
   3599 20                13266 	.db #0x20	; 32
   359A FB                13267 	.db #0xfb	; 251
   359B 04                13268 	.db #0x04	; 4
   359C 00                13269 	.db #0x00	; 0
   359D 25                13270 	.db #0x25	; 37
   359E 00                13271 	.db #0x00	; 0
   359F 14                13272 	.db #0x14	; 20
   35A0 00                13273 	.db #0x00	; 0
   35A1 F2                13274 	.db #0xf2	; 242
   35A2 C0                13275 	.db #0xc0	; 192
   35A3 39                13276 	.db #0x39	; 57	'9'
   35A4 F8                13277 	.db #0xf8	; 248
   35A5 07                13278 	.db #0x07	; 7
   35A6 FF                13279 	.db #0xff	; 255
   35A7 00                13280 	.db #0x00	; 0
   35A8 DF                13281 	.db #0xdf	; 223
   35A9 20                13282 	.db #0x20	; 32
   35AA FB                13283 	.db #0xfb	; 251
   35AB 04                13284 	.db #0x04	; 4
   35AC 00                13285 	.db #0x00	; 0
   35AD 25                13286 	.db #0x25	; 37
   35AE 00                13287 	.db #0x00	; 0
   35AF 14                13288 	.db #0x14	; 20
   35B0 00                13289 	.db #0x00	; 0
   35B1 B3                13290 	.db #0xb3	; 179
   35B2 03                13291 	.db #0x03	; 3
   35B3 1C                13292 	.db #0x1c	; 28
   35B4 1F                13293 	.db #0x1f	; 31
   35B5 E0                13294 	.db #0xe0	; 224
   35B6 FF                13295 	.db #0xff	; 255
   35B7 00                13296 	.db #0x00	; 0
   35B8 DF                13297 	.db #0xdf	; 223
   35B9 20                13298 	.db #0x20	; 32
   35BA FB                13299 	.db #0xfb	; 251
   35BB 04                13300 	.db #0x04	; 4
   35BC FF                13301 	.db #0xff	; 255
   35BD 00                13302 	.db #0x00	; 0
   35BE 1F                13303 	.db #0x1f	; 31
   35BF E0                13304 	.db #0xe0	; 224
   35C0 E7                13305 	.db #0xe7	; 231
   35C1 18                13306 	.db #0x18	; 24
   35C2 F9                13307 	.db #0xf9	; 249
   35C3 06                13308 	.db #0x06	; 6
   35C4 FE                13309 	.db #0xfe	; 254
   35C5 01                13310 	.db #0x01	; 1
   35C6 F7                13311 	.db #0xf7	; 247
   35C7 08                13312 	.db #0x08	; 8
   35C8 FE                13313 	.db #0xfe	; 254
   35C9 01                13314 	.db #0x01	; 1
   35CA FF                13315 	.db #0xff	; 255
   35CB 00                13316 	.db #0x00	; 0
   35CC FF                13317 	.db #0xff	; 255
   35CD 00                13318 	.db #0x00	; 0
   35CE F8                13319 	.db #0xf8	; 248
   35CF 07                13320 	.db #0x07	; 7
   35D0 E7                13321 	.db #0xe7	; 231
   35D1 18                13322 	.db #0x18	; 24
   35D2 9F                13323 	.db #0x9f	; 159
   35D3 60                13324 	.db #0x60	; 96
   35D4 7F                13325 	.db #0x7f	; 127
   35D5 80                13326 	.db #0x80	; 128
   35D6 F7                13327 	.db #0xf7	; 247
   35D7 08                13328 	.db #0x08	; 8
   35D8 FE                13329 	.db #0xfe	; 254
   35D9 01                13330 	.db #0x01	; 1
   35DA FF                13331 	.db #0xff	; 255
   35DB 00                13332 	.db #0x00	; 0
   35DC FF                13333 	.db #0xff	; 255
   35DD 00                13334 	.db #0x00	; 0
   35DE F7                13335 	.db #0xf7	; 247
   35DF 08                13336 	.db #0x08	; 8
   35E0 FE                13337 	.db #0xfe	; 254
   35E1 01                13338 	.db #0x01	; 1
   35E2 FF                13339 	.db #0xff	; 255
   35E3 00                13340 	.db #0x00	; 0
   35E4 FF                13341 	.db #0xff	; 255
   35E5 00                13342 	.db #0x00	; 0
   35E6 F7                13343 	.db #0xf7	; 247
   35E7 08                13344 	.db #0x08	; 8
   35E8 FE                13345 	.db #0xfe	; 254
   35E9 01                13346 	.db #0x01	; 1
   35EA FF                13347 	.db #0xff	; 255
   35EB 00                13348 	.db #0x00	; 0
   35EC 00                13349 	.db #0x00	; 0
   35ED 25                13350 	.db #0x25	; 37
   35EE 00                13351 	.db #0x00	; 0
   35EF F4                13352 	.db #0xf4	; 244
   35F0 E0                13353 	.db #0xe0	; 224
   35F1 1A                13354 	.db #0x1a	; 26
   35F2 F8                13355 	.db #0xf8	; 248
   35F3 07                13356 	.db #0x07	; 7
   35F4 FE                13357 	.db #0xfe	; 254
   35F5 01                13358 	.db #0x01	; 1
   35F6 F7                13359 	.db #0xf7	; 247
   35F7 08                13360 	.db #0x08	; 8
   35F8 FE                13361 	.db #0xfe	; 254
   35F9 01                13362 	.db #0x01	; 1
   35FA FF                13363 	.db #0xff	; 255
   35FB 00                13364 	.db #0x00	; 0
   35FC 00                13365 	.db #0x00	; 0
   35FD 25                13366 	.db #0x25	; 37
   35FE 00                13367 	.db #0x00	; 0
   35FF 17                13368 	.db #0x17	; 23
   3600 07                13369 	.db #0x07	; 7
   3601 B8                13370 	.db #0xb8	; 184
   3602 1F                13371 	.db #0x1f	; 31
   3603 60                13372 	.db #0x60	; 96
   3604 7F                13373 	.db #0x7f	; 127
   3605 80                13374 	.db #0x80	; 128
   3606 F7                13375 	.db #0xf7	; 247
   3607 08                13376 	.db #0x08	; 8
   3608 FE                13377 	.db #0xfe	; 254
   3609 01                13378 	.db #0x01	; 1
   360A FF                13379 	.db #0xff	; 255
   360B 00                13380 	.db #0x00	; 0
   360C FF                13381 	.db #0xff	; 255
   360D 00                13382 	.db #0x00	; 0
   360E FF                13383 	.db #0xff	; 255
   360F 00                13384 	.db #0x00	; 0
   3610 FF                13385 	.db #0xff	; 255
   3611 00                13386 	.db #0x00	; 0
   3612 F8                13387 	.db #0xf8	; 248
   3613 07                13388 	.db #0x07	; 7
   3614 07                13389 	.db #0x07	; 7
   3615 F8                13390 	.db #0xf8	; 248
   3616 FF                13391 	.db #0xff	; 255
   3617 00                13392 	.db #0x00	; 0
   3618 FD                13393 	.db #0xfd	; 253
   3619 02                13394 	.db #0x02	; 2
   361A FF                13395 	.db #0xff	; 255
   361B 00                13396 	.db #0x00	; 0
   361C FF                13397 	.db #0xff	; 255
   361D 00                13398 	.db #0x00	; 0
   361E FF                13399 	.db #0xff	; 255
   361F 00                13400 	.db #0x00	; 0
   3620 FF                13401 	.db #0xff	; 255
   3621 00                13402 	.db #0x00	; 0
   3622 1F                13403 	.db #0x1f	; 31
   3623 E0                13404 	.db #0xe0	; 224
   3624 E0                13405 	.db #0xe0	; 224
   3625 1F                13406 	.db #0x1f	; 31
   3626 FF                13407 	.db #0xff	; 255
   3627 00                13408 	.db #0x00	; 0
   3628 FD                13409 	.db #0xfd	; 253
   3629 02                13410 	.db #0x02	; 2
   362A FF                13411 	.db #0xff	; 255
   362B 00                13412 	.db #0x00	; 0
   362C FF                13413 	.db #0xff	; 255
   362D 00                13414 	.db #0x00	; 0
   362E FF                13415 	.db #0xff	; 255
   362F 00                13416 	.db #0x00	; 0
   3630 FD                13417 	.db #0xfd	; 253
   3631 02                13418 	.db #0x02	; 2
   3632 FF                13419 	.db #0xff	; 255
   3633 00                13420 	.db #0x00	; 0
   3634 DF                13421 	.db #0xdf	; 223
   3635 20                13422 	.db #0x20	; 32
   3636 FF                13423 	.db #0xff	; 255
   3637 00                13424 	.db #0x00	; 0
   3638 FD                13425 	.db #0xfd	; 253
   3639 02                13426 	.db #0x02	; 2
   363A FF                13427 	.db #0xff	; 255
   363B 00                13428 	.db #0x00	; 0
   363C 00                13429 	.db #0x00	; 0
   363D 25                13430 	.db #0x25	; 37
   363E 00                13431 	.db #0x00	; 0
   363F 14                13432 	.db #0x14	; 20
   3640 00                13433 	.db #0x00	; 0
   3641 B2                13434 	.db #0xb2	; 178
   3642 00                13435 	.db #0x00	; 0
   3643 17                13436 	.db #0x17	; 23
   3644 07                13437 	.db #0x07	; 7
   3645 F8                13438 	.db #0xf8	; 248
   3646 FF                13439 	.db #0xff	; 255
   3647 00                13440 	.db #0x00	; 0
   3648 FD                13441 	.db #0xfd	; 253
   3649 02                13442 	.db #0x02	; 2
   364A FF                13443 	.db #0xff	; 255
   364B 00                13444 	.db #0x00	; 0
   364C 00                13445 	.db #0x00	; 0
   364D 25                13446 	.db #0x25	; 37
   364E 00                13447 	.db #0x00	; 0
   364F 14                13448 	.db #0x14	; 20
   3650 00                13449 	.db #0x00	; 0
   3651 B2                13450 	.db #0xb2	; 178
   3652 00                13451 	.db #0x00	; 0
   3653 F1                13452 	.db #0xf1	; 241
   3654 E0                13453 	.db #0xe0	; 224
   3655 1F                13454 	.db #0x1f	; 31
   3656 FF                13455 	.db #0xff	; 255
   3657 00                13456 	.db #0x00	; 0
   3658 FD                13457 	.db #0xfd	; 253
   3659 02                13458 	.db #0x02	; 2
   365A FF                13459 	.db #0xff	; 255
   365B 00                13460 	.db #0x00	; 0
   365C FF                13461 	.db #0xff	; 255
   365D 00                13462 	.db #0x00	; 0
   365E FF                13463 	.db #0xff	; 255
   365F 00                13464 	.db #0x00	; 0
   3660 3F                13465 	.db #0x3f	; 63
   3661 C0                13466 	.db #0xc0	; 192
   3662 C7                13467 	.db #0xc7	; 199
   3663 38                13468 	.db #0x38	; 56	'8'
   3664 F8                13469 	.db #0xf8	; 248
   3665 07                13470 	.db #0x07	; 7
   3666 FD                13471 	.db #0xfd	; 253
   3667 02                13472 	.db #0x02	; 2
   3668 FF                13473 	.db #0xff	; 255
   3669 00                13474 	.db #0x00	; 0
   366A FF                13475 	.db #0xff	; 255
   366B 00                13476 	.db #0x00	; 0
   366C FF                13477 	.db #0xff	; 255
   366D 00                13478 	.db #0x00	; 0
   366E FF                13479 	.db #0xff	; 255
   366F 00                13480 	.db #0x00	; 0
   3670 FC                13481 	.db #0xfc	; 252
   3671 03                13482 	.db #0x03	; 3
   3672 E3                13483 	.db #0xe3	; 227
   3673 1C                13484 	.db #0x1c	; 28
   3674 1F                13485 	.db #0x1f	; 31
   3675 E0                13486 	.db #0xe0	; 224
   3676 FD                13487 	.db #0xfd	; 253
   3677 02                13488 	.db #0x02	; 2
   3678 FF                13489 	.db #0xff	; 255
   3679 00                13490 	.db #0x00	; 0
   367A FF                13491 	.db #0xff	; 255
   367B 00                13492 	.db #0x00	; 0
   367C FF                13493 	.db #0xff	; 255
   367D 00                13494 	.db #0x00	; 0
   367E FD                13495 	.db #0xfd	; 253
   367F 02                13496 	.db #0x02	; 2
   3680 FF                13497 	.db #0xff	; 255
   3681 00                13498 	.db #0x00	; 0
   3682 DF                13499 	.db #0xdf	; 223
   3683 20                13500 	.db #0x20	; 32
   3684 FF                13501 	.db #0xff	; 255
   3685 00                13502 	.db #0x00	; 0
   3686 FD                13503 	.db #0xfd	; 253
   3687 02                13504 	.db #0x02	; 2
   3688 FF                13505 	.db #0xff	; 255
   3689 00                13506 	.db #0x00	; 0
   368A FF                13507 	.db #0xff	; 255
   368B 00                13508 	.db #0x00	; 0
   368C 00                13509 	.db #0x00	; 0
   368D 25                13510 	.db #0x25	; 37
   368E 00                13511 	.db #0x00	; 0
   368F 14                13512 	.db #0x14	; 20
   3690 00                13513 	.db #0x00	; 0
   3691 F2                13514 	.db #0xf2	; 242
   3692 C0                13515 	.db #0xc0	; 192
   3693 39                13516 	.db #0x39	; 57	'9'
   3694 F8                13517 	.db #0xf8	; 248
   3695 07                13518 	.db #0x07	; 7
   3696 FD                13519 	.db #0xfd	; 253
   3697 02                13520 	.db #0x02	; 2
   3698 FF                13521 	.db #0xff	; 255
   3699 00                13522 	.db #0x00	; 0
   369A FF                13523 	.db #0xff	; 255
   369B 00                13524 	.db #0x00	; 0
   369C 00                13525 	.db #0x00	; 0
   369D 25                13526 	.db #0x25	; 37
   369E 00                13527 	.db #0x00	; 0
   369F 14                13528 	.db #0x14	; 20
   36A0 00                13529 	.db #0x00	; 0
   36A1 B3                13530 	.db #0xb3	; 179
   36A2 03                13531 	.db #0x03	; 3
   36A3 1C                13532 	.db #0x1c	; 28
   36A4 1F                13533 	.db #0x1f	; 31
   36A5 E0                13534 	.db #0xe0	; 224
   36A6 FD                13535 	.db #0xfd	; 253
   36A7 02                13536 	.db #0x02	; 2
   36A8 FF                13537 	.db #0xff	; 255
   36A9 00                13538 	.db #0x00	; 0
   36AA FF                13539 	.db #0xff	; 255
   36AB 00                13540 	.db #0x00	; 0
   36AC                   13541 _exit_tiles:
   36AC FF                13542 	.db #0xff	; 255
   36AD 00                13543 	.db #0x00	; 0
   36AE FF                13544 	.db #0xff	; 255
   36AF 3C                13545 	.db #0x3c	; 60
   36B0 EF                13546 	.db #0xef	; 239
   36B1 66                13547 	.db #0x66	; 102	'f'
   36B2 DF                13548 	.db #0xdf	; 223
   36B3 E2                13549 	.db #0xe2	; 226
   36B4 DB                13550 	.db #0xdb	; 219
   36B5 E7                13551 	.db #0xe7	; 231
   36B6 A5                13552 	.db #0xa5	; 165
   36B7 BF                13553 	.db #0xbf	; 191
   36B8 99                13554 	.db #0x99	; 153
   36B9 BD                13555 	.db #0xbd	; 189
   36BA 01                13556 	.db #0x01	; 1
   36BB 7B                13557 	.db #0x7b	; 123
   36BC 01                13558 	.db #0x01	; 1
   36BD DB                13559 	.db #0xdb	; 219
   36BE 99                13560 	.db #0x99	; 153
   36BF FB                13561 	.db #0xfb	; 251
   36C0 A5                13562 	.db #0xa5	; 165
   36C1 FD                13563 	.db #0xfd	; 253
   36C2 DB                13564 	.db #0xdb	; 219
   36C3 E7                13565 	.db #0xe7	; 231
   36C4 DF                13566 	.db #0xdf	; 223
   36C5 E2                13567 	.db #0xe2	; 226
   36C6 EF                13568 	.db #0xef	; 239
   36C7 66                13569 	.db #0x66	; 102	'f'
   36C8 FF                13570 	.db #0xff	; 255
   36C9 3C                13571 	.db #0x3c	; 60
   36CA FF                13572 	.db #0xff	; 255
   36CB 00                13573 	.db #0x00	; 0
   36CC FF                13574 	.db #0xff	; 255
   36CD 00                13575 	.db #0x00	; 0
   36CE FF                13576 	.db #0xff	; 255
   36CF 3C                13577 	.db #0x3c	; 60
   36D0 E7                13578 	.db #0xe7	; 231
   36D1 66                13579 	.db #0x66	; 102	'f'
   36D2 E3                13580 	.db #0xe3	; 227
   36D3 C2                13581 	.db #0xc2	; 194
   36D4 E7                13582 	.db #0xe7	; 231
   36D5 C3                13583 	.db #0xc3	; 195
   36D6 BD                13584 	.db #0xbd	; 189
   36D7 A7                13585 	.db #0xa7	; 167
   36D8 99                13586 	.db #0x99	; 153
   36D9 BD                13587 	.db #0xbd	; 189
   36DA 01                13588 	.db #0x01	; 1
   36DB 7B                13589 	.db #0x7b	; 123
   36DC 01                13590 	.db #0x01	; 1
   36DD DB                13591 	.db #0xdb	; 219
   36DE 99                13592 	.db #0x99	; 153
   36DF FB                13593 	.db #0xfb	; 251
   36E0 BD                13594 	.db #0xbd	; 189
   36E1 E5                13595 	.db #0xe5	; 229
   36E2 E7                13596 	.db #0xe7	; 231
   36E3 C3                13597 	.db #0xc3	; 195
   36E4 E3                13598 	.db #0xe3	; 227
   36E5 C2                13599 	.db #0xc2	; 194
   36E6 E7                13600 	.db #0xe7	; 231
   36E7 66                13601 	.db #0x66	; 102	'f'
   36E8 FF                13602 	.db #0xff	; 255
   36E9 3C                13603 	.db #0x3c	; 60
   36EA FF                13604 	.db #0xff	; 255
   36EB 00                13605 	.db #0x00	; 0
   36EC                   13606 _hero_tiles:
   36EC 00                13607 	.db #0x00	; 0
   36ED 00                13608 	.db #0x00	; 0
   36EE 00                13609 	.db #0x00	; 0
   36EF 00                13610 	.db #0x00	; 0
   36F0 00                13611 	.db #0x00	; 0
   36F1 00                13612 	.db #0x00	; 0
   36F2 00                13613 	.db #0x00	; 0
   36F3 00                13614 	.db #0x00	; 0
   36F4 07                13615 	.db #0x07	; 7
   36F5 07                13616 	.db #0x07	; 7
   36F6 0C                13617 	.db #0x0c	; 12
   36F7 0F                13618 	.db #0x0f	; 15
   36F8 18                13619 	.db #0x18	; 24
   36F9 1F                13620 	.db #0x1f	; 31
   36FA 11                13621 	.db #0x11	; 17
   36FB 1E                13622 	.db #0x1e	; 30
   36FC 00                13623 	.db #0x00	; 0
   36FD 00                13624 	.db #0x00	; 0
   36FE 00                13625 	.db #0x00	; 0
   36FF 00                13626 	.db #0x00	; 0
   3700 00                13627 	.db #0x00	; 0
   3701 00                13628 	.db #0x00	; 0
   3702 00                13629 	.db #0x00	; 0
   3703 00                13630 	.db #0x00	; 0
   3704 C0                13631 	.db #0xc0	; 192
   3705 C0                13632 	.db #0xc0	; 192
   3706 60                13633 	.db #0x60	; 96
   3707 E0                13634 	.db #0xe0	; 224
   3708 20                13635 	.db #0x20	; 32
   3709 E0                13636 	.db #0xe0	; 224
   370A F0                13637 	.db #0xf0	; 240
   370B 90                13638 	.db #0x90	; 144
   370C 1F                13639 	.db #0x1f	; 31
   370D 10                13640 	.db #0x10	; 16
   370E 1B                13641 	.db #0x1b	; 27
   370F 1F                13642 	.db #0x1f	; 31
   3710 3F                13643 	.db #0x3f	; 63
   3711 2F                13644 	.db #0x2f	; 47
   3712 3F                13645 	.db #0x3f	; 63
   3713 3F                13646 	.db #0x3f	; 63
   3714 08                13647 	.db #0x08	; 8
   3715 0F                13648 	.db #0x0f	; 15
   3716 1B                13649 	.db #0x1b	; 27
   3717 1F                13650 	.db #0x1f	; 31
   3718 1E                13651 	.db #0x1e	; 30
   3719 1E                13652 	.db #0x1e	; 30
   371A 1E                13653 	.db #0x1e	; 30
   371B 1E                13654 	.db #0x1e	; 30
   371C D0                13655 	.db #0xd0	; 208
   371D 30                13656 	.db #0x30	; 48	'0'
   371E 70                13657 	.db #0x70	; 112	'p'
   371F F0                13658 	.db #0xf0	; 240
   3720 F8                13659 	.db #0xf8	; 248
   3721 E8                13660 	.db #0xe8	; 232
   3722 F8                13661 	.db #0xf8	; 248
   3723 F8                13662 	.db #0xf8	; 248
   3724 20                13663 	.db #0x20	; 32
   3725 E0                13664 	.db #0xe0	; 224
   3726 B0                13665 	.db #0xb0	; 176
   3727 F0                13666 	.db #0xf0	; 240
   3728 F0                13667 	.db #0xf0	; 240
   3729 F0                13668 	.db #0xf0	; 240
   372A F0                13669 	.db #0xf0	; 240
   372B F0                13670 	.db #0xf0	; 240
   372C 1F                13671 	.db #0x1f	; 31
   372D 10                13672 	.db #0x10	; 16
   372E 0D                13673 	.db #0x0d	; 13
   372F 0F                13674 	.db #0x0f	; 15
   3730 1F                13675 	.db #0x1f	; 31
   3731 17                13676 	.db #0x17	; 23
   3732 1F                13677 	.db #0x1f	; 31
   3733 1F                13678 	.db #0x1f	; 31
   3734 0A                13679 	.db #0x0a	; 10
   3735 0F                13680 	.db #0x0f	; 15
   3736 07                13681 	.db #0x07	; 7
   3737 07                13682 	.db #0x07	; 7
   3738 07                13683 	.db #0x07	; 7
   3739 07                13684 	.db #0x07	; 7
   373A 07                13685 	.db #0x07	; 7
   373B 07                13686 	.db #0x07	; 7
   373C D0                13687 	.db #0xd0	; 208
   373D 30                13688 	.db #0x30	; 48	'0'
   373E B8                13689 	.db #0xb8	; 184
   373F F8                13690 	.db #0xf8	; 248
   3740 F0                13691 	.db #0xf0	; 240
   3741 F0                13692 	.db #0xf0	; 240
   3742 F8                13693 	.db #0xf8	; 248
   3743 E8                13694 	.db #0xe8	; 232
   3744 D0                13695 	.db #0xd0	; 208
   3745 D0                13696 	.db #0xd0	; 208
   3746 40                13697 	.db #0x40	; 64
   3747 C0                13698 	.db #0xc0	; 192
   3748 80                13699 	.db #0x80	; 128
   3749 80                13700 	.db #0x80	; 128
   374A 80                13701 	.db #0x80	; 128
   374B 80                13702 	.db #0x80	; 128
   374C 1F                13703 	.db #0x1f	; 31
   374D 10                13704 	.db #0x10	; 16
   374E 1D                13705 	.db #0x1d	; 29
   374F 1F                13706 	.db #0x1f	; 31
   3750 3F                13707 	.db #0x3f	; 63
   3751 3F                13708 	.db #0x3f	; 63
   3752 3F                13709 	.db #0x3f	; 63
   3753 2F                13710 	.db #0x2f	; 47
   3754 18                13711 	.db #0x18	; 24
   3755 1F                13712 	.db #0x1f	; 31
   3756 33                13713 	.db #0x33	; 51	'3'
   3757 3F                13714 	.db #0x3f	; 63
   3758 3C                13715 	.db #0x3c	; 60
   3759 3C                13716 	.db #0x3c	; 60
   375A 1C                13717 	.db #0x1c	; 28
   375B 1C                13718 	.db #0x1c	; 28
   375C D0                13719 	.db #0xd0	; 208
   375D 30                13720 	.db #0x30	; 48	'0'
   375E B0                13721 	.db #0xb0	; 176
   375F F0                13722 	.db #0xf0	; 240
   3760 F8                13723 	.db #0xf8	; 248
   3761 E8                13724 	.db #0xe8	; 232
   3762 F0                13725 	.db #0xf0	; 240
   3763 F0                13726 	.db #0xf0	; 240
   3764 2C                13727 	.db #0x2c	; 44
   3765 EC                13728 	.db #0xec	; 236
   3766 9C                13729 	.db #0x9c	; 156
   3767 FC                13730 	.db #0xfc	; 252
   3768 78                13731 	.db #0x78	; 120	'x'
   3769 78                13732 	.db #0x78	; 120	'x'
   376A 30                13733 	.db #0x30	; 48	'0'
   376B 30                13734 	.db #0x30	; 48	'0'
   376C 1F                13735 	.db #0x1f	; 31
   376D 10                13736 	.db #0x10	; 16
   376E 1D                13737 	.db #0x1d	; 29
   376F 1F                13738 	.db #0x1f	; 31
   3770 3F                13739 	.db #0x3f	; 63
   3771 3F                13740 	.db #0x3f	; 63
   3772 3F                13741 	.db #0x3f	; 63
   3773 2F                13742 	.db #0x2f	; 47
   3774 1A                13743 	.db #0x1a	; 26
   3775 1F                13744 	.db #0x1f	; 31
   3776 1F                13745 	.db #0x1f	; 31
   3777 1F                13746 	.db #0x1f	; 31
   3778 1F                13747 	.db #0x1f	; 31
   3779 1F                13748 	.db #0x1f	; 31
   377A 03                13749 	.db #0x03	; 3
   377B 03                13750 	.db #0x03	; 3
   377C D0                13751 	.db #0xd0	; 208
   377D 30                13752 	.db #0x30	; 48	'0'
   377E B0                13753 	.db #0xb0	; 176
   377F F0                13754 	.db #0xf0	; 240
   3780 F0                13755 	.db #0xf0	; 240
   3781 D0                13756 	.db #0xd0	; 208
   3782 E0                13757 	.db #0xe0	; 224
   3783 E0                13758 	.db #0xe0	; 224
   3784 80                13759 	.db #0x80	; 128
   3785 80                13760 	.db #0x80	; 128
   3786 80                13761 	.db #0x80	; 128
   3787 80                13762 	.db #0x80	; 128
   3788 C0                13763 	.db #0xc0	; 192
   3789 C0                13764 	.db #0xc0	; 192
   378A C0                13765 	.db #0xc0	; 192
   378B C0                13766 	.db #0xc0	; 192
   378C 1F                13767 	.db #0x1f	; 31
   378D 10                13768 	.db #0x10	; 16
   378E 3D                13769 	.db #0x3d	; 61
   378F 3F                13770 	.db #0x3f	; 63
   3790 3F                13771 	.db #0x3f	; 63
   3791 2F                13772 	.db #0x2f	; 47
   3792 3F                13773 	.db #0x3f	; 63
   3793 3F                13774 	.db #0x3f	; 63
   3794 08                13775 	.db #0x08	; 8
   3795 0F                13776 	.db #0x0f	; 15
   3796 33                13777 	.db #0x33	; 51	'3'
   3797 3F                13778 	.db #0x3f	; 63
   3798 3C                13779 	.db #0x3c	; 60
   3799 3C                13780 	.db #0x3c	; 60
   379A 1C                13781 	.db #0x1c	; 28
   379B 1C                13782 	.db #0x1c	; 28
   379C D0                13783 	.db #0xd0	; 208
   379D 30                13784 	.db #0x30	; 48	'0'
   379E B0                13785 	.db #0xb0	; 176
   379F F0                13786 	.db #0xf0	; 240
   37A0 F0                13787 	.db #0xf0	; 240
   37A1 F0                13788 	.db #0xf0	; 240
   37A2 F8                13789 	.db #0xf8	; 248
   37A3 E8                13790 	.db #0xe8	; 232
   37A4 3C                13791 	.db #0x3c	; 60
   37A5 FC                13792 	.db #0xfc	; 252
   37A6 9C                13793 	.db #0x9c	; 156
   37A7 FC                13794 	.db #0xfc	; 252
   37A8 78                13795 	.db #0x78	; 120	'x'
   37A9 78                13796 	.db #0x78	; 120	'x'
   37AA 30                13797 	.db #0x30	; 48	'0'
   37AB 30                13798 	.db #0x30	; 48	'0'
   37AC 00                13799 	.db #0x00	; 0
   37AD 00                13800 	.db #0x00	; 0
   37AE 00                13801 	.db #0x00	; 0
   37AF 00                13802 	.db #0x00	; 0
   37B0 00                13803 	.db #0x00	; 0
   37B1 00                13804 	.db #0x00	; 0
   37B2 00                13805 	.db #0x00	; 0
   37B3 00                13806 	.db #0x00	; 0
   37B4 03                13807 	.db #0x03	; 3
   37B5 03                13808 	.db #0x03	; 3
   37B6 04                13809 	.db #0x04	; 4
   37B7 07                13810 	.db #0x07	; 7
   37B8 0C                13811 	.db #0x0c	; 12
   37B9 0F                13812 	.db #0x0f	; 15
   37BA 08                13813 	.db #0x08	; 8
   37BB 0F                13814 	.db #0x0f	; 15
   37BC 00                13815 	.db #0x00	; 0
   37BD 00                13816 	.db #0x00	; 0
   37BE 00                13817 	.db #0x00	; 0
   37BF 00                13818 	.db #0x00	; 0
   37C0 00                13819 	.db #0x00	; 0
   37C1 00                13820 	.db #0x00	; 0
   37C2 00                13821 	.db #0x00	; 0
   37C3 00                13822 	.db #0x00	; 0
   37C4 E0                13823 	.db #0xe0	; 224
   37C5 E0                13824 	.db #0xe0	; 224
   37C6 38                13825 	.db #0x38	; 56	'8'
   37C7 F8                13826 	.db #0xf8	; 248
   37C8 F8                13827 	.db #0xf8	; 248
   37C9 88                13828 	.db #0x88	; 136
   37CA F8                13829 	.db #0xf8	; 248
   37CB 08                13830 	.db #0x08	; 8
   37CC 05                13831 	.db #0x05	; 5
   37CD 06                13832 	.db #0x06	; 6
   37CE 7E                13833 	.db #0x7e	; 126
   37CF 7F                13834 	.db #0x7f	; 127
   37D0 7F                13835 	.db #0x7f	; 127
   37D1 5F                13836 	.db #0x5f	; 95
   37D2 3F                13837 	.db #0x3f	; 63
   37D3 3F                13838 	.db #0x3f	; 63
   37D4 18                13839 	.db #0x18	; 24
   37D5 1F                13840 	.db #0x1f	; 31
   37D6 31                13841 	.db #0x31	; 49	'1'
   37D7 3F                13842 	.db #0x3f	; 63
   37D8 3E                13843 	.db #0x3e	; 62
   37D9 3E                13844 	.db #0x3e	; 62
   37DA 30                13845 	.db #0x30	; 48	'0'
   37DB 30                13846 	.db #0x30	; 48	'0'
   37DC F0                13847 	.db #0xf0	; 240
   37DD 30                13848 	.db #0x30	; 48	'0'
   37DE BC                13849 	.db #0xbc	; 188
   37DF FC                13850 	.db #0xfc	; 252
   37E0 FC                13851 	.db #0xfc	; 252
   37E1 F4                13852 	.db #0xf4	; 244
   37E2 E8                13853 	.db #0xe8	; 232
   37E3 F8                13854 	.db #0xf8	; 248
   37E4 1C                13855 	.db #0x1c	; 28
   37E5 FC                13856 	.db #0xfc	; 252
   37E6 FC                13857 	.db #0xfc	; 252
   37E7 FC                13858 	.db #0xfc	; 252
   37E8 18                13859 	.db #0x18	; 24
   37E9 18                13860 	.db #0x18	; 24
   37EA 00                13861 	.db #0x00	; 0
   37EB 00                13862 	.db #0x00	; 0
                          13863 	.area _CODE
                          13864 	.area _CABS (ABS)
